

Microchip MPLAB XC8 Assembler V2.41 build 20230208172133 
                                                                                               Sun Mar 24 15:43:06 2024

Microchip MPLAB XC8 C Compiler v2.41 (Free license) build 20230208172133 Og1 
     1                           	processor	18F97J60
     2                           	fnconf	rparam,??,?,0
     3                           	pagewidth 120
     4                           	opt	flic
     5                           	psect	idataBANK0,global,class=CODE,delta=1,noexec
     6                           	psect	idataBANK1,global,class=CODE,delta=1,noexec
     7                           	psect	smallconst,global,reloc=2,class=SMALLCONST,delta=1,noexec
     8                           	psect	nvBANK1,global,class=BANK1,space=1,delta=1,lowdata,noexec
     9                           	psect	cinit,global,reloc=2,class=CODE,delta=1
    10                           	psect	bssCOMRAM,global,class=COMRAM,space=1,delta=1,lowdata,noexec
    11                           	psect	bssBANK0,global,class=BANK0,space=1,delta=1,lowdata,noexec
    12                           	psect	dataBANK0,global,class=BANK0,space=1,delta=1,lowdata,noexec
    13                           	psect	bssBANK1,global,class=BANK1,space=1,delta=1,lowdata,noexec
    14                           	psect	dataBANK1,global,class=BANK1,space=1,delta=1,lowdata,noexec
    15                           	psect	cstackBANK1,global,class=BANK1,space=1,delta=1,lowdata,noexec
    16                           	psect	cstackBANK0,global,class=BANK0,space=1,delta=1,lowdata,noexec
    17                           	psect	cstackCOMRAM,global,class=COMRAM,space=1,delta=1,lowdata,noexec
    18                           	psect	text0,global,reloc=2,class=CODE,delta=1
    19                           	psect	text1,global,reloc=2,class=CODE,delta=1
    20                           	psect	text2,global,reloc=2,class=CODE,delta=1
    21                           	psect	text3,global,reloc=2,class=CODE,delta=1
    22                           	psect	text4,global,reloc=2,class=CODE,delta=1
    23                           	psect	text5,global,reloc=2,class=CODE,delta=1
    24                           	psect	text6,global,reloc=2,class=CODE,delta=1
    25                           	psect	text7,global,reloc=2,class=CODE,delta=1
    26                           	psect	text8,global,reloc=2,class=CODE,delta=1
    27                           	psect	text9,global,reloc=2,class=CODE,delta=1
    28                           	psect	text10,global,reloc=2,class=CODE,delta=1
    29                           	psect	text11,global,reloc=2,class=CODE,delta=1
    30                           	psect	text12,global,reloc=2,class=CODE,delta=1
    31                           	psect	text13,global,reloc=2,class=CODE,delta=1
    32                           	psect	text14,global,reloc=2,class=CODE,delta=1
    33                           	psect	text15,global,reloc=2,class=CODE,delta=1
    34                           	psect	text16,global,reloc=2,class=CODE,delta=1
    35                           	psect	text17,global,reloc=2,class=CODE,delta=1
    36                           	psect	text18,global,reloc=2,class=CODE,delta=1
    37                           	psect	text19,global,reloc=2,class=CODE,delta=1
    38                           	psect	text20,global,reloc=2,class=CODE,delta=1
    39                           	psect	text21,global,reloc=2,class=CODE,delta=1
    40                           	psect	intcode,global,reloc=2,class=CODE,delta=1
    41                           	psect	text23,global,reloc=2,class=CODE,delta=1
    42                           	psect	text24,global,reloc=2,class=CODE,delta=1,group=3
    43                           	psect	text25,global,reloc=2,class=CODE,delta=1,group=1
    44                           	psect	text26,global,reloc=2,class=CODE,delta=1,group=1
    45                           	psect	text27,global,reloc=2,class=CODE,delta=1,group=1
    46                           	psect	text28,global,reloc=2,class=CODE,delta=1,group=2
    47                           	psect	text29,global,reloc=2,class=CODE,delta=1,group=1
    48                           	psect	text30,global,reloc=2,class=CODE,delta=1,group=3
    49                           	psect	text31,global,reloc=2,class=CODE,delta=1,group=3
    50                           	psect	text32,global,reloc=2,class=CODE,delta=1,group=3
    51                           	psect	text33,global,reloc=2,class=CODE,delta=1,group=3
    52                           	psect	text34,global,reloc=2,class=CODE,delta=1,group=3
    53                           	psect	text35,global,reloc=2,class=CODE,delta=1,group=2
    54                           	psect	text36,global,reloc=2,class=CODE,delta=1,group=2
    55                           	psect	text37,global,reloc=2,class=CODE,delta=1,group=2
    56                           	psect	text38,global,reloc=2,class=CODE,delta=1,group=2
    57                           	psect	text39,global,reloc=2,class=CODE,delta=1,group=1
    58                           	psect	text40,global,reloc=2,class=CODE,delta=1,group=1
    59                           	psect	text41,global,reloc=2,class=CODE,delta=1,group=3
    60                           	psect	text42,global,reloc=2,class=CODE,delta=1,group=3
    61                           	psect	text43,global,reloc=2,class=CODE,delta=1,group=3
    62                           	psect	text44,global,reloc=2,class=CODE,delta=1,group=3
    63                           	psect	text45,global,reloc=2,class=CODE,delta=1,group=2
    64                           	psect	text46,global,reloc=2,class=CODE,delta=1,group=2
    65                           	psect	text47,global,reloc=2,class=CODE,delta=1,group=3
    66                           	psect	text48,global,reloc=2,class=CODE,delta=1,group=2
    67                           	psect	text49,global,reloc=2,class=CODE,delta=1,group=2
    68                           	psect	text50,global,reloc=2,class=CODE,delta=1,group=2
    69                           	psect	text51,global,reloc=2,class=CODE,delta=1,group=2
    70                           	psect	text52,global,reloc=2,class=CODE,delta=1,group=2
    71                           	psect	text53,global,reloc=2,class=CODE,delta=1
    72                           	psect	text54,global,reloc=2,class=CODE,delta=1,group=3
    73                           	psect	text55,global,reloc=2,class=CODE,delta=1
    74                           	psect	text56,global,reloc=2,class=CODE,delta=1
    75                           	psect	text57,global,reloc=2,class=CODE,delta=1
    76                           	psect	text58,global,reloc=2,class=CODE,delta=1
    77                           	psect	text59,global,reloc=2,class=CODE,delta=1
    78                           	psect	text60,global,reloc=2,class=CODE,delta=1
    79                           	psect	text61,global,reloc=2,class=CODE,delta=1
    80                           	psect	text62,global,reloc=2,class=CODE,delta=1
    81                           	psect	text63,global,reloc=2,class=CODE,delta=1
    82                           	psect	text64,global,reloc=2,class=CODE,delta=1
    83                           	psect	text65,global,reloc=2,class=CODE,delta=1
    84                           	psect	text66,global,reloc=2,class=CODE,delta=1
    85                           	psect	text67,global,reloc=2,class=CODE,delta=1
    86                           	psect	text68,global,reloc=2,class=CODE,delta=1
    87                           	psect	text69,global,reloc=2,class=CODE,delta=1
    88                           	psect	text70,global,reloc=2,class=CODE,delta=1
    89                           	psect	text71,global,reloc=2,class=CODE,delta=1
    90                           	psect	text72,global,reloc=2,class=CODE,delta=1
    91                           	psect	text73,global,reloc=2,class=CODE,delta=1
    92                           	psect	text74,global,reloc=2,class=CODE,delta=1
    93                           	psect	text75,global,reloc=2,class=CODE,delta=1
    94                           	psect	text76,global,reloc=2,class=CODE,delta=1
    95                           	psect	intsave_regs,global,class=BIGRAM,space=1,delta=1,noexec
    96                           	psect	text77,global,reloc=2,class=CODE,delta=1
    97                           	psect	rparam,global,class=COMRAM,space=1,delta=1,noexec
    98                           	psect	temp,global,ovrld,common,class=COMRAM,space=1,delta=1
    99                           	psect	config,global,abs,ovrld,class=CONFIG,space=4,delta=1,noexec
   100   000000                     
   101                           ; Generated 23/03/2023 GMT
   102                           ; 
   103                           ; Copyright © 2023, Microchip Technology Inc. and its subsidiaries ("Microchip")
   104                           ; All rights reserved.
   105                           ; 
   106                           ; This software is developed by Microchip Technology Inc. and its subsidiaries ("Microch
      +                          ip").
   107                           ; 
   108                           ; Redistribution and use in source and binary forms, with or without modification, are
   109                           ; permitted provided that the following conditions are met:
   110                           ; 
   111                           ;     1. Redistributions of source code must retain the above copyright notice, this lis
      +                          t of
   112                           ;        conditions and the following disclaimer.
   113                           ; 
   114                           ;     2. Redistributions in binary form must reproduce the above copyright notice, this 
      +                          list
   115                           ;        of conditions and the following disclaimer in the documentation and/or other
   116                           ;        materials provided with the distribution. Publication is not required when
   117                           ;        this file is used in an embedded application.
   118                           ; 
   119                           ;     3. Microchip's name may not be used to endorse or promote products derived from th
      +                          is
   120                           ;        software without specific prior written permission.
   121                           ; 
   122                           ; THIS SOFTWARE IS PROVIDED BY MICROCHIP "AS IS" AND ANY EXPRESS OR IMPLIED WARRANTIES,
   123                           ; INCLUDING, BUT NOT LIMITED TO, THE IMPLIED WARRANTIES OF MERCHANTABILITY AND FITNESS F
      +                          OR
   124                           ; PURPOSE ARE DISCLAIMED.  IN NO EVENT SHALL MICROCHIP BE LIABLE FOR ANY DIRECT, INDIREC
      +                          T,
   125                           ; INCIDENTAL, SPECIAL, EXEMPLARY, OR CONSEQUENTIAL DAMAGES (INCLUDING BUT NOT LIMITED TO
   126                           ; PROCUREMENT OF SUBSTITUTE GOODS OR SERVICES; LOSS OF USE, DATA OR PROFITS; OR BUSINESS
   127                           ; INTERRUPTION) HOWSOEVER CAUSED AND ON ANY THEORY OF LIABILITY, WHETHER IN CONTRACT, ST
      +                          RICT
   128                           ; LIABILITY, OR TORT (INCLUDING NEGLIGENCE OR OTHERWISE) ARISING IN ANY WAY OUT OF THE U
      +                          SE OF
   129                           ; THIS SOFTWARE, EVEN IF ADVISED OF THE POSSIBILITY OF SUCH DAMAGE.
   130                           ; 
   131                           ; 
   132                           ; Code-generator required, PIC18F97J60 Definitions
   133                           ; 
   134                           ; SFR Addresses
   135   000000                     
   136                           	psect	idataBANK0
   137   005010                     __pidataBANK0:
   138                           	callstack 0
   139                           
   140                           ;initializer for _LCD_isCursorMoving
   141   005010  0001               	dw	1
   142                           
   143                           	psect	idataBANK1
   144   004FEC                     __pidataBANK1:
   145                           	callstack 0
   146                           
   147                           ;initializer for _LCD_isCursorOn
   148   004FEC  0001               	dw	1
   149                           
   150                           ;initializer for _LCD_isDisplayOn
   151   004FEE  0001               	dw	1
   152                           
   153                           ;initializer for _LCD_isIncrement
   154   004FF0  0001               	dw	1
   155                           
   156                           ;initializer for _LCD_posY
   157   004FF2  0001               	dw	1
   158                           
   159                           ;initializer for _LCD_posX
   160   004FF4  0001               	dw	1
   161                           
   162                           	psect	smallconst
   163   001000                     __psmallconst:
   164                           	callstack 0
   165   001000  00                 	db	0
   166   001001  9E26               	dw	40486
   167   001003  3E78               	dw	15992
   168   001005                     __end_of_Lg4:
   169                           	callstack 0
   170   001005  E9EE               	dw	59886
   171   001007  3E91               	dw	16017
   172   001009                     __end_of_Lg3:
   173                           	callstack 0
   174   001009  CE13               	dw	52755
   175   00100B  3ECC               	dw	16076
   176   00100D                     __end_of_Lg2:
   177                           	callstack 0
   178   00100D  AAAA               	dw	43690
   179   00100F  3F2A               	dw	16170
   180   001011                     __end_of_Lg1:
   181                           	callstack 0
   182   001011  F7D1               	dw	63441
   183   001013  3717               	dw	14103
   184   001015                     __end_of_ln2_lo:
   185                           	callstack 0
   186   001015  7180               	dw	29056
   187   001017  3F31               	dw	16177
   188   001019                     __end_of_ln2_hi:
   189                           	callstack 0
   190   000000                     _ADCON0	set	4034
   191   000000                     _ADRESL	set	4035
   192   000000                     _RCONbits	set	4048
   193   000000                     _RCREG1	set	4014
   194   000000                     _TXREG1	set	4013
   195   000000                     _SPBRG1	set	4015
   196   000000                     _TXSTA1	set	4012
   197   000000                     _PORTJbits	set	3976
   198   000000                     _TRISJ	set	3994
   199   000000                     _TRISD	set	3989
   200   000000                     _TRISC	set	3988
   201   000000                     _TRISB	set	3987
   202   000000                     _TRISA	set	3986
   203   000000                     _TRISF	set	3991
   204   000000                     _LATH	set	3984
   205   000000                     _LATC	set	3979
   206   000000                     _LATG	set	3983
   207   000000                     _LATB	set	3978
   208   000000                     _LATF	set	3982
   209   000000                     _LATA	set	3977
   210   000000                     _LATD	set	3980
   211   000000                     _LATJ	set	3985
   212   000000                     _LATE	set	3981
   213   000000                     _OSCTUNE	set	3995
   214   000000                     _OSCCON	set	4051
   215   000000                     _TRISHbits	set	3993
   216   000000                     _TRISGbits	set	3992
   217   001019                     STR_3:
   218   001019  25                 	db	37
   219   00101A  2E                 	db	46
   220   00101B  32                 	db	50	;'2'
   221   00101C  66                 	db	102	;'f'
   222   00101D  00                 	db	0
   223   00101E                     STR_4:
   224   00101E  69                 	db	105	;'i'
   225   00101F  6E                 	db	110	;'n'
   226   001020  66                 	db	102	;'f'
   227   001021  00                 	db	0
   228   001022                     STR_7:
   229   001022  6E                 	db	110	;'n'
   230   001023  61                 	db	97	;'a'
   231   001024  6E                 	db	110	;'n'
   232   001025  00                 	db	0
   233   001026                     STR_1:
   234   001026  25                 	db	37
   235   001027  64                 	db	100	;'d'
   236   001028  00                 	db	0
   237   001029  00                 	db	0	; dummy byte at the end
   238   000000                     
   239                           	psect	nvBANK1
   240   0001A1                     __pnvBANK1:
   241                           	callstack 0
   242   0001A1                     _EUSART1_ErrorHandler:
   243                           	callstack 0
   244   0001A1                     	ds	3
   245   0001A4                     _EUSART1_OverrunErrorHandler:
   246                           	callstack 0
   247   0001A4                     	ds	3
   248   0001A7                     _EUSART1_FramingErrorHandler:
   249                           	callstack 0
   250   0001A7                     	ds	3
   251   0001AA                     _EUSART1_RxDefaultInterruptHandler:
   252                           	callstack 0
   253   0001AA                     	ds	3
   254   000000                     _ADCON0bits	set	4034
   255   000000                     _ADCON1	set	4033
   256   000000                     _RCSTA1bits	set	4011
   257   000000                     _TXSTA1bits	set	4012
   258   000000                     _TRISH	set	3993
   259   000000                     _TRISG	set	3992
   260   000000                     _PORTE	set	3972
   261   000000                     _BAUDCON1	set	3966
   262   000000                     _PORTBbits	set	3969
   263   000000                     _PORTEbits	set	3972
   264   000000                     _PORTHbits	set	3975
   265   000000                     _TRISE	set	3990
   266   000000                     _PORTGbits	set	3974
   267   000000                     _INTCONbits	set	4082
   268   000000                     _PIE1bits	set	3997
   269   000000                     _ADCON1bits	set	4033
   270   000000                     _PIR1bits	set	3998
   271   000000                     _RCSTA1	set	4011
   272   000000                     _SPBRGH1	set	3967
   273   000000                     _ADCON2	set	4032
   274   000000                     _ADRESH	set	4036
   275                           
   276                           ; #config settings
   277                           
   278                           	psect	cinit
   279   00483E                     __pcinit:
   280                           	callstack 0
   281   00483E                     start_initialization:
   282                           	callstack 0
   283   00483E                     __initialization:
   284                           	callstack 0
   285                           
   286                           ; Initialize objects allocated to BANK1 (10 bytes)
   287                           ; load TBLPTR registers with __pidataBANK1
   288   00483E  0EEC               	movlw	low __pidataBANK1
   289   004840  6EF6               	movwf	tblptrl,c
   290   004842  0E4F               	movlw	high __pidataBANK1
   291   004844  6EF7               	movwf	tblptrh,c
   292   004846  0E00               	movlw	low (__pidataBANK1 shr (0+16))
   293   004848  6EF8               	movwf	tblptru,c
   294   00484A  EE01  F0AD         	lfsr	0,__pdataBANK1
   295   00484E  EE10 F00A          	lfsr	1,10
   296   004852                     copy_data0:
   297   004852  0009               	tblrd		*+
   298   004854  CFF5 FFEE          	movff	tablat,postinc0
   299   004858  50E5               	movf	postdec1,w,c
   300   00485A  50E1               	movf	fsr1l,w,c
   301   00485C  E1FA               	bnz	copy_data0
   302                           
   303                           ; Initialize objects allocated to BANK0 (2 bytes)
   304                           ; load TBLPTR registers with __pidataBANK0
   305   00485E  0E10               	movlw	low __pidataBANK0
   306   004860  6EF6               	movwf	tblptrl,c
   307   004862  0E50               	movlw	high __pidataBANK0
   308   004864  6EF7               	movwf	tblptrh,c
   309   004866  0E00               	movlw	low (__pidataBANK0 shr (0+16))
   310   004868  6EF8               	movwf	tblptru,c
   311   00486A  0009               	tblrd		*+	;fetch initializer
   312   00486C  CFF5 F0FD          	movff	tablat,__pdataBANK0
   313   004870  0009               	tblrd		*+	;fetch initializer
   314   004872  CFF5 F0FE          	movff	tablat,__pdataBANK0+1
   315                           
   316                           ; Clear objects allocated to BANK1 (140 bytes)
   317   004876  EE01  F000         	lfsr	0,__pbssBANK1
   318   00487A  0E8C               	movlw	140
   319   00487C                     clear_0:
   320   00487C  6AEE               	clrf	postinc0,c
   321   00487E  06E8               	decf	wreg,f,c
   322   004880  E1FD               	bnz	clear_0
   323                           
   324                           ; Clear objects allocated to BANK0 (21 bytes)
   325   004882  EE00  F0E8         	lfsr	0,__pbssBANK0
   326   004886  0E15               	movlw	21
   327   004888                     clear_1:
   328   004888  6AEE               	clrf	postinc0,c
   329   00488A  06E8               	decf	wreg,f,c
   330   00488C  E1FD               	bnz	clear_1
   331                           
   332                           ; Clear objects allocated to COMRAM (1 bytes)
   333   00488E  6A5E               	clrf	__pbssCOMRAM& (0+255),c
   334   004890                     end_of_initialization:
   335                           	callstack 0
   336   004890                     __end_of__initialization:
   337                           	callstack 0
   338   004890  905F               	bcf	int$flags,0,c	;clear compiler interrupt flag (level 1)
   339   004892  925F               	bcf	int$flags,1,c	;clear compiler interrupt flag (level 2)
   340   004894  0100               	movlb	0
   341   004896  EF6D  F027         	goto	_main	;jump to C main() function
   342                           
   343                           	psect	bssCOMRAM
   344   00005E                     __pbssCOMRAM:
   345                           	callstack 0
   346   00005E                     _eusart1RxTail:
   347                           	callstack 0
   348   00005E                     	ds	1
   349                           
   350                           	psect	bssBANK0
   351   0000E8                     __pbssBANK0:
   352                           	callstack 0
   353   0000E8                     floorf@F526:
   354                           	callstack 0
   355   0000E8                     	ds	4
   356   0000EC                     ___fpclassifyf@F465:
   357                           	callstack 0
   358   0000EC                     	ds	4
   359   0000F0                     logf@F472:
   360                           	callstack 0
   361   0000F0                     	ds	4
   362   0000F4                     _width:
   363                           	callstack 0
   364   0000F4                     	ds	2
   365   0000F6                     _prec:
   366                           	callstack 0
   367   0000F6                     	ds	2
   368   0000F8                     _errno:
   369                           	callstack 0
   370   0000F8                     	ds	2
   371   0000FA                     _flags:
   372                           	callstack 0
   373   0000FA                     	ds	1
   374   0000FB                     _len:
   375                           	callstack 0
   376   0000FB                     	ds	1
   377   0000FC                     _connected:
   378                           	callstack 0
   379   0000FC                     	ds	1
   380                           
   381                           	psect	dataBANK0
   382   0000FD                     __pdataBANK0:
   383                           	callstack 0
   384   0000FD                     _LCD_isCursorMoving:
   385                           	callstack 0
   386   0000FD                     	ds	2
   387                           
   388                           	psect	bssBANK1
   389   000100                     __pbssBANK1:
   390                           	callstack 0
   391   000100                     _eusart1RxStatusBuffer:
   392                           	callstack 0
   393   000100                     	ds	8
   394   000108                     _eusart1RxBuffer:
   395                           	callstack 0
   396   000108                     	ds	8
   397   000110                     _ADC_InterruptHandler:
   398                           	callstack 0
   399   000110                     	ds	3
   400   000113                     _LCD_isCursorBlinking:
   401                           	callstack 0
   402   000113                     	ds	2
   403   000115                     _LCD_isShift:
   404                           	callstack 0
   405   000115                     	ds	2
   406   000117                     _eusart1RxLastError:
   407                           	callstack 0
   408   000117                     	ds	1
   409   000118                     _eusart1RxCount:
   410                           	callstack 0
   411   000118                     	ds	1
   412   000119                     _eusart1RxHead:
   413                           	callstack 0
   414   000119                     	ds	1
   415   00011A                     _dbuf:
   416                           	callstack 0
   417   00011A                     	ds	80
   418   00016A                     _command:
   419                           	callstack 0
   420   00016A                     	ds	34
   421                           
   422                           	psect	dataBANK1
   423   0001AD                     __pdataBANK1:
   424                           	callstack 0
   425   0001AD                     _LCD_isCursorOn:
   426                           	callstack 0
   427   0001AD                     	ds	2
   428   0001AF                     _LCD_isDisplayOn:
   429                           	callstack 0
   430   0001AF                     	ds	2
   431   0001B1                     _LCD_isIncrement:
   432                           	callstack 0
   433   0001B1                     	ds	2
   434   0001B3                     _LCD_posY:
   435                           	callstack 0
   436   0001B3                     	ds	2
   437   0001B5                     _LCD_posX:
   438                           	callstack 0
   439   0001B5                     	ds	2
   440                           
   441                           	psect	cstackBANK1
   442   00018C                     __pcstackBANK1:
   443                           	callstack 0
   444   00018C                     ___delay@time:
   445                           	callstack 0
   446   00018C                     __delay_us@us:
   447                           	callstack 0
   448   00018C                     __delay_ms@ms:
   449                           	callstack 0
   450   00018C                     LCD_8bitCodeNoWait@code:
   451                           	callstack 0
   452   00018C                     LCD_4bitCodeNoWait@code:
   453                           	callstack 0
   454   00018C                     EUSART1_SetFramingErrorHandler@interruptHandler:
   455                           	callstack 0
   456   00018C                     EUSART1_SetOverrunErrorHandler@interruptHandler:
   457                           	callstack 0
   458   00018C                     EUSART1_SetErrorHandler@interruptHandler:
   459                           	callstack 0
   460   00018C                     EUSART1_SetRxInterruptHandler@interruptHandler:
   461                           	callstack 0
   462                           
   463                           ; 3 bytes @ 0x0
   464   00018C                     	ds	2
   465   00018E                     ??___delay:
   466   00018E                     ??__delay_us:
   467   00018E                     ??__delay_ms:
   468   00018E                     ??_LCD_8bitCodeNoWait:
   469   00018E                     ??_LCD_4bitCodeNoWait:
   470                           
   471                           ; 1 bytes @ 0x2
   472   00018E                     	ds	1
   473   00018F                     ___delay@i:
   474                           	callstack 0
   475   00018F                     __delay_us@i:
   476                           	callstack 0
   477   00018F                     __delay_ms@i:
   478                           	callstack 0
   479                           
   480                           ; 2 bytes @ 0x3
   481   00018F                     	ds	2
   482   000191                     LCD_8bitCode@code:
   483                           	callstack 0
   484   000191                     LCD_4bitCode@code:
   485                           	callstack 0
   486                           
   487                           ; 2 bytes @ 0x5
   488   000191                     	ds	2
   489   000193                     LCD_Code@code:
   490                           	callstack 0
   491                           
   492                           ; 2 bytes @ 0x7
   493   000193                     	ds	2
   494   000195                     LCD_SetCursorAt@x:
   495                           	callstack 0
   496                           
   497                           ; 2 bytes @ 0x9
   498   000195                     	ds	2
   499   000197                     LCD_SetCursorAt@y:
   500                           	callstack 0
   501                           
   502                           ; 2 bytes @ 0xB
   503   000197                     	ds	2
   504   000199                     ??_LCD_SetCursorAt:
   505                           
   506                           ; 1 bytes @ 0xD
   507   000199                     	ds	2
   508   00019B                     ??_LCD_Init:
   509                           
   510                           ; 1 bytes @ 0xF
   511   00019B                     	ds	6
   512   0001A1                     
   513                           ; 1 bytes @ 0x15
   514                           
   515                           	psect	cstackBANK0
   516   000060                     __pcstackBANK0:
   517                           	callstack 0
   518   000060                     efgtoa@ne:
   519                           	callstack 0
   520   000060                     logf@R:
   521                           	callstack 0
   522                           
   523                           ; 4 bytes @ 0x0
   524   000060                     	ds	2
   525   000062                     efgtoa@p:
   526                           	callstack 0
   527                           
   528                           ; 2 bytes @ 0x2
   529   000062                     	ds	2
   530   000064                     efgtoa@t:
   531                           	callstack 0
   532   000064                     logf@t1:
   533                           	callstack 0
   534                           
   535                           ; 4 bytes @ 0x4
   536   000064                     	ds	2
   537   000066                     _efgtoa$2130:
   538                           	callstack 0
   539                           
   540                           ; 2 bytes @ 0x6
   541   000066                     	ds	2
   542   000068                     efgtoa@pp:
   543                           	callstack 0
   544   000068                     logf@t2:
   545                           	callstack 0
   546                           
   547                           ; 4 bytes @ 0x8
   548   000068                     	ds	1
   549   000069                     efgtoa@mode:
   550                           	callstack 0
   551                           
   552                           ; 1 bytes @ 0x9
   553   000069                     	ds	1
   554   00006A                     efgtoa@nmode:
   555                           	callstack 0
   556                           
   557                           ; 1 bytes @ 0xA
   558   00006A                     	ds	1
   559   00006B                     efgtoa@d:
   560                           	callstack 0
   561                           
   562                           ; 2 bytes @ 0xB
   563   00006B                     	ds	1
   564   00006C                     _logf$2535:
   565                           	callstack 0
   566                           
   567                           ; 4 bytes @ 0xC
   568   00006C                     	ds	1
   569   00006D                     efgtoa@m:
   570                           	callstack 0
   571                           
   572                           ; 2 bytes @ 0xD
   573   00006D                     	ds	2
   574   00006F                     efgtoa@e:
   575                           	callstack 0
   576                           
   577                           ; 2 bytes @ 0xF
   578   00006F                     	ds	1
   579   000070                     _logf$2536:
   580                           	callstack 0
   581                           
   582                           ; 4 bytes @ 0x10
   583   000070                     	ds	1
   584   000071                     efgtoa@w:
   585                           	callstack 0
   586                           
   587                           ; 2 bytes @ 0x11
   588   000071                     	ds	2
   589   000073                     efgtoa@ou:
   590                           	callstack 0
   591                           
   592                           ; 4 bytes @ 0x13
   593   000073                     	ds	1
   594   000074                     _logf$2537:
   595                           	callstack 0
   596                           
   597                           ; 4 bytes @ 0x14
   598   000074                     	ds	3
   599   000077                     efgtoa@i:
   600                           	callstack 0
   601                           
   602                           ; 2 bytes @ 0x17
   603   000077                     	ds	1
   604   000078                     _logf$2538:
   605                           	callstack 0
   606                           
   607                           ; 4 bytes @ 0x18
   608   000078                     	ds	1
   609   000079                     efgtoa@h:
   610                           	callstack 0
   611                           
   612                           ; 4 bytes @ 0x19
   613   000079                     	ds	3
   614   00007C                     logf@k:
   615                           	callstack 0
   616                           
   617                           ; 2 bytes @ 0x1C
   618   00007C                     	ds	1
   619   00007D                     efgtoa@l:
   620                           	callstack 0
   621                           
   622                           ; 4 bytes @ 0x1D
   623   00007D                     	ds	1
   624   00007E                     logf@hfsq:
   625                           	callstack 0
   626                           
   627                           ; 4 bytes @ 0x1E
   628   00007E                     	ds	3
   629   000081                     efgtoa@sign:
   630                           	callstack 0
   631                           
   632                           ; 1 bytes @ 0x21
   633   000081                     	ds	1
   634   000082                     efgtoa@n:
   635                           	callstack 0
   636   000082                     logf@dk:
   637                           	callstack 0
   638                           
   639                           ; 4 bytes @ 0x22
   640   000082                     	ds	2
   641   000084                     efgtoa@g:
   642                           	callstack 0
   643                           
   644                           ; 4 bytes @ 0x24
   645   000084                     	ds	2
   646   000086                     logf@s:
   647                           	callstack 0
   648                           
   649                           ; 4 bytes @ 0x26
   650   000086                     	ds	2
   651   000088                     efgtoa@u:
   652                           	callstack 0
   653                           
   654                           ; 4 bytes @ 0x28
   655   000088                     	ds	2
   656   00008A                     logf@z:
   657                           	callstack 0
   658                           
   659                           ; 4 bytes @ 0x2A
   660   00008A                     	ds	2
   661   00008C                     vfpfcnvrt@convarg:
   662                           	callstack 0
   663                           
   664                           ; 4 bytes @ 0x2C
   665   00008C                     	ds	2
   666   00008E                     logf@w:
   667                           	callstack 0
   668                           
   669                           ; 4 bytes @ 0x2E
   670   00008E                     	ds	2
   671   000090                     vfpfcnvrt@c:
   672                           	callstack 0
   673                           
   674                           ; 1 bytes @ 0x30
   675   000090                     	ds	1
   676   000091                     vfpfcnvrt@cp:
   677                           	callstack 0
   678                           
   679                           ; 2 bytes @ 0x31
   680   000091                     	ds	1
   681   000092                     _logf$2534:
   682                           	callstack 0
   683                           
   684                           ; 4 bytes @ 0x32
   685   000092                     	ds	1
   686   000093                     ?_vfprintf:
   687                           	callstack 0
   688   000093                     vfprintf@fp:
   689                           	callstack 0
   690                           
   691                           ; 2 bytes @ 0x33
   692   000093                     	ds	2
   693   000095                     vfprintf@fmt:
   694                           	callstack 0
   695                           
   696                           ; 2 bytes @ 0x35
   697   000095                     	ds	1
   698   000096                     logf@u:
   699                           	callstack 0
   700                           
   701                           ; 4 bytes @ 0x36
   702   000096                     	ds	1
   703   000097                     vfprintf@ap:
   704                           	callstack 0
   705                           
   706                           ; 2 bytes @ 0x37
   707   000097                     	ds	3
   708   00009A                     logf@f:
   709                           	callstack 0
   710                           
   711                           ; 4 bytes @ 0x3A
   712   00009A                     	ds	4
   713   00009E                     logf@ix:
   714                           	callstack 0
   715                           
   716                           ; 4 bytes @ 0x3E
   717   00009E                     	ds	4
   718   0000A2                     ?_sprintf:
   719                           	callstack 0
   720   0000A2                     sprintf@s:
   721                           	callstack 0
   722                           
   723                           ; 2 bytes @ 0x42
   724   0000A2                     	ds	2
   725   0000A4                     sprintf@fmt:
   726                           	callstack 0
   727                           
   728                           ; 2 bytes @ 0x44
   729   0000A4                     	ds	6
   730   0000AA                     sprintf@ap:
   731                           	callstack 0
   732                           
   733                           ; 2 bytes @ 0x4A
   734   0000AA                     	ds	2
   735   0000AC                     sprintf@f:
   736                           	callstack 0
   737                           
   738                           ; 12 bytes @ 0x4C
   739   0000AC                     	ds	12
   740   0000B8                     ??_HandleInterrupt:
   741                           
   742                           ; 1 bytes @ 0x58
   743   0000B8                     	ds	3
   744   0000BB                     HandleInterrupt@temperature:
   745                           	callstack 0
   746                           
   747                           ; 6 bytes @ 0x5B
   748   0000BB                     	ds	6
   749   0000C1                     HandleInterrupt@potValue:
   750                           	callstack 0
   751                           
   752                           ; 5 bytes @ 0x61
   753   0000C1                     	ds	5
   754   0000C6                     _HandleInterrupt$2530:
   755                           	callstack 0
   756                           
   757                           ; 4 bytes @ 0x66
   758   0000C6                     	ds	4
   759   0000CA                     _HandleInterrupt$2531:
   760                           	callstack 0
   761                           
   762                           ; 4 bytes @ 0x6A
   763   0000CA                     	ds	4
   764   0000CE                     _HandleInterrupt$2532:
   765                           	callstack 0
   766                           
   767                           ; 4 bytes @ 0x6E
   768   0000CE                     	ds	4
   769   0000D2                     _HandleInterrupt$2533:
   770                           	callstack 0
   771                           
   772                           ; 4 bytes @ 0x72
   773   0000D2                     	ds	4
   774   0000D6                     HandleInterrupt@i:
   775                           	callstack 0
   776                           
   777                           ; 2 bytes @ 0x76
   778   0000D6                     	ds	2
   779   0000D8                     HandleInterrupt@i_1054:
   780                           	callstack 0
   781                           
   782                           ; 2 bytes @ 0x78
   783   0000D8                     	ds	2
   784   0000DA                     HandleInterrupt@received:
   785                           	callstack 0
   786                           
   787                           ; 1 bytes @ 0x7A
   788   0000DA                     	ds	1
   789   0000DB                     HandleInterrupt@len:
   790                           	callstack 0
   791                           
   792                           ; 1 bytes @ 0x7B
   793   0000DB                     	ds	1
   794   0000DC                     ??_INTERRUPT_InterruptManager:
   795                           
   796                           ; 1 bytes @ 0x7C
   797   0000DC                     	ds	12
   798                           
   799                           	psect	cstackCOMRAM
   800   000001                     __pcstackCOMRAM:
   801                           	callstack 0
   802   000001                     ?_strlen:
   803                           	callstack 0
   804   000001                     ?_ADC_GetConversion:
   805                           	callstack 0
   806   000001                     ?___fpclassifyf:
   807                           	callstack 0
   808   000001                     ?___wmul:
   809                           	callstack 0
   810   000001                     ?___awdiv:
   811                           	callstack 0
   812   000001                     ?___awmod:
   813                           	callstack 0
   814   000001                     ?___flmul:
   815                           	callstack 0
   816   000001                     ?_labs:
   817                           	callstack 0
   818   000001                     ?___flneg:
   819                           	callstack 0
   820   000001                     ?___fltol:
   821                           	callstack 0
   822   000001                     EUSART1_Read@readValue:
   823                           	callstack 0
   824   000001                     EUSART1_Write@txData:
   825                           	callstack 0
   826   000001                     ___wmul@multiplier:
   827                           	callstack 0
   828   000001                     ___awdiv@dividend:
   829                           	callstack 0
   830   000001                     ___awmod@dividend:
   831                           	callstack 0
   832   000001                     memcpy@d1:
   833                           	callstack 0
   834   000001                     fputc@c:
   835                           	callstack 0
   836   000001                     strcpy@dest:
   837                           	callstack 0
   838   000001                     strlen@s:
   839                           	callstack 0
   840   000001                     i2___delay@time:
   841                           	callstack 0
   842   000001                     i2__delay_us@us:
   843                           	callstack 0
   844   000001                     i2__delay_ms@ms:
   845                           	callstack 0
   846   000001                     i2LCD_8bitCodeNoWait@code:
   847                           	callstack 0
   848   000001                     i2LCD_4bitCodeNoWait@code:
   849                           	callstack 0
   850   000001                     ___fleq@ff1:
   851                           	callstack 0
   852   000001                     ___flneg@f1:
   853                           	callstack 0
   854   000001                     ___fltol@f1:
   855                           	callstack 0
   856   000001                     ___flmul@b:
   857                           	callstack 0
   858   000001                     ___fpclassifyf@x:
   859                           	callstack 0
   860   000001                     labs@a:
   861                           	callstack 0
   862                           
   863                           ; 4 bytes @ 0x0
   864   000001                     	ds	2
   865   000003                     ??_ADC_GetConversion:
   866   000003                     ??i2___delay:
   867   000003                     ??i2__delay_us:
   868   000003                     ??i2__delay_ms:
   869   000003                     ??i2_LCD_8bitCodeNoWait:
   870   000003                     ??i2_LCD_4bitCodeNoWait:
   871   000003                     ___wmul@multiplicand:
   872                           	callstack 0
   873   000003                     ___awdiv@divisor:
   874                           	callstack 0
   875   000003                     ___awmod@divisor:
   876                           	callstack 0
   877   000003                     memcpy@s1:
   878                           	callstack 0
   879   000003                     fputc@fp:
   880                           	callstack 0
   881   000003                     strcpy@src:
   882                           	callstack 0
   883   000003                     strlen@a:
   884                           	callstack 0
   885                           
   886                           ; 2 bytes @ 0x2
   887   000003                     	ds	1
   888   000004                     i2___delay@i:
   889                           	callstack 0
   890   000004                     i2__delay_us@i:
   891                           	callstack 0
   892   000004                     i2__delay_ms@i:
   893                           	callstack 0
   894                           
   895                           ; 2 bytes @ 0x3
   896   000004                     	ds	1
   897   000005                     ??_fputc:
   898   000005                     ??___fpclassifyf:
   899   000005                     ??_labs:
   900   000005                     ??___fltol:
   901   000005                     ADC_GetConversion@channel:
   902                           	callstack 0
   903   000005                     ___awdiv@counter:
   904                           	callstack 0
   905   000005                     ___awmod@counter:
   906                           	callstack 0
   907   000005                     ___wmul@product:
   908                           	callstack 0
   909   000005                     memcpy@n:
   910                           	callstack 0
   911   000005                     strcpy@s:
   912                           	callstack 0
   913   000005                     ___fleq@ff2:
   914                           	callstack 0
   915   000005                     ___flmul@a:
   916                           	callstack 0
   917                           
   918                           ; 4 bytes @ 0x4
   919   000005                     	ds	1
   920   000006                     ?___xxtofl:
   921                           	callstack 0
   922   000006                     ___awdiv@sign:
   923                           	callstack 0
   924   000006                     ___awmod@sign:
   925                           	callstack 0
   926   000006                     i2LCD_8bitCode@code:
   927                           	callstack 0
   928   000006                     i2LCD_4bitCode@code:
   929                           	callstack 0
   930   000006                     ___xxtofl@val:
   931                           	callstack 0
   932                           
   933                           ; 4 bytes @ 0x5
   934   000006                     	ds	1
   935   000007                     ?_abs:
   936                           	callstack 0
   937   000007                     ?_read_prec_or_width:
   938                           	callstack 0
   939   000007                     ___awdiv@quotient:
   940                           	callstack 0
   941   000007                     read_prec_or_width@fmt:
   942                           	callstack 0
   943   000007                     abs@a:
   944                           	callstack 0
   945   000007                     memcpy@d:
   946                           	callstack 0
   947   000007                     strcpy@d:
   948                           	callstack 0
   949                           
   950                           ; 2 bytes @ 0x6
   951   000007                     	ds	1
   952   000008                     i2LCD_Code@code:
   953                           	callstack 0
   954                           
   955                           ; 2 bytes @ 0x7
   956   000008                     	ds	1
   957   000009                     ??___flmul:
   958   000009                     ??_abs:
   959   000009                     ??___fleq:
   960   000009                     ___fltol@sign1:
   961                           	callstack 0
   962   000009                     read_prec_or_width@ap:
   963                           	callstack 0
   964   000009                     ___fpclassifyf@e:
   965                           	callstack 0
   966   000009                     memcpy@s:
   967                           	callstack 0
   968                           
   969                           ; 2 bytes @ 0x8
   970   000009                     	ds	1
   971   00000A                     ??___xxtofl:
   972   00000A                     ___fltol@exp1:
   973                           	callstack 0
   974   00000A                     fputs@s:
   975                           	callstack 0
   976   00000A                     i2LCD_SetCursorAt@x:
   977                           	callstack 0
   978                           
   979                           ; 2 bytes @ 0x9
   980   00000A                     	ds	1
   981   00000B                     ??_read_prec_or_width:
   982   00000B                     memcpy@tmp:
   983                           	callstack 0
   984   00000B                     ___fpclassifyf@u:
   985                           	callstack 0
   986                           
   987                           ; 4 bytes @ 0xA
   988   00000B                     	ds	1
   989   00000C                     fputs@fp:
   990                           	callstack 0
   991   00000C                     i2LCD_SetCursorAt@y:
   992                           	callstack 0
   993                           
   994                           ; 2 bytes @ 0xB
   995   00000C                     	ds	1
   996   00000D                     ___flmul@sign:
   997                           	callstack 0
   998   00000D                     read_prec_or_width@c:
   999                           	callstack 0
  1000                           
  1001                           ; 1 bytes @ 0xC
  1002   00000D                     	ds	1
  1003   00000E                     ??i2_LCD_SetCursorAt:
  1004   00000E                     ___xxtofl@sign:
  1005                           	callstack 0
  1006   00000E                     fputs@c:
  1007                           	callstack 0
  1008   00000E                     read_prec_or_width@n:
  1009                           	callstack 0
  1010   00000E                     ___flmul@grs:
  1011                           	callstack 0
  1012                           
  1013                           ; 4 bytes @ 0xD
  1014   00000E                     	ds	1
  1015   00000F                     ___xxtofl@exp:
  1016                           	callstack 0
  1017   00000F                     fputs@i:
  1018                           	callstack 0
  1019                           
  1020                           ; 2 bytes @ 0xE
  1021   00000F                     	ds	1
  1022   000010                     LCD_MoveCursorLeft@amound:
  1023                           	callstack 0
  1024   000010                     LCD_MoveCursorRight@amount:
  1025                           	callstack 0
  1026   000010                     ___xxtofl@arg:
  1027                           	callstack 0
  1028                           
  1029                           ; 4 bytes @ 0xF
  1030   000010                     	ds	1
  1031   000011                     pad@fp:
  1032                           	callstack 0
  1033                           
  1034                           ; 2 bytes @ 0x10
  1035   000011                     	ds	1
  1036   000012                     ??_LCD_MoveCursorLeft:
  1037   000012                     ??_LCD_MoveCursorRight:
  1038   000012                     ___flmul@aexp:
  1039                           	callstack 0
  1040                           
  1041                           ; 1 bytes @ 0x11
  1042   000012                     	ds	1
  1043   000013                     ___flmul@bexp:
  1044                           	callstack 0
  1045   000013                     pad@buf:
  1046                           	callstack 0
  1047                           
  1048                           ; 2 bytes @ 0x12
  1049   000013                     	ds	1
  1050   000014                     LCD_PrintChar@inputChar:
  1051                           	callstack 0
  1052   000014                     ___flmul@prod:
  1053                           	callstack 0
  1054                           
  1055                           ; 4 bytes @ 0x13
  1056   000014                     	ds	1
  1057   000015                     LCD_PrintStr@str:
  1058                           	callstack 0
  1059   000015                     pad@p:
  1060                           	callstack 0
  1061                           
  1062                           ; 2 bytes @ 0x14
  1063   000015                     	ds	2
  1064   000017                     ??_pad:
  1065   000017                     LCD_PrintStr@delay:
  1066                           	callstack 0
  1067                           
  1068                           ; 2 bytes @ 0x16
  1069   000017                     	ds	1
  1070   000018                     ___flmul@temp:
  1071                           	callstack 0
  1072   000018                     pad@i:
  1073                           	callstack 0
  1074                           
  1075                           ; 2 bytes @ 0x17
  1076   000018                     	ds	1
  1077   000019                     LCD_PrintStr@initialX:
  1078                           	callstack 0
  1079                           
  1080                           ; 2 bytes @ 0x18
  1081   000019                     	ds	1
  1082   00001A                     ?___fldiv:
  1083                           	callstack 0
  1084   00001A                     pad@w:
  1085                           	callstack 0
  1086   00001A                     ___flge@ff1:
  1087                           	callstack 0
  1088   00001A                     ___fldiv@b:
  1089                           	callstack 0
  1090                           
  1091                           ; 4 bytes @ 0x19
  1092   00001A                     	ds	1
  1093   00001B                     LCD_PrintStr@initialY:
  1094                           	callstack 0
  1095                           
  1096                           ; 2 bytes @ 0x1A
  1097   00001B                     	ds	1
  1098   00001C                     dtoa@fp:
  1099                           	callstack 0
  1100                           
  1101                           ; 2 bytes @ 0x1B
  1102   00001C                     	ds	1
  1103   00001D                     LCD_PrintStr@i:
  1104                           	callstack 0
  1105                           
  1106                           ; 2 bytes @ 0x1C
  1107   00001D                     	ds	1
  1108   00001E                     dtoa@d:
  1109                           	callstack 0
  1110   00001E                     ___flge@ff2:
  1111                           	callstack 0
  1112   00001E                     ___fldiv@a:
  1113                           	callstack 0
  1114                           
  1115                           ; 4 bytes @ 0x1D
  1116   00001E                     	ds	2
  1117   000020                     _dtoa$2099:
  1118                           	callstack 0
  1119                           
  1120                           ; 2 bytes @ 0x1F
  1121   000020                     	ds	2
  1122   000022                     ??___fldiv:
  1123   000022                     ??___flge:
  1124   000022                     dtoa@p:
  1125                           	callstack 0
  1126                           
  1127                           ; 2 bytes @ 0x21
  1128   000022                     	ds	2
  1129   000024                     dtoa@w:
  1130                           	callstack 0
  1131                           
  1132                           ; 2 bytes @ 0x23
  1133   000024                     	ds	2
  1134   000026                     dtoa@i:
  1135                           	callstack 0
  1136   000026                     ___fldiv@rem:
  1137                           	callstack 0
  1138                           
  1139                           ; 4 bytes @ 0x25
  1140   000026                     	ds	2
  1141   000028                     dtoa@s:
  1142                           	callstack 0
  1143                           
  1144                           ; 1 bytes @ 0x27
  1145   000028                     	ds	2
  1146   00002A                     ___fldiv@sign:
  1147                           	callstack 0
  1148                           
  1149                           ; 1 bytes @ 0x29
  1150   00002A                     	ds	1
  1151   00002B                     ___fldiv@new_exp:
  1152                           	callstack 0
  1153                           
  1154                           ; 2 bytes @ 0x2A
  1155   00002B                     	ds	2
  1156   00002D                     ___fldiv@grs:
  1157                           	callstack 0
  1158                           
  1159                           ; 4 bytes @ 0x2C
  1160   00002D                     	ds	4
  1161   000031                     ___fldiv@bexp:
  1162                           	callstack 0
  1163                           
  1164                           ; 1 bytes @ 0x30
  1165   000031                     	ds	1
  1166   000032                     ___fldiv@aexp:
  1167                           	callstack 0
  1168                           
  1169                           ; 1 bytes @ 0x31
  1170   000032                     	ds	1
  1171   000033                     ?___fladd:
  1172                           	callstack 0
  1173   000033                     ?_floorf:
  1174                           	callstack 0
  1175   000033                     ___fladd@b:
  1176                           	callstack 0
  1177   000033                     floorf@x:
  1178                           	callstack 0
  1179                           
  1180                           ; 4 bytes @ 0x32
  1181   000033                     	ds	4
  1182   000037                     ??_floorf:
  1183   000037                     ___fladd@a:
  1184                           	callstack 0
  1185                           
  1186                           ; 4 bytes @ 0x36
  1187   000037                     	ds	4
  1188   00003B                     ??___fladd:
  1189                           
  1190                           ; 1 bytes @ 0x3A
  1191   00003B                     	ds	2
  1192   00003D                     floorf@m:
  1193                           	callstack 0
  1194                           
  1195                           ; 4 bytes @ 0x3C
  1196   00003D                     	ds	2
  1197   00003F                     ___fladd@signs:
  1198                           	callstack 0
  1199                           
  1200                           ; 1 bytes @ 0x3E
  1201   00003F                     	ds	1
  1202   000040                     ___fladd@aexp:
  1203                           	callstack 0
  1204                           
  1205                           ; 1 bytes @ 0x3F
  1206   000040                     	ds	1
  1207   000041                     ___fladd@bexp:
  1208                           	callstack 0
  1209   000041                     floorf@e:
  1210                           	callstack 0
  1211                           
  1212                           ; 2 bytes @ 0x40
  1213   000041                     	ds	1
  1214   000042                     ___fladd@grs:
  1215                           	callstack 0
  1216                           
  1217                           ; 1 bytes @ 0x41
  1218   000042                     	ds	1
  1219   000043                     ?___flsub:
  1220                           	callstack 0
  1221   000043                     ___flsub@b:
  1222                           	callstack 0
  1223   000043                     floorf@u:
  1224                           	callstack 0
  1225                           
  1226                           ; 4 bytes @ 0x42
  1227   000043                     	ds	4
  1228   000047                     ___flsub@a:
  1229                           	callstack 0
  1230                           
  1231                           ; 4 bytes @ 0x46
  1232   000047                     	ds	4
  1233   00004B                     ?_logf:
  1234                           	callstack 0
  1235   00004B                     efgtoa@fp:
  1236                           	callstack 0
  1237   00004B                     logf@x:
  1238                           	callstack 0
  1239                           
  1240                           ; 4 bytes @ 0x4A
  1241   00004B                     	ds	2
  1242   00004D                     efgtoa@f:
  1243                           	callstack 0
  1244                           
  1245                           ; 4 bytes @ 0x4C
  1246   00004D                     	ds	2
  1247   00004F                     ??_logf:
  1248                           
  1249                           ; 1 bytes @ 0x4E
  1250   00004F                     	ds	2
  1251   000051                     efgtoa@c:
  1252                           	callstack 0
  1253                           
  1254                           ; 1 bytes @ 0x50
  1255   000051                     	ds	1
  1256   000052                     ??_efgtoa:
  1257                           
  1258                           ; 1 bytes @ 0x51
  1259   000052                     	ds	2
  1260   000054                     vfpfcnvrt@fp:
  1261                           	callstack 0
  1262                           
  1263                           ; 2 bytes @ 0x53
  1264   000054                     	ds	2
  1265   000056                     vfpfcnvrt@fmt:
  1266                           	callstack 0
  1267                           
  1268                           ; 2 bytes @ 0x55
  1269   000056                     	ds	2
  1270   000058                     vfpfcnvrt@ap:
  1271                           	callstack 0
  1272                           
  1273                           ; 2 bytes @ 0x57
  1274   000058                     	ds	2
  1275   00005A                     ??_vfpfcnvrt:
  1276                           
  1277                           ; 1 bytes @ 0x59
  1278   00005A                     	ds	2
  1279   00005C                     vfprintf@cfmt:
  1280                           	callstack 0
  1281                           
  1282                           ; 2 bytes @ 0x5B
  1283   00005C                     	ds	2
  1284   00005E                     
  1285                           ; 1 bytes @ 0x5D
  1286 ;;
  1287 ;;Main: autosize = 0, tempsize = 0, incstack = 0, save=0
  1288 ;;
  1289 ;; *************** function _main *****************
  1290 ;; Defined at:
  1291 ;;		line 52 in file "main.c"
  1292 ;; Parameters:    Size  Location     Type
  1293 ;;		None
  1294 ;; Auto vars:     Size  Location     Type
  1295 ;;		None
  1296 ;; Return value:  Size  Location     Type
  1297 ;;                  1    wreg      void 
  1298 ;; Registers used:
  1299 ;;		wreg, status,2, status,0, cstack
  1300 ;; Tracked objects:
  1301 ;;		On entry : 0/0
  1302 ;;		On exit  : 0/0
  1303 ;;		Unchanged: 0/0
  1304 ;; Data sizes:     COMRAM   BANK0   BANK1   BANK2   BANK3   BANK4   BANK5   BANK6   BANK7   BANK8   BANK9  BANK10  BANK1
      +1  BANK12  BANK13  BANK14  BANK15
  1305 ;;      Params:         0       0       0       0       0       0       0       0       0       0       0       0       
      +0       0       0       0       0
  1306 ;;      Locals:         0       0       0       0       0       0       0       0       0       0       0       0       
      +0       0       0       0       0
  1307 ;;      Temps:          0       0       0       0       0       0       0       0       0       0       0       0       
      +0       0       0       0       0
  1308 ;;      Totals:         0       0       0       0       0       0       0       0       0       0       0       0       
      +0       0       0       0       0
  1309 ;;Total ram usage:        0 bytes
  1310 ;; Hardware stack levels required when called: 16
  1311 ;; This function calls:
  1312 ;;		_LCD_Init
  1313 ;;		_SYSTEM_Initialize
  1314 ;; This function is called by:
  1315 ;;		Startup code after reset
  1316 ;; This function uses a non-reentrant model
  1317 ;;
  1318                           
  1319                           	psect	text0
  1320   004EDA                     __ptext0:
  1321                           	callstack 0
  1322   004EDA                     _main:
  1323                           	callstack 15
  1324   004EDA                     
  1325                           ;main.c: 54:     SYSTEM_Initialize();
  1326   004EDA  EC78  F027         	call	_SYSTEM_Initialize	;wreg free
  1327                           
  1328                           ;main.c: 55:     LCD_Init();
  1329   004EDE  EC1E  F01D         	call	_LCD_Init	;wreg free
  1330   004EE2                     
  1331                           ;main.c: 56:     (INTCONbits.GIE = 1);
  1332   004EE2  8EF2               	bsf	242,7,c	;volatile
  1333   004EE4                     
  1334                           ;main.c: 57:     (INTCONbits.PEIE = 1);
  1335   004EE4  8CF2               	bsf	242,6,c	;volatile
  1336   004EE6                     
  1337                           ;main.c: 58:     PORTGbits.RG5 = 1;
  1338   004EE6  8A86               	bsf	134,5,c	;volatile
  1339   004EE8                     l548:
  1340   004EE8  EF74  F027         	goto	l548
  1341   004EEC  EF5A  F000         	goto	start
  1342   004EF0                     __end_of_main:
  1343                           	callstack 0
  1344                           
  1345 ;; *************** function _SYSTEM_Initialize *****************
  1346 ;; Defined at:
  1347 ;;		line 50 in file "mcc_generated_files/mcc.c"
  1348 ;; Parameters:    Size  Location     Type
  1349 ;;		None
  1350 ;; Auto vars:     Size  Location     Type
  1351 ;;		None
  1352 ;; Return value:  Size  Location     Type
  1353 ;;                  1    wreg      void 
  1354 ;; Registers used:
  1355 ;;		wreg, status,2, status,0, cstack
  1356 ;; Tracked objects:
  1357 ;;		On entry : 0/0
  1358 ;;		On exit  : 0/0
  1359 ;;		Unchanged: 0/0
  1360 ;; Data sizes:     COMRAM   BANK0   BANK1   BANK2   BANK3   BANK4   BANK5   BANK6   BANK7   BANK8   BANK9  BANK10  BANK1
      +1  BANK12  BANK13  BANK14  BANK15
  1361 ;;      Params:         0       0       0       0       0       0       0       0       0       0       0       0       
      +0       0       0       0       0
  1362 ;;      Locals:         0       0       0       0       0       0       0       0       0       0       0       0       
      +0       0       0       0       0
  1363 ;;      Temps:          0       0       0       0       0       0       0       0       0       0       0       0       
      +0       0       0       0       0
  1364 ;;      Totals:         0       0       0       0       0       0       0       0       0       0       0       0       
      +0       0       0       0       0
  1365 ;;Total ram usage:        0 bytes
  1366 ;; Hardware stack levels used: 1
  1367 ;; Hardware stack levels required when called: 12
  1368 ;; This function calls:
  1369 ;;		_ADC_Initialize
  1370 ;;		_EUSART1_Initialize
  1371 ;;		_INTERRUPT_Initialize
  1372 ;;		_OSCILLATOR_Initialize
  1373 ;;		_PIN_MANAGER_Initialize
  1374 ;; This function is called by:
  1375 ;;		_main
  1376 ;; This function uses a non-reentrant model
  1377 ;;
  1378                           
  1379                           	psect	text1
  1380   004EF0                     __ptext1:
  1381                           	callstack 0
  1382   004EF0                     _SYSTEM_Initialize:
  1383                           	callstack 18
  1384   004EF0                     
  1385                           ;mcc_generated_files/mcc.c: 53:     INTERRUPT_Initialize();
  1386   004EF0  EC06  F028         	call	_INTERRUPT_Initialize	;wreg free
  1387   004EF4                     
  1388                           ;mcc_generated_files/mcc.c: 54:     PIN_MANAGER_Initialize();
  1389   004EF4  EC10  F026         	call	_PIN_MANAGER_Initialize	;wreg free
  1390   004EF8                     
  1391                           ;mcc_generated_files/mcc.c: 55:     OSCILLATOR_Initialize();
  1392   004EF8  ECFB  F027         	call	_OSCILLATOR_Initialize	;wreg free
  1393   004EFC                     
  1394                           ;mcc_generated_files/mcc.c: 56:     ADC_Initialize();
  1395   004EFC  EC83  F027         	call	_ADC_Initialize	;wreg free
  1396   004F00                     
  1397                           ;mcc_generated_files/mcc.c: 57:     EUSART1_Initialize();
  1398   004F00  EC47  F023         	call	_EUSART1_Initialize	;wreg free
  1399   004F04  0012               	return		;funcret
  1400   004F06                     __end_of_SYSTEM_Initialize:
  1401                           	callstack 0
  1402                           
  1403 ;; *************** function _PIN_MANAGER_Initialize *****************
  1404 ;; Defined at:
  1405 ;;		line 50 in file "mcc_generated_files/pin_manager.c"
  1406 ;; Parameters:    Size  Location     Type
  1407 ;;		None
  1408 ;; Auto vars:     Size  Location     Type
  1409 ;;		None
  1410 ;; Return value:  Size  Location     Type
  1411 ;;                  1    wreg      void 
  1412 ;; Registers used:
  1413 ;;		wreg, status,2
  1414 ;; Tracked objects:
  1415 ;;		On entry : 0/0
  1416 ;;		On exit  : 0/0
  1417 ;;		Unchanged: 0/0
  1418 ;; Data sizes:     COMRAM   BANK0   BANK1   BANK2   BANK3   BANK4   BANK5   BANK6   BANK7   BANK8   BANK9  BANK10  BANK1
      +1  BANK12  BANK13  BANK14  BANK15
  1419 ;;      Params:         0       0       0       0       0       0       0       0       0       0       0       0       
      +0       0       0       0       0
  1420 ;;      Locals:         0       0       0       0       0       0       0       0       0       0       0       0       
      +0       0       0       0       0
  1421 ;;      Temps:          0       0       0       0       0       0       0       0       0       0       0       0       
      +0       0       0       0       0
  1422 ;;      Totals:         0       0       0       0       0       0       0       0       0       0       0       0       
      +0       0       0       0       0
  1423 ;;Total ram usage:        0 bytes
  1424 ;; Hardware stack levels used: 1
  1425 ;; Hardware stack levels required when called: 10
  1426 ;; This function calls:
  1427 ;;		Nothing
  1428 ;; This function is called by:
  1429 ;;		_SYSTEM_Initialize
  1430 ;; This function uses a non-reentrant model
  1431 ;;
  1432                           
  1433                           	psect	text2
  1434   004C20                     __ptext2:
  1435                           	callstack 0
  1436   004C20                     _PIN_MANAGER_Initialize:
  1437                           	callstack 19
  1438   004C20                     
  1439                           ;mcc_generated_files/pin_manager.c: 55:     LATE = 0x00;
  1440   004C20  0E00               	movlw	0
  1441   004C22  6E8D               	movwf	141,c	;volatile
  1442                           
  1443                           ;mcc_generated_files/pin_manager.c: 56:     LATJ = 0x00;
  1444   004C24  0E00               	movlw	0
  1445   004C26  6E91               	movwf	145,c	;volatile
  1446                           
  1447                           ;mcc_generated_files/pin_manager.c: 57:     LATD = 0x00;
  1448   004C28  0E00               	movlw	0
  1449   004C2A  6E8C               	movwf	140,c	;volatile
  1450                           
  1451                           ;mcc_generated_files/pin_manager.c: 58:     LATA = 0x00;
  1452   004C2C  0E00               	movlw	0
  1453   004C2E  6E89               	movwf	137,c	;volatile
  1454                           
  1455                           ;mcc_generated_files/pin_manager.c: 59:     LATF = 0x00;
  1456   004C30  0E00               	movlw	0
  1457   004C32  6E8E               	movwf	142,c	;volatile
  1458                           
  1459                           ;mcc_generated_files/pin_manager.c: 60:     LATB = 0x00;
  1460   004C34  0E00               	movlw	0
  1461   004C36  6E8A               	movwf	138,c	;volatile
  1462                           
  1463                           ;mcc_generated_files/pin_manager.c: 61:     LATG = 0x00;
  1464   004C38  0E00               	movlw	0
  1465   004C3A  6E8F               	movwf	143,c	;volatile
  1466                           
  1467                           ;mcc_generated_files/pin_manager.c: 62:     LATC = 0x00;
  1468   004C3C  0E00               	movlw	0
  1469   004C3E  6E8B               	movwf	139,c	;volatile
  1470                           
  1471                           ;mcc_generated_files/pin_manager.c: 63:     LATH = 0x00;
  1472   004C40  0E00               	movlw	0
  1473   004C42  6E90               	movwf	144,c	;volatile
  1474   004C44                     
  1475                           ;mcc_generated_files/pin_manager.c: 68:     TRISE = 0xFF;
  1476   004C44  6896               	setf	150,c	;volatile
  1477   004C46                     
  1478                           ;mcc_generated_files/pin_manager.c: 69:     TRISF = 0xFF;
  1479   004C46  6897               	setf	151,c	;volatile
  1480                           
  1481                           ;mcc_generated_files/pin_manager.c: 70:     TRISA = 0x3F;
  1482   004C48  0E3F               	movlw	63
  1483   004C4A  6E92               	movwf	146,c	;volatile
  1484   004C4C                     
  1485                           ;mcc_generated_files/pin_manager.c: 71:     TRISG = 0xFF;
  1486   004C4C  6898               	setf	152,c	;volatile
  1487   004C4E                     
  1488                           ;mcc_generated_files/pin_manager.c: 72:     TRISB = 0xFF;
  1489   004C4E  6893               	setf	147,c	;volatile
  1490   004C50                     
  1491                           ;mcc_generated_files/pin_manager.c: 73:     TRISH = 0xFF;
  1492   004C50  6899               	setf	153,c	;volatile
  1493                           
  1494                           ;mcc_generated_files/pin_manager.c: 74:     TRISC = 0xBF;
  1495   004C52  0EBF               	movlw	191
  1496   004C54  6E94               	movwf	148,c	;volatile
  1497   004C56                     
  1498                           ;mcc_generated_files/pin_manager.c: 75:     TRISD = 0xFF;
  1499   004C56  6895               	setf	149,c	;volatile
  1500                           
  1501                           ;mcc_generated_files/pin_manager.c: 76:     TRISJ = 0xF8;
  1502   004C58  0EF8               	movlw	248
  1503   004C5A  6E9A               	movwf	154,c	;volatile
  1504                           
  1505                           ;mcc_generated_files/pin_manager.c: 81:     ADCON1bits.PCFG = 0x00;
  1506   004C5C  0EF0               	movlw	-16
  1507   004C5E  16C1               	andwf	193,f,c	;volatile
  1508   004C60  0012               	return		;funcret
  1509   004C62                     __end_of_PIN_MANAGER_Initialize:
  1510                           	callstack 0
  1511                           
  1512 ;; *************** function _OSCILLATOR_Initialize *****************
  1513 ;; Defined at:
  1514 ;;		line 60 in file "mcc_generated_files/mcc.c"
  1515 ;; Parameters:    Size  Location     Type
  1516 ;;		None
  1517 ;; Auto vars:     Size  Location     Type
  1518 ;;		None
  1519 ;; Return value:  Size  Location     Type
  1520 ;;                  1    wreg      void 
  1521 ;; Registers used:
  1522 ;;		wreg, status,2
  1523 ;; Tracked objects:
  1524 ;;		On entry : 0/0
  1525 ;;		On exit  : 0/0
  1526 ;;		Unchanged: 0/0
  1527 ;; Data sizes:     COMRAM   BANK0   BANK1   BANK2   BANK3   BANK4   BANK5   BANK6   BANK7   BANK8   BANK9  BANK10  BANK1
      +1  BANK12  BANK13  BANK14  BANK15
  1528 ;;      Params:         0       0       0       0       0       0       0       0       0       0       0       0       
      +0       0       0       0       0
  1529 ;;      Locals:         0       0       0       0       0       0       0       0       0       0       0       0       
      +0       0       0       0       0
  1530 ;;      Temps:          0       0       0       0       0       0       0       0       0       0       0       0       
      +0       0       0       0       0
  1531 ;;      Totals:         0       0       0       0       0       0       0       0       0       0       0       0       
      +0       0       0       0       0
  1532 ;;Total ram usage:        0 bytes
  1533 ;; Hardware stack levels used: 1
  1534 ;; Hardware stack levels required when called: 10
  1535 ;; This function calls:
  1536 ;;		Nothing
  1537 ;; This function is called by:
  1538 ;;		_SYSTEM_Initialize
  1539 ;; This function uses a non-reentrant model
  1540 ;;
  1541                           
  1542                           	psect	text3
  1543   004FF6                     __ptext3:
  1544                           	callstack 0
  1545   004FF6                     _OSCILLATOR_Initialize:
  1546                           	callstack 19
  1547   004FF6                     
  1548                           ;mcc_generated_files/mcc.c: 63:     OSCCON = 0x00;
  1549   004FF6  0E00               	movlw	0
  1550   004FF8  6ED3               	movwf	211,c	;volatile
  1551                           
  1552                           ;mcc_generated_files/mcc.c: 65:     OSCTUNE = 0x00;
  1553   004FFA  0E00               	movlw	0
  1554   004FFC  6E9B               	movwf	155,c	;volatile
  1555   004FFE  0012               	return		;funcret
  1556   005000                     __end_of_OSCILLATOR_Initialize:
  1557                           	callstack 0
  1558                           
  1559 ;; *************** function _INTERRUPT_Initialize *****************
  1560 ;; Defined at:
  1561 ;;		line 52 in file "mcc_generated_files/interrupt_manager.c"
  1562 ;; Parameters:    Size  Location     Type
  1563 ;;		None
  1564 ;; Auto vars:     Size  Location     Type
  1565 ;;		None
  1566 ;; Return value:  Size  Location     Type
  1567 ;;                  1    wreg      void 
  1568 ;; Registers used:
  1569 ;;		None
  1570 ;; Tracked objects:
  1571 ;;		On entry : 0/0
  1572 ;;		On exit  : 0/0
  1573 ;;		Unchanged: 0/0
  1574 ;; Data sizes:     COMRAM   BANK0   BANK1   BANK2   BANK3   BANK4   BANK5   BANK6   BANK7   BANK8   BANK9  BANK10  BANK1
      +1  BANK12  BANK13  BANK14  BANK15
  1575 ;;      Params:         0       0       0       0       0       0       0       0       0       0       0       0       
      +0       0       0       0       0
  1576 ;;      Locals:         0       0       0       0       0       0       0       0       0       0       0       0       
      +0       0       0       0       0
  1577 ;;      Temps:          0       0       0       0       0       0       0       0       0       0       0       0       
      +0       0       0       0       0
  1578 ;;      Totals:         0       0       0       0       0       0       0       0       0       0       0       0       
      +0       0       0       0       0
  1579 ;;Total ram usage:        0 bytes
  1580 ;; Hardware stack levels used: 1
  1581 ;; Hardware stack levels required when called: 10
  1582 ;; This function calls:
  1583 ;;		Nothing
  1584 ;; This function is called by:
  1585 ;;		_SYSTEM_Initialize
  1586 ;; This function uses a non-reentrant model
  1587 ;;
  1588                           
  1589                           	psect	text4
  1590   00500C                     __ptext4:
  1591                           	callstack 0
  1592   00500C                     _INTERRUPT_Initialize:
  1593                           	callstack 19
  1594   00500C                     
  1595                           ;mcc_generated_files/interrupt_manager.c: 55:     RCONbits.IPEN = 0;
  1596   00500C  9ED0               	bcf	208,7,c	;volatile
  1597   00500E  0012               	return		;funcret
  1598   005010                     __end_of_INTERRUPT_Initialize:
  1599                           	callstack 0
  1600                           
  1601 ;; *************** function _EUSART1_Initialize *****************
  1602 ;; Defined at:
  1603 ;;		line 136 in file "mcc_generated_files/eusart1.c"
  1604 ;; Parameters:    Size  Location     Type
  1605 ;;		None
  1606 ;; Auto vars:     Size  Location     Type
  1607 ;;		None
  1608 ;; Return value:  Size  Location     Type
  1609 ;;                  1    wreg      void 
  1610 ;; Registers used:
  1611 ;;		wreg, status,2, status,0, cstack
  1612 ;; Tracked objects:
  1613 ;;		On entry : 0/0
  1614 ;;		On exit  : 0/0
  1615 ;;		Unchanged: 0/0
  1616 ;; Data sizes:     COMRAM   BANK0   BANK1   BANK2   BANK3   BANK4   BANK5   BANK6   BANK7   BANK8   BANK9  BANK10  BANK1
      +1  BANK12  BANK13  BANK14  BANK15
  1617 ;;      Params:         0       0       0       0       0       0       0       0       0       0       0       0       
      +0       0       0       0       0
  1618 ;;      Locals:         0       0       0       0       0       0       0       0       0       0       0       0       
      +0       0       0       0       0
  1619 ;;      Temps:          0       0       0       0       0       0       0       0       0       0       0       0       
      +0       0       0       0       0
  1620 ;;      Totals:         0       0       0       0       0       0       0       0       0       0       0       0       
      +0       0       0       0       0
  1621 ;;Total ram usage:        0 bytes
  1622 ;; Hardware stack levels used: 1
  1623 ;; Hardware stack levels required when called: 11
  1624 ;; This function calls:
  1625 ;;		_EUSART1_SetErrorHandler
  1626 ;;		_EUSART1_SetFramingErrorHandler
  1627 ;;		_EUSART1_SetOverrunErrorHandler
  1628 ;;		_EUSART1_SetRxInterruptHandler
  1629 ;; This function is called by:
  1630 ;;		_SYSTEM_Initialize
  1631 ;; This function uses a non-reentrant model
  1632 ;;
  1633                           
  1634                           	psect	text5
  1635   00468E                     __ptext5:
  1636                           	callstack 0
  1637   00468E                     _EUSART1_Initialize:
  1638                           	callstack 18
  1639   00468E                     
  1640                           ;mcc_generated_files/eusart1.c: 139:     PIE1bits.RC1IE = 0;
  1641   00468E  9A9D               	bcf	157,5,c	;volatile
  1642   004690                     
  1643                           ;mcc_generated_files/eusart1.c: 140:     EUSART1_SetRxInterruptHandler(HandleInterrupt);
  1644   004690  0E54               	movlw	low _HandleInterrupt
  1645   004692  0101               	movlb	1	; () banked
  1646   004694  6F8C               	movwf	EUSART1_SetRxInterruptHandler@interruptHandler& (0+255),b
  1647   004696  0E2A               	movlw	high _HandleInterrupt
  1648   004698  6F8D               	movwf	(EUSART1_SetRxInterruptHandler@interruptHandler+1)& (0+255),b
  1649   00469A  0E00               	movlw	low (_HandleInterrupt shr (0+16))
  1650   00469C  6F8E               	movwf	(EUSART1_SetRxInterruptHandler@interruptHandler+2)& (0+255),b
  1651   00469E  ECC5  F027         	call	_EUSART1_SetRxInterruptHandler	;wreg free
  1652   0046A2                     
  1653                           ;mcc_generated_files/eusart1.c: 144:     BAUDCON1 = 0x08;
  1654   0046A2  0E08               	movlw	8
  1655   0046A4  6E7E               	movwf	126,c	;volatile
  1656   0046A6                     
  1657                           ;mcc_generated_files/eusart1.c: 147:     RCSTA1 = 0x90;
  1658   0046A6  0E90               	movlw	144
  1659   0046A8  6EAB               	movwf	171,c	;volatile
  1660   0046AA                     
  1661                           ;mcc_generated_files/eusart1.c: 150:     TXSTA1 = 0x24;
  1662   0046AA  0E24               	movlw	36
  1663   0046AC  6EAC               	movwf	172,c	;volatile
  1664   0046AE                     
  1665                           ;mcc_generated_files/eusart1.c: 153:     SPBRG1 = 0x35;
  1666   0046AE  0E35               	movlw	53
  1667   0046B0  6EAF               	movwf	175,c	;volatile
  1668   0046B2                     
  1669                           ;mcc_generated_files/eusart1.c: 156:     SPBRGH1 = 0x00;
  1670   0046B2  0E00               	movlw	0
  1671   0046B4  6E7F               	movwf	127,c	;volatile
  1672   0046B6                     
  1673                           ;mcc_generated_files/eusart1.c: 159:     EUSART1_SetFramingErrorHandler(EUSART1_DefaultF
      +                          ramingErrorHandler);
  1674   0046B6  0E14               	movlw	low _EUSART1_DefaultFramingErrorHandler
  1675   0046B8  0101               	movlb	1	; () banked
  1676   0046BA  6F8C               	movwf	EUSART1_SetFramingErrorHandler@interruptHandler& (0+255),b
  1677   0046BC  0E50               	movlw	high _EUSART1_DefaultFramingErrorHandler
  1678   0046BE  6F8D               	movwf	(EUSART1_SetFramingErrorHandler@interruptHandler+1)& (0+255),b
  1679   0046C0  0E00               	movlw	low (_EUSART1_DefaultFramingErrorHandler shr (0+16))
  1680   0046C2  6F8E               	movwf	(EUSART1_SetFramingErrorHandler@interruptHandler+2)& (0+255),b
  1681   0046C4  ECD3  F027         	call	_EUSART1_SetFramingErrorHandler	;wreg free
  1682   0046C8                     
  1683                           ;mcc_generated_files/eusart1.c: 160:     EUSART1_SetOverrunErrorHandler(EUSART1_DefaultO
      +                          verrunErrorHandler);
  1684   0046C8  0E00               	movlw	low _EUSART1_DefaultOverrunErrorHandler
  1685   0046CA  0101               	movlb	1	; () banked
  1686   0046CC  6F8C               	movwf	EUSART1_SetOverrunErrorHandler@interruptHandler& (0+255),b
  1687   0046CE  0E50               	movlw	high _EUSART1_DefaultOverrunErrorHandler
  1688   0046D0  6F8D               	movwf	(EUSART1_SetOverrunErrorHandler@interruptHandler+1)& (0+255),b
  1689   0046D2  0E00               	movlw	low (_EUSART1_DefaultOverrunErrorHandler shr (0+16))
  1690   0046D4  6F8E               	movwf	(EUSART1_SetOverrunErrorHandler@interruptHandler+2)& (0+255),b
  1691   0046D6  ECCC  F027         	call	_EUSART1_SetOverrunErrorHandler	;wreg free
  1692   0046DA                     
  1693                           ;mcc_generated_files/eusart1.c: 161:     EUSART1_SetErrorHandler(EUSART1_DefaultErrorHan
      +                          dler);
  1694   0046DA  0E06               	movlw	low _EUSART1_DefaultErrorHandler
  1695   0046DC  0101               	movlb	1	; () banked
  1696   0046DE  6F8C               	movwf	EUSART1_SetErrorHandler@interruptHandler& (0+255),b
  1697   0046E0  0E50               	movlw	high _EUSART1_DefaultErrorHandler
  1698   0046E2  6F8D               	movwf	(EUSART1_SetErrorHandler@interruptHandler+1)& (0+255),b
  1699   0046E4  0E00               	movlw	low (_EUSART1_DefaultErrorHandler shr (0+16))
  1700   0046E6  6F8E               	movwf	(EUSART1_SetErrorHandler@interruptHandler+2)& (0+255),b
  1701   0046E8  ECDA  F027         	call	_EUSART1_SetErrorHandler	;wreg free
  1702                           
  1703                           ;mcc_generated_files/eusart1.c: 163:     eusart1RxLastError.status = 0;
  1704   0046EC  0E00               	movlw	0
  1705   0046EE  0101               	movlb	1	; () banked
  1706   0046F0  6F17               	movwf	_eusart1RxLastError& (0+255),b	;volatile
  1707                           
  1708                           ;mcc_generated_files/eusart1.c: 166:     eusart1RxHead = 0;
  1709   0046F2  0E00               	movlw	0
  1710   0046F4  6F19               	movwf	_eusart1RxHead& (0+255),b	;volatile
  1711                           
  1712                           ;mcc_generated_files/eusart1.c: 167:     eusart1RxTail = 0;
  1713   0046F6  0E00               	movlw	0
  1714   0046F8  6E5E               	movwf	_eusart1RxTail^0,c	;volatile
  1715                           
  1716                           ;mcc_generated_files/eusart1.c: 168:     eusart1RxCount = 0;
  1717   0046FA  0E00               	movlw	0
  1718   0046FC  6F18               	movwf	_eusart1RxCount& (0+255),b	;volatile
  1719   0046FE                     
  1720                           ; BSR set to: 1
  1721                           ;mcc_generated_files/eusart1.c: 171:     PIE1bits.RC1IE = 1;
  1722   0046FE  8A9D               	bsf	157,5,c	;volatile
  1723   004700                     
  1724                           ; BSR set to: 1
  1725   004700  0012               	return		;funcret
  1726   004702                     __end_of_EUSART1_Initialize:
  1727                           	callstack 0
  1728                           
  1729 ;; *************** function _EUSART1_SetRxInterruptHandler *****************
  1730 ;; Defined at:
  1731 ;;		line 287 in file "mcc_generated_files/eusart1.c"
  1732 ;; Parameters:    Size  Location     Type
  1733 ;;  interruptHan    3    0[BANK1 ] PTR FTN()void 
  1734 ;;		 -> HandleInterrupt(1), 
  1735 ;; Auto vars:     Size  Location     Type
  1736 ;;		None
  1737 ;; Return value:  Size  Location     Type
  1738 ;;                  1    wreg      void 
  1739 ;; Registers used:
  1740 ;;		wreg, status,2, status,0
  1741 ;; Tracked objects:
  1742 ;;		On entry : 0/0
  1743 ;;		On exit  : 0/0
  1744 ;;		Unchanged: 0/0
  1745 ;; Data sizes:     COMRAM   BANK0   BANK1   BANK2   BANK3   BANK4   BANK5   BANK6   BANK7   BANK8   BANK9  BANK10  BANK1
      +1  BANK12  BANK13  BANK14  BANK15
  1746 ;;      Params:         0       0       3       0       0       0       0       0       0       0       0       0       
      +0       0       0       0       0
  1747 ;;      Locals:         0       0       0       0       0       0       0       0       0       0       0       0       
      +0       0       0       0       0
  1748 ;;      Temps:          0       0       0       0       0       0       0       0       0       0       0       0       
      +0       0       0       0       0
  1749 ;;      Totals:         0       0       3       0       0       0       0       0       0       0       0       0       
      +0       0       0       0       0
  1750 ;;Total ram usage:        3 bytes
  1751 ;; Hardware stack levels used: 1
  1752 ;; Hardware stack levels required when called: 10
  1753 ;; This function calls:
  1754 ;;		Nothing
  1755 ;; This function is called by:
  1756 ;;		_EUSART1_Initialize
  1757 ;; This function uses a non-reentrant model
  1758 ;;
  1759                           
  1760                           	psect	text6
  1761   004F8A                     __ptext6:
  1762                           	callstack 0
  1763   004F8A                     _EUSART1_SetRxInterruptHandler:
  1764                           	callstack 18
  1765   004F8A                     
  1766                           ;mcc_generated_files/eusart1.c: 288:     EUSART1_RxDefaultInterruptHandler = interruptHa
      +                          ndler;
  1767   004F8A  C18C  F1AA         	movff	EUSART1_SetRxInterruptHandler@interruptHandler,_EUSART1_RxDefaultInterruptHandler
  1768   004F8E  C18D  F1AB         	movff	EUSART1_SetRxInterruptHandler@interruptHandler+1,_EUSART1_RxDefaultInterruptHandl
      +                          er+1
  1769   004F92  C18E  F1AC         	movff	EUSART1_SetRxInterruptHandler@interruptHandler+2,_EUSART1_RxDefaultInterruptHandl
      +                          er+2
  1770   004F96  0012               	return		;funcret
  1771   004F98                     __end_of_EUSART1_SetRxInterruptHandler:
  1772                           	callstack 0
  1773                           
  1774 ;; *************** function _EUSART1_SetOverrunErrorHandler *****************
  1775 ;; Defined at:
  1776 ;;		line 278 in file "mcc_generated_files/eusart1.c"
  1777 ;; Parameters:    Size  Location     Type
  1778 ;;  interruptHan    3    0[BANK1 ] PTR FTN()void 
  1779 ;;		 -> EUSART1_DefaultOverrunErrorHandler(1), 
  1780 ;; Auto vars:     Size  Location     Type
  1781 ;;		None
  1782 ;; Return value:  Size  Location     Type
  1783 ;;                  1    wreg      void 
  1784 ;; Registers used:
  1785 ;;		wreg, status,2, status,0
  1786 ;; Tracked objects:
  1787 ;;		On entry : 0/0
  1788 ;;		On exit  : 0/0
  1789 ;;		Unchanged: 0/0
  1790 ;; Data sizes:     COMRAM   BANK0   BANK1   BANK2   BANK3   BANK4   BANK5   BANK6   BANK7   BANK8   BANK9  BANK10  BANK1
      +1  BANK12  BANK13  BANK14  BANK15
  1791 ;;      Params:         0       0       3       0       0       0       0       0       0       0       0       0       
      +0       0       0       0       0
  1792 ;;      Locals:         0       0       0       0       0       0       0       0       0       0       0       0       
      +0       0       0       0       0
  1793 ;;      Temps:          0       0       0       0       0       0       0       0       0       0       0       0       
      +0       0       0       0       0
  1794 ;;      Totals:         0       0       3       0       0       0       0       0       0       0       0       0       
      +0       0       0       0       0
  1795 ;;Total ram usage:        3 bytes
  1796 ;; Hardware stack levels used: 1
  1797 ;; Hardware stack levels required when called: 10
  1798 ;; This function calls:
  1799 ;;		Nothing
  1800 ;; This function is called by:
  1801 ;;		_EUSART1_Initialize
  1802 ;; This function uses a non-reentrant model
  1803 ;;
  1804                           
  1805                           	psect	text7
  1806   004F98                     __ptext7:
  1807                           	callstack 0
  1808   004F98                     _EUSART1_SetOverrunErrorHandler:
  1809                           	callstack 18
  1810   004F98                     
  1811                           ;mcc_generated_files/eusart1.c: 279:     EUSART1_OverrunErrorHandler = interruptHandler;
  1812   004F98  C18C  F1A4         	movff	EUSART1_SetOverrunErrorHandler@interruptHandler,_EUSART1_OverrunErrorHandler
  1813   004F9C  C18D  F1A5         	movff	EUSART1_SetOverrunErrorHandler@interruptHandler+1,_EUSART1_OverrunErrorHandler+1
  1814   004FA0  C18E  F1A6         	movff	EUSART1_SetOverrunErrorHandler@interruptHandler+2,_EUSART1_OverrunErrorHandler+2
  1815   004FA4  0012               	return		;funcret
  1816   004FA6                     __end_of_EUSART1_SetOverrunErrorHandler:
  1817                           	callstack 0
  1818                           
  1819 ;; *************** function _EUSART1_SetFramingErrorHandler *****************
  1820 ;; Defined at:
  1821 ;;		line 274 in file "mcc_generated_files/eusart1.c"
  1822 ;; Parameters:    Size  Location     Type
  1823 ;;  interruptHan    3    0[BANK1 ] PTR FTN()void 
  1824 ;;		 -> EUSART1_DefaultFramingErrorHandler(1), 
  1825 ;; Auto vars:     Size  Location     Type
  1826 ;;		None
  1827 ;; Return value:  Size  Location     Type
  1828 ;;                  1    wreg      void 
  1829 ;; Registers used:
  1830 ;;		wreg, status,2, status,0
  1831 ;; Tracked objects:
  1832 ;;		On entry : 0/0
  1833 ;;		On exit  : 0/0
  1834 ;;		Unchanged: 0/0
  1835 ;; Data sizes:     COMRAM   BANK0   BANK1   BANK2   BANK3   BANK4   BANK5   BANK6   BANK7   BANK8   BANK9  BANK10  BANK1
      +1  BANK12  BANK13  BANK14  BANK15
  1836 ;;      Params:         0       0       3       0       0       0       0       0       0       0       0       0       
      +0       0       0       0       0
  1837 ;;      Locals:         0       0       0       0       0       0       0       0       0       0       0       0       
      +0       0       0       0       0
  1838 ;;      Temps:          0       0       0       0       0       0       0       0       0       0       0       0       
      +0       0       0       0       0
  1839 ;;      Totals:         0       0       3       0       0       0       0       0       0       0       0       0       
      +0       0       0       0       0
  1840 ;;Total ram usage:        3 bytes
  1841 ;; Hardware stack levels used: 1
  1842 ;; Hardware stack levels required when called: 10
  1843 ;; This function calls:
  1844 ;;		Nothing
  1845 ;; This function is called by:
  1846 ;;		_EUSART1_Initialize
  1847 ;; This function uses a non-reentrant model
  1848 ;;
  1849                           
  1850                           	psect	text8
  1851   004FA6                     __ptext8:
  1852                           	callstack 0
  1853   004FA6                     _EUSART1_SetFramingErrorHandler:
  1854                           	callstack 18
  1855   004FA6                     
  1856                           ;mcc_generated_files/eusart1.c: 275:     EUSART1_FramingErrorHandler = interruptHandler;
  1857   004FA6  C18C  F1A7         	movff	EUSART1_SetFramingErrorHandler@interruptHandler,_EUSART1_FramingErrorHandler
  1858   004FAA  C18D  F1A8         	movff	EUSART1_SetFramingErrorHandler@interruptHandler+1,_EUSART1_FramingErrorHandler+1
  1859   004FAE  C18E  F1A9         	movff	EUSART1_SetFramingErrorHandler@interruptHandler+2,_EUSART1_FramingErrorHandler+2
  1860   004FB2  0012               	return		;funcret
  1861   004FB4                     __end_of_EUSART1_SetFramingErrorHandler:
  1862                           	callstack 0
  1863                           
  1864 ;; *************** function _EUSART1_SetErrorHandler *****************
  1865 ;; Defined at:
  1866 ;;		line 282 in file "mcc_generated_files/eusart1.c"
  1867 ;; Parameters:    Size  Location     Type
  1868 ;;  interruptHan    3    0[BANK1 ] PTR FTN()void 
  1869 ;;		 -> EUSART1_DefaultErrorHandler(1), 
  1870 ;; Auto vars:     Size  Location     Type
  1871 ;;		None
  1872 ;; Return value:  Size  Location     Type
  1873 ;;                  1    wreg      void 
  1874 ;; Registers used:
  1875 ;;		wreg, status,2, status,0
  1876 ;; Tracked objects:
  1877 ;;		On entry : 0/0
  1878 ;;		On exit  : 0/0
  1879 ;;		Unchanged: 0/0
  1880 ;; Data sizes:     COMRAM   BANK0   BANK1   BANK2   BANK3   BANK4   BANK5   BANK6   BANK7   BANK8   BANK9  BANK10  BANK1
      +1  BANK12  BANK13  BANK14  BANK15
  1881 ;;      Params:         0       0       3       0       0       0       0       0       0       0       0       0       
      +0       0       0       0       0
  1882 ;;      Locals:         0       0       0       0       0       0       0       0       0       0       0       0       
      +0       0       0       0       0
  1883 ;;      Temps:          0       0       0       0       0       0       0       0       0       0       0       0       
      +0       0       0       0       0
  1884 ;;      Totals:         0       0       3       0       0       0       0       0       0       0       0       0       
      +0       0       0       0       0
  1885 ;;Total ram usage:        3 bytes
  1886 ;; Hardware stack levels used: 1
  1887 ;; Hardware stack levels required when called: 10
  1888 ;; This function calls:
  1889 ;;		Nothing
  1890 ;; This function is called by:
  1891 ;;		_EUSART1_Initialize
  1892 ;; This function uses a non-reentrant model
  1893 ;;
  1894                           
  1895                           	psect	text9
  1896   004FB4                     __ptext9:
  1897                           	callstack 0
  1898   004FB4                     _EUSART1_SetErrorHandler:
  1899                           	callstack 18
  1900   004FB4                     
  1901                           ;mcc_generated_files/eusart1.c: 283:     EUSART1_ErrorHandler = interruptHandler;
  1902   004FB4  C18C  F1A1         	movff	EUSART1_SetErrorHandler@interruptHandler,_EUSART1_ErrorHandler
  1903   004FB8  C18D  F1A2         	movff	EUSART1_SetErrorHandler@interruptHandler+1,_EUSART1_ErrorHandler+1
  1904   004FBC  C18E  F1A3         	movff	EUSART1_SetErrorHandler@interruptHandler+2,_EUSART1_ErrorHandler+2
  1905   004FC0  0012               	return		;funcret
  1906   004FC2                     __end_of_EUSART1_SetErrorHandler:
  1907                           	callstack 0
  1908                           
  1909 ;; *************** function _ADC_Initialize *****************
  1910 ;; Defined at:
  1911 ;;		line 61 in file "mcc_generated_files/adc.c"
  1912 ;; Parameters:    Size  Location     Type
  1913 ;;		None
  1914 ;; Auto vars:     Size  Location     Type
  1915 ;;		None
  1916 ;; Return value:  Size  Location     Type
  1917 ;;                  1    wreg      void 
  1918 ;; Registers used:
  1919 ;;		wreg, status,2
  1920 ;; Tracked objects:
  1921 ;;		On entry : 0/0
  1922 ;;		On exit  : 0/0
  1923 ;;		Unchanged: 0/0
  1924 ;; Data sizes:     COMRAM   BANK0   BANK1   BANK2   BANK3   BANK4   BANK5   BANK6   BANK7   BANK8   BANK9  BANK10  BANK1
      +1  BANK12  BANK13  BANK14  BANK15
  1925 ;;      Params:         0       0       0       0       0       0       0       0       0       0       0       0       
      +0       0       0       0       0
  1926 ;;      Locals:         0       0       0       0       0       0       0       0       0       0       0       0       
      +0       0       0       0       0
  1927 ;;      Temps:          0       0       0       0       0       0       0       0       0       0       0       0       
      +0       0       0       0       0
  1928 ;;      Totals:         0       0       0       0       0       0       0       0       0       0       0       0       
      +0       0       0       0       0
  1929 ;;Total ram usage:        0 bytes
  1930 ;; Hardware stack levels used: 1
  1931 ;; Hardware stack levels required when called: 10
  1932 ;; This function calls:
  1933 ;;		Nothing
  1934 ;; This function is called by:
  1935 ;;		_SYSTEM_Initialize
  1936 ;; This function uses a non-reentrant model
  1937 ;;
  1938                           
  1939                           	psect	text10
  1940   004F06                     __ptext10:
  1941                           	callstack 0
  1942   004F06                     _ADC_Initialize:
  1943                           	callstack 19
  1944   004F06                     
  1945                           ;mcc_generated_files/adc.c: 66:     ADCON1 = 0x00;
  1946   004F06  0E00               	movlw	0
  1947   004F08  6EC1               	movwf	193,c	;volatile
  1948                           
  1949                           ;mcc_generated_files/adc.c: 69:     ADCON2 = 0xBA;
  1950   004F0A  0EBA               	movlw	186
  1951   004F0C  6EC0               	movwf	192,c	;volatile
  1952                           
  1953                           ;mcc_generated_files/adc.c: 72:     ADRESL = 0x00;
  1954   004F0E  0E00               	movlw	0
  1955   004F10  6EC3               	movwf	195,c	;volatile
  1956                           
  1957                           ;mcc_generated_files/adc.c: 75:     ADRESH = 0x00;
  1958   004F12  0E00               	movlw	0
  1959   004F14  6EC4               	movwf	196,c	;volatile
  1960                           
  1961                           ;mcc_generated_files/adc.c: 78:     ADCON0 = 0x01;
  1962   004F16  0E01               	movlw	1
  1963   004F18  6EC2               	movwf	194,c	;volatile
  1964   004F1A  0012               	return		;funcret
  1965   004F1C                     __end_of_ADC_Initialize:
  1966                           	callstack 0
  1967                           
  1968 ;; *************** function _LCD_Init *****************
  1969 ;; Defined at:
  1970 ;;		line 83 in file "LCD-library/LCD-library.c"
  1971 ;; Parameters:    Size  Location     Type
  1972 ;;		None
  1973 ;; Auto vars:     Size  Location     Type
  1974 ;;  LCD_f           2    0        int 
  1975 ;;  LCD_n           2    0        int 
  1976 ;;  LCD_dl          2    0        int 
  1977 ;; Return value:  Size  Location     Type
  1978 ;;                  1    wreg      void 
  1979 ;; Registers used:
  1980 ;;		wreg, status,2, status,0, cstack
  1981 ;; Tracked objects:
  1982 ;;		On entry : 0/0
  1983 ;;		On exit  : 0/0
  1984 ;;		Unchanged: 0/0
  1985 ;; Data sizes:     COMRAM   BANK0   BANK1   BANK2   BANK3   BANK4   BANK5   BANK6   BANK7   BANK8   BANK9  BANK10  BANK1
      +1  BANK12  BANK13  BANK14  BANK15
  1986 ;;      Params:         0       0       0       0       0       0       0       0       0       0       0       0       
      +0       0       0       0       0
  1987 ;;      Locals:         0       0       0       0       0       0       0       0       0       0       0       0       
      +0       0       0       0       0
  1988 ;;      Temps:          0       0       6       0       0       0       0       0       0       0       0       0       
      +0       0       0       0       0
  1989 ;;      Totals:         0       0       6       0       0       0       0       0       0       0       0       0       
      +0       0       0       0       0
  1990 ;;Total ram usage:        6 bytes
  1991 ;; Hardware stack levels used: 1
  1992 ;; Hardware stack levels required when called: 15
  1993 ;; This function calls:
  1994 ;;		_LCD_4bitCode
  1995 ;;		_LCD_4bitCodeNoWait
  1996 ;;		_LCD_8bitCode
  1997 ;;		_LCD_8bitCodeNoWait
  1998 ;;		_LCD_SetCursorAt
  1999 ;;		__delay_ms
  2000 ;;		__delay_us
  2001 ;; This function is called by:
  2002 ;;		_main
  2003 ;; This function uses a non-reentrant model
  2004 ;;
  2005                           
  2006                           	psect	text11
  2007   003A3C                     __ptext11:
  2008                           	callstack 0
  2009   003A3C                     _LCD_Init:
  2010                           	callstack 15
  2011   003A3C                     
  2012                           ;LCD-library/LCD-library.c: 84:     TRISE = TRISGbits.RG5 = TRISHbits.TRISH2 = TRISHbits
      +                          .TRISH1 = TRISHbits.TRISH0 = 0;
  2013   003A3C  9099               	bcf	153,0,c	;volatile
  2014   003A3E  9299               	bcf	153,1,c	;volatile
  2015   003A40  9499               	bcf	153,2,c	;volatile
  2016   003A42  9A98               	bcf	152,5,c	;volatile
  2017   003A44  0E00               	movlw	0
  2018   003A46  BA98               	btfsc	152,5,c	;volatile
  2019   003A48  0E01               	movlw	1
  2020   003A4A  6E96               	movwf	150,c	;volatile
  2021   003A4C                     
  2022                           ;LCD-library/LCD-library.c: 87:     int LCD_dl, LCD_n, LCD_f;;LCD-library/LCD-library.c:
      +                           88:     if(8 == 8) LCD_dl = 1; else if(8 == 4) LCD_dl = 0;
  2023   003A4C  0E00               	movlw	0
  2024   003A4E  6E84               	movwf	132,c	;volatile
  2025   003A50  B084               	btfsc	132,0,c	;volatile
  2026   003A52  D002               	bra	u5325
  2027   003A54  9287               	bcf	135,1,c	;volatile
  2028   003A56  D001               	bra	u5326
  2029   003A58                     u5325:
  2030   003A58  8287               	bsf	135,1,c	;volatile
  2031   003A5A                     u5326:
  2032   003A5A  B287               	btfsc	135,1,c	;volatile
  2033   003A5C  D002               	bra	u5335
  2034   003A5E  9487               	bcf	135,2,c	;volatile
  2035   003A60  D001               	bra	u5336
  2036   003A62                     u5335:
  2037   003A62  8487               	bsf	135,2,c	;volatile
  2038   003A64                     u5336:
  2039   003A64  A487               	btfss	135,2,c	;volatile
  2040   003A66  D002               	bra	u5345
  2041   003A68  8087               	bsf	135,0,c	;volatile
  2042   003A6A  D001               	bra	u5347
  2043   003A6C                     u5345:
  2044   003A6C  9087               	bcf	135,0,c	;volatile
  2045   003A6E                     u5347:
  2046   003A6E                     
  2047                           ;LCD-library/LCD-library.c: 94:         _delay_ms(50);
  2048   003A6E  0E00               	movlw	0
  2049   003A70  0101               	movlb	1	; () banked
  2050   003A72  6F8D               	movwf	(__delay_ms@ms+1)& (0+255),b
  2051   003A74  0E32               	movlw	50
  2052   003A76  6F8C               	movwf	__delay_ms@ms& (0+255),b
  2053   003A78  EC63  F025         	call	__delay_ms	;wreg free
  2054   003A7C                     
  2055                           ;LCD-library/LCD-library.c: 95:         LCD_8bitCodeNoWait(0b0000100000 + (LCD_dl<<4) + 
      +                          (LCD_n<<3) + (LCD_f<<2));
  2056   003A7C  0E00               	movlw	0
  2057   003A7E  0101               	movlb	1	; () banked
  2058   003A80  6F8D               	movwf	(LCD_8bitCodeNoWait@code+1)& (0+255),b
  2059   003A82  0E38               	movlw	56
  2060   003A84  6F8C               	movwf	LCD_8bitCodeNoWait@code& (0+255),b
  2061   003A86  ECA0  F024         	call	_LCD_8bitCodeNoWait	;wreg free
  2062   003A8A                     
  2063                           ;LCD-library/LCD-library.c: 96:         _delay_ms(10);
  2064   003A8A  0E00               	movlw	0
  2065   003A8C  0101               	movlb	1	; () banked
  2066   003A8E  6F8D               	movwf	(__delay_ms@ms+1)& (0+255),b
  2067   003A90  0E0A               	movlw	10
  2068   003A92  6F8C               	movwf	__delay_ms@ms& (0+255),b
  2069   003A94  EC63  F025         	call	__delay_ms	;wreg free
  2070   003A98                     
  2071                           ;LCD-library/LCD-library.c: 97:         LCD_8bitCodeNoWait(0b0000100000 + (LCD_dl<<4) + 
      +                          (LCD_n<<3) + (LCD_f<<2));
  2072   003A98  0E00               	movlw	0
  2073   003A9A  0101               	movlb	1	; () banked
  2074   003A9C  6F8D               	movwf	(LCD_8bitCodeNoWait@code+1)& (0+255),b
  2075   003A9E  0E38               	movlw	56
  2076   003AA0  6F8C               	movwf	LCD_8bitCodeNoWait@code& (0+255),b
  2077   003AA2  ECA0  F024         	call	_LCD_8bitCodeNoWait	;wreg free
  2078   003AA6                     
  2079                           ;LCD-library/LCD-library.c: 98:         _delay_us(200);
  2080   003AA6  0E00               	movlw	0
  2081   003AA8  0101               	movlb	1	; () banked
  2082   003AAA  6F8D               	movwf	(__delay_us@us+1)& (0+255),b
  2083   003AAC  0EC8               	movlw	200
  2084   003AAE  6F8C               	movwf	__delay_us@us& (0+255),b
  2085   003AB0  EC71  F026         	call	__delay_us	;wreg free
  2086   003AB4                     
  2087                           ;LCD-library/LCD-library.c: 99:         LCD_8bitCodeNoWait(0b0000100000 + (LCD_dl<<4) + 
      +                          (LCD_n<<3) + (LCD_f<<2));
  2088   003AB4  0E00               	movlw	0
  2089   003AB6  0101               	movlb	1	; () banked
  2090   003AB8  6F8D               	movwf	(LCD_8bitCodeNoWait@code+1)& (0+255),b
  2091   003ABA  0E38               	movlw	56
  2092   003ABC  6F8C               	movwf	LCD_8bitCodeNoWait@code& (0+255),b
  2093   003ABE  ECA0  F024         	call	_LCD_8bitCodeNoWait	;wreg free
  2094   003AC2                     
  2095                           ;LCD-library/LCD-library.c: 101:         _delay_us(200);
  2096   003AC2  0E00               	movlw	0
  2097   003AC4  0101               	movlb	1	; () banked
  2098   003AC6  6F8D               	movwf	(__delay_us@us+1)& (0+255),b
  2099   003AC8  0EC8               	movlw	200
  2100   003ACA  6F8C               	movwf	__delay_us@us& (0+255),b
  2101   003ACC  EC71  F026         	call	__delay_us	;wreg free
  2102   003AD0                     
  2103                           ;LCD-library/LCD-library.c: 103:         LCD_8bitCode(0b0000100000 + (LCD_dl<<4) + (LCD_
      +                          n<<3) + (LCD_f<<2));
  2104   003AD0  0E00               	movlw	0
  2105   003AD2  0101               	movlb	1	; () banked
  2106   003AD4  6F92               	movwf	(LCD_8bitCode@code+1)& (0+255),b
  2107   003AD6  0E38               	movlw	56
  2108   003AD8  6F91               	movwf	LCD_8bitCode@code& (0+255),b
  2109   003ADA  EC99  F027         	call	_LCD_8bitCode	;wreg free
  2110   003ADE                     
  2111                           ;LCD-library/LCD-library.c: 104:         LCD_8bitCode(0b0000001000);
  2112   003ADE  0E00               	movlw	0
  2113   003AE0  0101               	movlb	1	; () banked
  2114   003AE2  6F92               	movwf	(LCD_8bitCode@code+1)& (0+255),b
  2115   003AE4  0E08               	movlw	8
  2116   003AE6  6F91               	movwf	LCD_8bitCode@code& (0+255),b
  2117   003AE8  EC99  F027         	call	_LCD_8bitCode	;wreg free
  2118   003AEC                     
  2119                           ;LCD-library/LCD-library.c: 105:         LCD_8bitCode(0b0000000001);
  2120   003AEC  0E00               	movlw	0
  2121   003AEE  0101               	movlb	1	; () banked
  2122   003AF0  6F92               	movwf	(LCD_8bitCode@code+1)& (0+255),b
  2123   003AF2  0E01               	movlw	1
  2124   003AF4  6F91               	movwf	LCD_8bitCode@code& (0+255),b
  2125   003AF6  EC99  F027         	call	_LCD_8bitCode	;wreg free
  2126   003AFA                     
  2127                           ;LCD-library/LCD-library.c: 106:         LCD_8bitCode(0b0000000100 + (LCD_isIncrement<<1
      +                          ) + LCD_isShift);
  2128   003AFA  C1B1  F19B         	movff	_LCD_isIncrement,??_LCD_Init
  2129   003AFE  C1B2  F19C         	movff	_LCD_isIncrement+1,??_LCD_Init+1
  2130   003B02  90D8               	bcf	status,0,c
  2131   003B04  0101               	movlb	1	; () banked
  2132   003B06  379B               	rlcf	??_LCD_Init& (0+255),f,b
  2133   003B08  379C               	rlcf	(??_LCD_Init+1)& (0+255),f,b
  2134   003B0A  0E04               	movlw	4
  2135   003B0C  259B               	addwf	??_LCD_Init& (0+255),w,b
  2136   003B0E  6F91               	movwf	LCD_8bitCode@code& (0+255),b
  2137   003B10  0E00               	movlw	0
  2138   003B12  219C               	addwfc	(??_LCD_Init+1)& (0+255),w,b
  2139   003B14  6F92               	movwf	(LCD_8bitCode@code+1)& (0+255),b
  2140   003B16  EC99  F027         	call	_LCD_8bitCode	;wreg free
  2141   003B1A                     
  2142                           ;LCD-library/LCD-library.c: 108:         LCD_8bitCode(0b0000001000 + (LCD_isDisplayOn<<2
      +                          ) + (LCD_isCursorOn<<1) + LCD_isCursorBlinking);
  2143   003B1A  C1AD  F19B         	movff	_LCD_isCursorOn,??_LCD_Init
  2144   003B1E  C1AE  F19C         	movff	_LCD_isCursorOn+1,??_LCD_Init+1
  2145   003B22  90D8               	bcf	status,0,c
  2146   003B24  0101               	movlb	1	; () banked
  2147   003B26  379B               	rlcf	??_LCD_Init& (0+255),f,b
  2148   003B28  379C               	rlcf	(??_LCD_Init+1)& (0+255),f,b
  2149   003B2A  C1AF  F19D         	movff	_LCD_isDisplayOn,??_LCD_Init+2
  2150   003B2E  C1B0  F19E         	movff	_LCD_isDisplayOn+1,??_LCD_Init+3
  2151   003B32  90D8               	bcf	status,0,c
  2152   003B34  379D               	rlcf	(??_LCD_Init+2)& (0+255),f,b
  2153   003B36  379E               	rlcf	(??_LCD_Init+3)& (0+255),f,b
  2154   003B38  90D8               	bcf	status,0,c
  2155   003B3A  379D               	rlcf	(??_LCD_Init+2)& (0+255),f,b
  2156   003B3C  379E               	rlcf	(??_LCD_Init+3)& (0+255),f,b
  2157   003B3E  519B               	movf	??_LCD_Init& (0+255),w,b
  2158   003B40  259D               	addwf	(??_LCD_Init+2)& (0+255),w,b
  2159   003B42  6F9F               	movwf	(??_LCD_Init+4)& (0+255),b
  2160   003B44  519C               	movf	(??_LCD_Init+1)& (0+255),w,b
  2161   003B46  219E               	addwfc	(??_LCD_Init+3)& (0+255),w,b
  2162   003B48  6FA0               	movwf	(??_LCD_Init+5)& (0+255),b
  2163   003B4A  5113               	movf	_LCD_isCursorBlinking& (0+255),w,b
  2164   003B4C  279F               	addwf	(??_LCD_Init+4)& (0+255),f,b
  2165   003B4E  5114               	movf	(_LCD_isCursorBlinking+1)& (0+255),w,b
  2166   003B50  23A0               	addwfc	(??_LCD_Init+5)& (0+255),f,b
  2167   003B52  0E08               	movlw	8
  2168   003B54  259F               	addwf	(??_LCD_Init+4)& (0+255),w,b
  2169   003B56  6F91               	movwf	LCD_8bitCode@code& (0+255),b
  2170   003B58  0E00               	movlw	0
  2171   003B5A  21A0               	addwfc	(??_LCD_Init+5)& (0+255),w,b
  2172   003B5C  6F92               	movwf	(LCD_8bitCode@code+1)& (0+255),b
  2173   003B5E  EC99  F027         	call	_LCD_8bitCode	;wreg free
  2174   003B62                     
  2175                           ;LCD-library/LCD-library.c: 128:     LCD_SetCursorAt(LCD_posX, LCD_posY);
  2176   003B62  C1B5  F195         	movff	_LCD_posX,LCD_SetCursorAt@x
  2177   003B66  C1B6  F196         	movff	_LCD_posX+1,LCD_SetCursorAt@x+1
  2178   003B6A  C1B3  F197         	movff	_LCD_posY,LCD_SetCursorAt@y
  2179   003B6E  C1B4  F198         	movff	_LCD_posY+1,LCD_SetCursorAt@y+1
  2180   003B72  ECBB  F01F         	call	_LCD_SetCursorAt	;wreg free
  2181   003B76  0012               	return		;funcret
  2182   003B78                     __end_of_LCD_Init:
  2183                           	callstack 0
  2184                           
  2185 ;; *************** function __delay_ms *****************
  2186 ;; Defined at:
  2187 ;;		line 8 in file "LCD-library/LCD-library.c"
  2188 ;; Parameters:    Size  Location     Type
  2189 ;;  ms              2    0[BANK1 ] int 
  2190 ;; Auto vars:     Size  Location     Type
  2191 ;;  i               2    3[BANK1 ] int 
  2192 ;; Return value:  Size  Location     Type
  2193 ;;                  1    wreg      void 
  2194 ;; Registers used:
  2195 ;;		wreg, status,2, status,0
  2196 ;; Tracked objects:
  2197 ;;		On entry : 0/0
  2198 ;;		On exit  : 0/0
  2199 ;;		Unchanged: 0/0
  2200 ;; Data sizes:     COMRAM   BANK0   BANK1   BANK2   BANK3   BANK4   BANK5   BANK6   BANK7   BANK8   BANK9  BANK10  BANK1
      +1  BANK12  BANK13  BANK14  BANK15
  2201 ;;      Params:         0       0       2       0       0       0       0       0       0       0       0       0       
      +0       0       0       0       0
  2202 ;;      Locals:         0       0       2       0       0       0       0       0       0       0       0       0       
      +0       0       0       0       0
  2203 ;;      Temps:          0       0       1       0       0       0       0       0       0       0       0       0       
      +0       0       0       0       0
  2204 ;;      Totals:         0       0       5       0       0       0       0       0       0       0       0       0       
      +0       0       0       0       0
  2205 ;;Total ram usage:        5 bytes
  2206 ;; Hardware stack levels used: 1
  2207 ;; Hardware stack levels required when called: 10
  2208 ;; This function calls:
  2209 ;;		Nothing
  2210 ;; This function is called by:
  2211 ;;		_LCD_Init
  2212 ;;		___delay_s
  2213 ;; This function uses a non-reentrant model
  2214 ;;
  2215                           
  2216                           	psect	text12
  2217   004AC6                     __ptext12:
  2218                           	callstack 0
  2219   004AC6                     __delay_ms:
  2220                           	callstack 19
  2221   004AC6  0E00               	movlw	0
  2222   004AC8  0101               	movlb	1	; () banked
  2223   004ACA  6F90               	movwf	(__delay_ms@i+1)& (0+255),b
  2224   004ACC  0E00               	movlw	0
  2225   004ACE  6F8F               	movwf	__delay_ms@i& (0+255),b
  2226   004AD0  EF76  F025         	goto	l55
  2227   004AD4                     l5020:
  2228                           
  2229                           ; BSR set to: 1
  2230   004AD4  0E09               	movlw	9
  2231   004AD6  0101               	movlb	1	; () banked
  2232   004AD8  6F8E               	movwf	??__delay_ms& (0+255),b
  2233   004ADA  0E1C               	movlw	28
  2234   004ADC                     u5657:
  2235   004ADC  2EE8               	decfsz	wreg,f,c
  2236   004ADE  D7FE               	bra	u5657
  2237   004AE0  2F8E               	decfsz	??__delay_ms& (0+255),f,b
  2238   004AE2  D7FC               	bra	u5657
  2239   004AE4  F000               	nop	
  2240   004AE6  0101               	movlb	1	; () banked
  2241   004AE8  4B8F               	infsnz	__delay_ms@i& (0+255),f,b
  2242   004AEA  2B90               	incf	(__delay_ms@i+1)& (0+255),f,b
  2243   004AEC                     l55:
  2244                           
  2245                           ; BSR set to: 1
  2246   004AEC  518C               	movf	__delay_ms@ms& (0+255),w,b
  2247   004AEE  5D8F               	subwf	__delay_ms@i& (0+255),w,b
  2248   004AF0  5190               	movf	(__delay_ms@i+1)& (0+255),w,b
  2249   004AF2  0A80               	xorlw	128
  2250   004AF4  6F8E               	movwf	??__delay_ms& (0+255),b
  2251   004AF6  518D               	movf	(__delay_ms@ms+1)& (0+255),w,b
  2252   004AF8  0A80               	xorlw	128
  2253   004AFA  598E               	subwfb	??__delay_ms& (0+255),w,b
  2254   004AFC  A0D8               	btfss	status,0,c
  2255   004AFE  EF83  F025         	goto	u5031
  2256   004B02  EF85  F025         	goto	u5030
  2257   004B06                     u5031:
  2258   004B06  EF6A  F025         	goto	l5020
  2259   004B0A                     u5030:
  2260   004B0A                     
  2261                           ; BSR set to: 1
  2262   004B0A  0012               	return		;funcret
  2263   004B0C                     __end_of__delay_ms:
  2264                           	callstack 0
  2265                           
  2266 ;; *************** function _LCD_SetCursorAt *****************
  2267 ;; Defined at:
  2268 ;;		line 174 in file "LCD-library/LCD-library.c"
  2269 ;; Parameters:    Size  Location     Type
  2270 ;;  x               2    9[BANK1 ] int 
  2271 ;;  y               2   11[BANK1 ] int 
  2272 ;; Auto vars:     Size  Location     Type
  2273 ;;		None
  2274 ;; Return value:  Size  Location     Type
  2275 ;;                  1    wreg      void 
  2276 ;; Registers used:
  2277 ;;		wreg, status,2, status,0, cstack
  2278 ;; Tracked objects:
  2279 ;;		On entry : 0/0
  2280 ;;		On exit  : 0/0
  2281 ;;		Unchanged: 0/0
  2282 ;; Data sizes:     COMRAM   BANK0   BANK1   BANK2   BANK3   BANK4   BANK5   BANK6   BANK7   BANK8   BANK9  BANK10  BANK1
      +1  BANK12  BANK13  BANK14  BANK15
  2283 ;;      Params:         0       0       4       0       0       0       0       0       0       0       0       0       
      +0       0       0       0       0
  2284 ;;      Locals:         0       0       0       0       0       0       0       0       0       0       0       0       
      +0       0       0       0       0
  2285 ;;      Temps:          0       0       2       0       0       0       0       0       0       0       0       0       
      +0       0       0       0       0
  2286 ;;      Totals:         0       0       6       0       0       0       0       0       0       0       0       0       
      +0       0       0       0       0
  2287 ;;Total ram usage:        6 bytes
  2288 ;; Hardware stack levels used: 1
  2289 ;; Hardware stack levels required when called: 14
  2290 ;; This function calls:
  2291 ;;		_LCD_Code
  2292 ;; This function is called by:
  2293 ;;		_LCD_Init
  2294 ;;		_LCD_MoveCursorUp
  2295 ;;		_LCD_MoveCursorDown
  2296 ;;		_LCD_NewChar
  2297 ;; This function uses a non-reentrant model
  2298 ;;
  2299                           
  2300                           	psect	text13
  2301   003F76                     __ptext13:
  2302                           	callstack 0
  2303   003F76                     _LCD_SetCursorAt:
  2304                           	callstack 15
  2305   003F76                     
  2306                           ;LCD-library/LCD-library.c: 175:     if(x >= 1 && x <= 16 && y >= 1 && y <= 2){
  2307   003F76  0101               	movlb	1	; () banked
  2308   003F78  BF96               	btfsc	(LCD_SetCursorAt@x+1)& (0+255),7,b
  2309   003F7A  EFC7  F01F         	goto	u5041
  2310   003F7E  5196               	movf	(LCD_SetCursorAt@x+1)& (0+255),w,b
  2311   003F80  E108               	bnz	u5040
  2312   003F82  0595               	decf	LCD_SetCursorAt@x& (0+255),w,b
  2313   003F84  A0D8               	btfss	status,0,c
  2314   003F86  EFC7  F01F         	goto	u5041
  2315   003F8A  EFC9  F01F         	goto	u5040
  2316   003F8E                     u5041:
  2317   003F8E  EF26  F020         	goto	l154
  2318   003F92                     u5040:
  2319   003F92                     
  2320                           ; BSR set to: 1
  2321   003F92  BF96               	btfsc	(LCD_SetCursorAt@x+1)& (0+255),7,b
  2322   003F94  EFD7  F01F         	goto	u5050
  2323   003F98  5196               	movf	(LCD_SetCursorAt@x+1)& (0+255),w,b
  2324   003F9A  E107               	bnz	u5051
  2325   003F9C  0E11               	movlw	17
  2326   003F9E  5D95               	subwf	LCD_SetCursorAt@x& (0+255),w,b
  2327   003FA0  B0D8               	btfsc	status,0,c
  2328   003FA2  EFD5  F01F         	goto	u5051
  2329   003FA6  EFD7  F01F         	goto	u5050
  2330   003FAA                     u5051:
  2331   003FAA  EF26  F020         	goto	l154
  2332   003FAE                     u5050:
  2333   003FAE                     
  2334                           ; BSR set to: 1
  2335   003FAE  BF98               	btfsc	(LCD_SetCursorAt@y+1)& (0+255),7,b
  2336   003FB0  EFE2  F01F         	goto	u5061
  2337   003FB4  5198               	movf	(LCD_SetCursorAt@y+1)& (0+255),w,b
  2338   003FB6  E108               	bnz	u5060
  2339   003FB8  0597               	decf	LCD_SetCursorAt@y& (0+255),w,b
  2340   003FBA  A0D8               	btfss	status,0,c
  2341   003FBC  EFE2  F01F         	goto	u5061
  2342   003FC0  EFE4  F01F         	goto	u5060
  2343   003FC4                     u5061:
  2344   003FC4  EF26  F020         	goto	l154
  2345   003FC8                     u5060:
  2346   003FC8                     
  2347                           ; BSR set to: 1
  2348   003FC8  BF98               	btfsc	(LCD_SetCursorAt@y+1)& (0+255),7,b
  2349   003FCA  EFF2  F01F         	goto	u5070
  2350   003FCE  5198               	movf	(LCD_SetCursorAt@y+1)& (0+255),w,b
  2351   003FD0  E107               	bnz	u5071
  2352   003FD2  0E03               	movlw	3
  2353   003FD4  5D97               	subwf	LCD_SetCursorAt@y& (0+255),w,b
  2354   003FD6  B0D8               	btfsc	status,0,c
  2355   003FD8  EFF0  F01F         	goto	u5071
  2356   003FDC  EFF2  F01F         	goto	u5070
  2357   003FE0                     u5071:
  2358   003FE0  EF26  F020         	goto	l154
  2359   003FE4                     u5070:
  2360   003FE4                     
  2361                           ; BSR set to: 1
  2362                           ;LCD-library/LCD-library.c: 176:         LCD_posX = x;
  2363   003FE4  C195  F1B5         	movff	LCD_SetCursorAt@x,_LCD_posX
  2364   003FE8  C196  F1B6         	movff	LCD_SetCursorAt@x+1,_LCD_posX+1
  2365                           
  2366                           ;LCD-library/LCD-library.c: 177:         LCD_posY = y;
  2367   003FEC  C197  F1B3         	movff	LCD_SetCursorAt@y,_LCD_posY
  2368   003FF0  C198  F1B4         	movff	LCD_SetCursorAt@y+1,_LCD_posY+1
  2369                           
  2370                           ;LCD-library/LCD-library.c: 178:         switch(y) {
  2371   003FF4  EF10  F020         	goto	l5042
  2372   003FF8                     l5034:
  2373                           
  2374                           ; BSR set to: 1
  2375   003FF8  0E7F               	movlw	127
  2376   003FFA  2595               	addwf	LCD_SetCursorAt@x& (0+255),w,b
  2377   003FFC  6F93               	movwf	LCD_Code@code& (0+255),b
  2378   003FFE  0E00               	movlw	0
  2379   004000  2196               	addwfc	(LCD_SetCursorAt@x+1)& (0+255),w,b
  2380   004002  6F94               	movwf	(LCD_Code@code+1)& (0+255),b
  2381   004004  ECE1  F027         	call	_LCD_Code	;wreg free
  2382   004008  EF26  F020         	goto	l154
  2383   00400C                     l5036:
  2384                           
  2385                           ; BSR set to: 1
  2386   00400C  0EBF               	movlw	191
  2387   00400E  2595               	addwf	LCD_SetCursorAt@x& (0+255),w,b
  2388   004010  6F93               	movwf	LCD_Code@code& (0+255),b
  2389   004012  0E00               	movlw	0
  2390   004014  2196               	addwfc	(LCD_SetCursorAt@x+1)& (0+255),w,b
  2391   004016  6F94               	movwf	(LCD_Code@code+1)& (0+255),b
  2392   004018  ECE1  F027         	call	_LCD_Code	;wreg free
  2393   00401C  EF26  F020         	goto	l154
  2394   004020                     l5042:
  2395                           
  2396                           ; BSR set to: 1
  2397   004020  C197  F199         	movff	LCD_SetCursorAt@y,??_LCD_SetCursorAt
  2398   004024  C198  F19A         	movff	LCD_SetCursorAt@y+1,??_LCD_SetCursorAt+1
  2399                           
  2400                           ; Switch on 2 bytes has been partitioned into a top level switch of size 1, and 1 sub-sw
      +                          itches
  2401                           ; Switch size 1, requested type "simple"
  2402                           ; Number of cases is 1, Range of values is 0 to 0
  2403                           ; switch strategies available:
  2404                           ; Name         Instructions Cycles
  2405                           ; simple_byte            4     3 (average)
  2406                           ;	Chosen strategy is simple_byte
  2407   004028  519A               	movf	(??_LCD_SetCursorAt+1)& (0+255),w,b
  2408   00402A  0A00               	xorlw	0	; case 0
  2409   00402C  B4D8               	btfsc	status,2,c
  2410   00402E  EF1B  F020         	goto	l5674
  2411   004032  EFFC  F01F         	goto	l5034
  2412   004036                     l5674:
  2413                           
  2414                           ; BSR set to: 1
  2415                           ; Switch size 1, requested type "simple"
  2416                           ; Number of cases is 2, Range of values is 1 to 2
  2417                           ; switch strategies available:
  2418                           ; Name         Instructions Cycles
  2419                           ; simple_byte            7     4 (average)
  2420                           ;	Chosen strategy is simple_byte
  2421   004036  5199               	movf	??_LCD_SetCursorAt& (0+255),w,b
  2422   004038  0A01               	xorlw	1	; case 1
  2423   00403A  B4D8               	btfsc	status,2,c
  2424   00403C  EFFC  F01F         	goto	l5034
  2425   004040  0A03               	xorlw	3	; case 2
  2426   004042  B4D8               	btfsc	status,2,c
  2427   004044  EF06  F020         	goto	l5036
  2428   004048  EFFC  F01F         	goto	l5034
  2429   00404C                     l154:
  2430   00404C  0012               	return		;funcret
  2431   00404E                     __end_of_LCD_SetCursorAt:
  2432                           	callstack 0
  2433                           
  2434 ;; *************** function _LCD_Code *****************
  2435 ;; Defined at:
  2436 ;;		line 75 in file "LCD-library/LCD-library.c"
  2437 ;; Parameters:    Size  Location     Type
  2438 ;;  code            2    7[BANK1 ] int 
  2439 ;; Auto vars:     Size  Location     Type
  2440 ;;		None
  2441 ;; Return value:  Size  Location     Type
  2442 ;;                  1    wreg      void 
  2443 ;; Registers used:
  2444 ;;		wreg, status,2, status,0, cstack
  2445 ;; Tracked objects:
  2446 ;;		On entry : 0/0
  2447 ;;		On exit  : 0/0
  2448 ;;		Unchanged: 0/0
  2449 ;; Data sizes:     COMRAM   BANK0   BANK1   BANK2   BANK3   BANK4   BANK5   BANK6   BANK7   BANK8   BANK9  BANK10  BANK1
      +1  BANK12  BANK13  BANK14  BANK15
  2450 ;;      Params:         0       0       2       0       0       0       0       0       0       0       0       0       
      +0       0       0       0       0
  2451 ;;      Locals:         0       0       0       0       0       0       0       0       0       0       0       0       
      +0       0       0       0       0
  2452 ;;      Temps:          0       0       0       0       0       0       0       0       0       0       0       0       
      +0       0       0       0       0
  2453 ;;      Totals:         0       0       2       0       0       0       0       0       0       0       0       0       
      +0       0       0       0       0
  2454 ;;Total ram usage:        2 bytes
  2455 ;; Hardware stack levels used: 1
  2456 ;; Hardware stack levels required when called: 13
  2457 ;; This function calls:
  2458 ;;		_LCD_4bitCode
  2459 ;;		_LCD_8bitCode
  2460 ;; This function is called by:
  2461 ;;		_LCD_SetCursorAt
  2462 ;;		_LCD_TurnOff
  2463 ;;		_LCD_TurnOn
  2464 ;;		_LCD_home
  2465 ;;		_LCD_CursorOff
  2466 ;;		_LCD_CursorOn
  2467 ;;		_LCD_CursorBlinkingOn
  2468 ;;		_LCD_CursorBlinkingOff
  2469 ;;		_LCD_NewChar
  2470 ;; This function uses a non-reentrant model
  2471 ;;
  2472                           
  2473                           	psect	text14
  2474   004FC2                     __ptext14:
  2475                           	callstack 0
  2476   004FC2                     _LCD_Code:
  2477                           	callstack 15
  2478   004FC2  C193  F191         	movff	LCD_Code@code,LCD_8bitCode@code
  2479   004FC6  C194  F192         	movff	LCD_Code@code+1,LCD_8bitCode@code+1
  2480   004FCA  EC99  F027         	call	_LCD_8bitCode	;wreg free
  2481   004FCE  0012               	return		;funcret
  2482   004FD0                     __end_of_LCD_Code:
  2483                           	callstack 0
  2484                           
  2485 ;; *************** function _LCD_8bitCode *****************
  2486 ;; Defined at:
  2487 ;;		line 57 in file "LCD-library/LCD-library.c"
  2488 ;; Parameters:    Size  Location     Type
  2489 ;;  code            2    5[BANK1 ] int 
  2490 ;; Auto vars:     Size  Location     Type
  2491 ;;		None
  2492 ;; Return value:  Size  Location     Type
  2493 ;;                  1    wreg      void 
  2494 ;; Registers used:
  2495 ;;		wreg, status,2, status,0, cstack
  2496 ;; Tracked objects:
  2497 ;;		On entry : 0/0
  2498 ;;		On exit  : 0/0
  2499 ;;		Unchanged: 0/0
  2500 ;; Data sizes:     COMRAM   BANK0   BANK1   BANK2   BANK3   BANK4   BANK5   BANK6   BANK7   BANK8   BANK9  BANK10  BANK1
      +1  BANK12  BANK13  BANK14  BANK15
  2501 ;;      Params:         0       0       2       0       0       0       0       0       0       0       0       0       
      +0       0       0       0       0
  2502 ;;      Locals:         0       0       0       0       0       0       0       0       0       0       0       0       
      +0       0       0       0       0
  2503 ;;      Temps:          0       0       0       0       0       0       0       0       0       0       0       0       
      +0       0       0       0       0
  2504 ;;      Totals:         0       0       2       0       0       0       0       0       0       0       0       0       
      +0       0       0       0       0
  2505 ;;Total ram usage:        2 bytes
  2506 ;; Hardware stack levels used: 1
  2507 ;; Hardware stack levels required when called: 12
  2508 ;; This function calls:
  2509 ;;		_LCD_8bitCodeNoWait
  2510 ;;		_LCD_Wait
  2511 ;; This function is called by:
  2512 ;;		_LCD_Code
  2513 ;;		_LCD_Init
  2514 ;; This function uses a non-reentrant model
  2515 ;;
  2516                           
  2517                           	psect	text15
  2518   004F32                     __ptext15:
  2519                           	callstack 0
  2520   004F32                     _LCD_8bitCode:
  2521                           	callstack 15
  2522   004F32                     
  2523                           ;LCD-library/LCD-library.c: 58:     LCD_8bitCodeNoWait(code);
  2524   004F32  C191  F18C         	movff	LCD_8bitCode@code,LCD_8bitCodeNoWait@code
  2525   004F36  C192  F18D         	movff	LCD_8bitCode@code+1,LCD_8bitCodeNoWait@code+1
  2526   004F3A  ECA0  F024         	call	_LCD_8bitCodeNoWait	;wreg free
  2527                           
  2528                           ;LCD-library/LCD-library.c: 59:     LCD_Wait();
  2529   004F3E  ECBD  F027         	call	_LCD_Wait	;wreg free
  2530   004F42  0012               	return		;funcret
  2531   004F44                     __end_of_LCD_8bitCode:
  2532                           	callstack 0
  2533                           
  2534 ;; *************** function _LCD_8bitCodeNoWait *****************
  2535 ;; Defined at:
  2536 ;;		line 50 in file "LCD-library/LCD-library.c"
  2537 ;; Parameters:    Size  Location     Type
  2538 ;;  code            2    0[BANK1 ] int 
  2539 ;; Auto vars:     Size  Location     Type
  2540 ;;		None
  2541 ;; Return value:  Size  Location     Type
  2542 ;;                  1    wreg      void 
  2543 ;; Registers used:
  2544 ;;		wreg, status,2, status,0
  2545 ;; Tracked objects:
  2546 ;;		On entry : 0/0
  2547 ;;		On exit  : 0/0
  2548 ;;		Unchanged: 0/0
  2549 ;; Data sizes:     COMRAM   BANK0   BANK1   BANK2   BANK3   BANK4   BANK5   BANK6   BANK7   BANK8   BANK9  BANK10  BANK1
      +1  BANK12  BANK13  BANK14  BANK15
  2550 ;;      Params:         0       0       2       0       0       0       0       0       0       0       0       0       
      +0       0       0       0       0
  2551 ;;      Locals:         0       0       0       0       0       0       0       0       0       0       0       0       
      +0       0       0       0       0
  2552 ;;      Temps:          0       0       3       0       0       0       0       0       0       0       0       0       
      +0       0       0       0       0
  2553 ;;      Totals:         0       0       5       0       0       0       0       0       0       0       0       0       
      +0       0       0       0       0
  2554 ;;Total ram usage:        5 bytes
  2555 ;; Hardware stack levels used: 1
  2556 ;; Hardware stack levels required when called: 10
  2557 ;; This function calls:
  2558 ;;		Nothing
  2559 ;; This function is called by:
  2560 ;;		_LCD_8bitCode
  2561 ;;		_LCD_Init
  2562 ;; This function uses a non-reentrant model
  2563 ;;
  2564                           
  2565                           	psect	text16
  2566   004940                     __ptext16:
  2567                           	callstack 0
  2568   004940                     _LCD_8bitCodeNoWait:
  2569                           	callstack 16
  2570   004940                     
  2571                           ;LCD-library/LCD-library.c: 51:     PORTHbits.RH2 = (code & 0b1000000000) >> 9;
  2572   004940  C18C  F18E         	movff	LCD_8bitCodeNoWait@code,??_LCD_8bitCodeNoWait
  2573   004944  C18D  F18F         	movff	LCD_8bitCodeNoWait@code+1,??_LCD_8bitCodeNoWait+1
  2574   004948  0E09               	movlw	9
  2575   00494A  0101               	movlb	1	; () banked
  2576   00494C  6F90               	movwf	(??_LCD_8bitCodeNoWait+2)& (0+255),b
  2577   00494E                     u4285:
  2578   00494E  358F               	rlcf	(??_LCD_8bitCodeNoWait+1)& (0+255),w,b
  2579   004950  338F               	rrcf	(??_LCD_8bitCodeNoWait+1)& (0+255),f,b
  2580   004952  338E               	rrcf	??_LCD_8bitCodeNoWait& (0+255),f,b
  2581   004954  2F90               	decfsz	(??_LCD_8bitCodeNoWait+2)& (0+255),f,b
  2582   004956  EFA7  F024         	goto	u4285
  2583   00495A  0E01               	movlw	1
  2584   00495C  178E               	andwf	??_LCD_8bitCodeNoWait& (0+255),f,b
  2585   00495E  478E               	rlncf	??_LCD_8bitCodeNoWait& (0+255),f,b
  2586   004960  478E               	rlncf	??_LCD_8bitCodeNoWait& (0+255),f,b
  2587   004962  5087               	movf	135,w,c	;volatile
  2588   004964  198E               	xorwf	??_LCD_8bitCodeNoWait& (0+255),w,b
  2589   004966  0BFB               	andlw	-5
  2590   004968  198E               	xorwf	??_LCD_8bitCodeNoWait& (0+255),w,b
  2591   00496A  6E87               	movwf	135,c	;volatile
  2592                           
  2593                           ;LCD-library/LCD-library.c: 52:     PORTHbits.RH1 = (code & 0b0100000000) >> 8;
  2594   00496C  C18D  F18E         	movff	LCD_8bitCodeNoWait@code+1,??_LCD_8bitCodeNoWait
  2595   004970  6B8F               	clrf	(??_LCD_8bitCodeNoWait+1)& (0+255),b
  2596   004972  BF8E               	btfsc	??_LCD_8bitCodeNoWait& (0+255),7,b
  2597   004974  698F               	setf	(??_LCD_8bitCodeNoWait+1)& (0+255),b
  2598   004976  0E01               	movlw	1
  2599   004978  178E               	andwf	??_LCD_8bitCodeNoWait& (0+255),f,b
  2600   00497A  478E               	rlncf	??_LCD_8bitCodeNoWait& (0+255),f,b
  2601   00497C  5087               	movf	135,w,c	;volatile
  2602   00497E  198E               	xorwf	??_LCD_8bitCodeNoWait& (0+255),w,b
  2603   004980  0BFD               	andlw	-3
  2604   004982  198E               	xorwf	??_LCD_8bitCodeNoWait& (0+255),w,b
  2605   004984  6E87               	movwf	135,c	;volatile
  2606   004986                     
  2607                           ; BSR set to: 1
  2608                           ;LCD-library/LCD-library.c: 53:     PORTE = code & 0b0011111111;
  2609   004986  C18C  FF84         	movff	LCD_8bitCodeNoWait@code,3972	;volatile
  2610   00498A                     
  2611                           ; BSR set to: 1
  2612                           ;LCD-library/LCD-library.c: 54:     PORTHbits.RH0 = 1;
  2613   00498A  8087               	bsf	135,0,c	;volatile
  2614   00498C                     
  2615                           ; BSR set to: 1
  2616                           ;LCD-library/LCD-library.c: 55:     PORTHbits.RH0 = 0;
  2617   00498C  9087               	bcf	135,0,c	;volatile
  2618   00498E                     
  2619                           ; BSR set to: 1
  2620   00498E  0012               	return		;funcret
  2621   004990                     __end_of_LCD_8bitCodeNoWait:
  2622                           	callstack 0
  2623                           
  2624 ;; *************** function _LCD_4bitCode *****************
  2625 ;; Defined at:
  2626 ;;		line 70 in file "LCD-library/LCD-library.c"
  2627 ;; Parameters:    Size  Location     Type
  2628 ;;  code            2    5[BANK1 ] int 
  2629 ;; Auto vars:     Size  Location     Type
  2630 ;;		None
  2631 ;; Return value:  Size  Location     Type
  2632 ;;                  1    wreg      void 
  2633 ;; Registers used:
  2634 ;;		wreg, status,2, status,0, cstack
  2635 ;; Tracked objects:
  2636 ;;		On entry : 0/0
  2637 ;;		On exit  : 0/0
  2638 ;;		Unchanged: 0/0
  2639 ;; Data sizes:     COMRAM   BANK0   BANK1   BANK2   BANK3   BANK4   BANK5   BANK6   BANK7   BANK8   BANK9  BANK10  BANK1
      +1  BANK12  BANK13  BANK14  BANK15
  2640 ;;      Params:         0       0       2       0       0       0       0       0       0       0       0       0       
      +0       0       0       0       0
  2641 ;;      Locals:         0       0       0       0       0       0       0       0       0       0       0       0       
      +0       0       0       0       0
  2642 ;;      Temps:          0       0       0       0       0       0       0       0       0       0       0       0       
      +0       0       0       0       0
  2643 ;;      Totals:         0       0       2       0       0       0       0       0       0       0       0       0       
      +0       0       0       0       0
  2644 ;;Total ram usage:        2 bytes
  2645 ;; Hardware stack levels used: 1
  2646 ;; Hardware stack levels required when called: 12
  2647 ;; This function calls:
  2648 ;;		_LCD_4bitCodeNoWait
  2649 ;;		_LCD_Wait
  2650 ;; This function is called by:
  2651 ;;		_LCD_Code
  2652 ;;		_LCD_Init
  2653 ;; This function uses a non-reentrant model
  2654 ;;
  2655                           
  2656                           	psect	text17
  2657   004F44                     __ptext17:
  2658                           	callstack 0
  2659   004F44                     _LCD_4bitCode:
  2660                           	callstack 15
  2661   004F44                     
  2662                           ;LCD-library/LCD-library.c: 71:     LCD_4bitCodeNoWait(code);
  2663   004F44  C191  F18C         	movff	LCD_4bitCode@code,LCD_4bitCodeNoWait@code
  2664   004F48  C192  F18D         	movff	LCD_4bitCode@code+1,LCD_4bitCodeNoWait@code+1
  2665   004F4C  EC81  F023         	call	_LCD_4bitCodeNoWait	;wreg free
  2666                           
  2667                           ;LCD-library/LCD-library.c: 72:     LCD_Wait();
  2668   004F50  ECBD  F027         	call	_LCD_Wait	;wreg free
  2669   004F54  0012               	return		;funcret
  2670   004F56                     __end_of_LCD_4bitCode:
  2671                           	callstack 0
  2672                           
  2673 ;; *************** function _LCD_Wait *****************
  2674 ;; Defined at:
  2675 ;;		line 11 in file "LCD-library/LCD-library.c"
  2676 ;; Parameters:    Size  Location     Type
  2677 ;;		None
  2678 ;; Auto vars:     Size  Location     Type
  2679 ;;		None
  2680 ;; Return value:  Size  Location     Type
  2681 ;;                  1    wreg      void 
  2682 ;; Registers used:
  2683 ;;		wreg, status,2, status,0, cstack
  2684 ;; Tracked objects:
  2685 ;;		On entry : 0/0
  2686 ;;		On exit  : 0/0
  2687 ;;		Unchanged: 0/0
  2688 ;; Data sizes:     COMRAM   BANK0   BANK1   BANK2   BANK3   BANK4   BANK5   BANK6   BANK7   BANK8   BANK9  BANK10  BANK1
      +1  BANK12  BANK13  BANK14  BANK15
  2689 ;;      Params:         0       0       0       0       0       0       0       0       0       0       0       0       
      +0       0       0       0       0
  2690 ;;      Locals:         0       0       0       0       0       0       0       0       0       0       0       0       
      +0       0       0       0       0
  2691 ;;      Temps:          0       0       0       0       0       0       0       0       0       0       0       0       
      +0       0       0       0       0
  2692 ;;      Totals:         0       0       0       0       0       0       0       0       0       0       0       0       
      +0       0       0       0       0
  2693 ;;Total ram usage:        0 bytes
  2694 ;; Hardware stack levels used: 1
  2695 ;; Hardware stack levels required when called: 11
  2696 ;; This function calls:
  2697 ;;		___delay
  2698 ;;		__delay_us
  2699 ;; This function is called by:
  2700 ;;		_LCD_8bitCode
  2701 ;;		_LCD_4bitCode
  2702 ;; This function uses a non-reentrant model
  2703 ;;
  2704                           
  2705                           	psect	text18
  2706   004F7A                     __ptext18:
  2707                           	callstack 0
  2708   004F7A                     _LCD_Wait:
  2709                           	callstack 15
  2710   004F7A  0E01               	movlw	1
  2711   004F7C  0101               	movlb	1	; () banked
  2712   004F7E  6F8D               	movwf	(__delay_us@us+1)& (0+255),b
  2713   004F80  0EF4               	movlw	244
  2714   004F82  6F8C               	movwf	__delay_us@us& (0+255),b
  2715   004F84  EC71  F026         	call	__delay_us	;wreg free
  2716   004F88  0012               	return		;funcret
  2717   004F8A                     __end_of_LCD_Wait:
  2718                           	callstack 0
  2719                           
  2720 ;; *************** function __delay_us *****************
  2721 ;; Defined at:
  2722 ;;		line 7 in file "LCD-library/LCD-library.c"
  2723 ;; Parameters:    Size  Location     Type
  2724 ;;  us              2    0[BANK1 ] int 
  2725 ;; Auto vars:     Size  Location     Type
  2726 ;;  i               2    3[BANK1 ] int 
  2727 ;; Return value:  Size  Location     Type
  2728 ;;                  1    wreg      void 
  2729 ;; Registers used:
  2730 ;;		wreg, status,2, status,0
  2731 ;; Tracked objects:
  2732 ;;		On entry : 0/0
  2733 ;;		On exit  : 0/0
  2734 ;;		Unchanged: 0/0
  2735 ;; Data sizes:     COMRAM   BANK0   BANK1   BANK2   BANK3   BANK4   BANK5   BANK6   BANK7   BANK8   BANK9  BANK10  BANK1
      +1  BANK12  BANK13  BANK14  BANK15
  2736 ;;      Params:         0       0       2       0       0       0       0       0       0       0       0       0       
      +0       0       0       0       0
  2737 ;;      Locals:         0       0       2       0       0       0       0       0       0       0       0       0       
      +0       0       0       0       0
  2738 ;;      Temps:          0       0       1       0       0       0       0       0       0       0       0       0       
      +0       0       0       0       0
  2739 ;;      Totals:         0       0       5       0       0       0       0       0       0       0       0       0       
      +0       0       0       0       0
  2740 ;;Total ram usage:        5 bytes
  2741 ;; Hardware stack levels used: 1
  2742 ;; Hardware stack levels required when called: 10
  2743 ;; This function calls:
  2744 ;;		Nothing
  2745 ;; This function is called by:
  2746 ;;		_LCD_Wait
  2747 ;;		_LCD_Init
  2748 ;; This function uses a non-reentrant model
  2749 ;;
  2750                           
  2751                           	psect	text19
  2752   004CE2                     __ptext19:
  2753                           	callstack 0
  2754   004CE2                     __delay_us:
  2755                           	callstack 19
  2756   004CE2  0E00               	movlw	0
  2757   004CE4  0101               	movlb	1	; () banked
  2758   004CE6  6F90               	movwf	(__delay_us@i+1)& (0+255),b
  2759   004CE8  0E00               	movlw	0
  2760   004CEA  6F8F               	movwf	__delay_us@i& (0+255),b
  2761   004CEC  EF7E  F026         	goto	l3888
  2762   004CF0                     l50:
  2763                           
  2764                           ; BSR set to: 1
  2765   004CF0  D000               	nop2		;2 cycle nop
  2766   004CF2  D000               	nop2		;2 cycle nop
  2767   004CF4  D000               	nop2		;2 cycle nop
  2768   004CF6  0101               	movlb	1	; () banked
  2769   004CF8  4B8F               	infsnz	__delay_us@i& (0+255),f,b
  2770   004CFA  2B90               	incf	(__delay_us@i+1)& (0+255),f,b
  2771   004CFC                     l3888:
  2772                           
  2773                           ; BSR set to: 1
  2774   004CFC  518C               	movf	__delay_us@us& (0+255),w,b
  2775   004CFE  5D8F               	subwf	__delay_us@i& (0+255),w,b
  2776   004D00  5190               	movf	(__delay_us@i+1)& (0+255),w,b
  2777   004D02  0A80               	xorlw	128
  2778   004D04  6F8E               	movwf	??__delay_us& (0+255),b
  2779   004D06  518D               	movf	(__delay_us@us+1)& (0+255),w,b
  2780   004D08  0A80               	xorlw	128
  2781   004D0A  598E               	subwfb	??__delay_us& (0+255),w,b
  2782   004D0C  A0D8               	btfss	status,0,c
  2783   004D0E  EF8B  F026         	goto	u3341
  2784   004D12  EF8D  F026         	goto	u3340
  2785   004D16                     u3341:
  2786   004D16  EF78  F026         	goto	l50
  2787   004D1A                     u3340:
  2788   004D1A                     
  2789                           ; BSR set to: 1
  2790   004D1A  0012               	return		;funcret
  2791   004D1C                     __end_of__delay_us:
  2792                           	callstack 0
  2793                           
  2794 ;; *************** function ___delay *****************
  2795 ;; Defined at:
  2796 ;;		line 6 in file "LCD-library/LCD-library.c"
  2797 ;; Parameters:    Size  Location     Type
  2798 ;;  time            2    0[BANK1 ] int 
  2799 ;; Auto vars:     Size  Location     Type
  2800 ;;  i               2    3[BANK1 ] int 
  2801 ;; Return value:  Size  Location     Type
  2802 ;;                  1    wreg      void 
  2803 ;; Registers used:
  2804 ;;		wreg, status,2, status,0
  2805 ;; Tracked objects:
  2806 ;;		On entry : 0/0
  2807 ;;		On exit  : 0/0
  2808 ;;		Unchanged: 0/0
  2809 ;; Data sizes:     COMRAM   BANK0   BANK1   BANK2   BANK3   BANK4   BANK5   BANK6   BANK7   BANK8   BANK9  BANK10  BANK1
      +1  BANK12  BANK13  BANK14  BANK15
  2810 ;;      Params:         0       0       2       0       0       0       0       0       0       0       0       0       
      +0       0       0       0       0
  2811 ;;      Locals:         0       0       2       0       0       0       0       0       0       0       0       0       
      +0       0       0       0       0
  2812 ;;      Temps:          0       0       1       0       0       0       0       0       0       0       0       0       
      +0       0       0       0       0
  2813 ;;      Totals:         0       0       5       0       0       0       0       0       0       0       0       0       
      +0       0       0       0       0
  2814 ;;Total ram usage:        5 bytes
  2815 ;; Hardware stack levels used: 1
  2816 ;; Hardware stack levels required when called: 10
  2817 ;; This function calls:
  2818 ;;		Nothing
  2819 ;; This function is called by:
  2820 ;;		_LCD_Wait
  2821 ;; This function uses a non-reentrant model
  2822 ;;
  2823                           
  2824                           	psect	text20
  2825   004DFA                     __ptext20:
  2826                           	callstack 0
  2827   004DFA                     ___delay:
  2828                           	callstack 15
  2829   004DFA  0E00               	movlw	0
  2830   004DFC  0101               	movlb	1	; () banked
  2831   004DFE  6F90               	movwf	(___delay@i+1)& (0+255),b
  2832   004E00  0E00               	movlw	0
  2833   004E02  6F8F               	movwf	___delay@i& (0+255),b
  2834   004E04  EF06  F027         	goto	l3882
  2835   004E08                     l3880:
  2836                           
  2837                           ; BSR set to: 1
  2838   004E08  4B8F               	infsnz	___delay@i& (0+255),f,b
  2839   004E0A  2B90               	incf	(___delay@i+1)& (0+255),f,b
  2840   004E0C                     l3882:
  2841                           
  2842                           ; BSR set to: 1
  2843   004E0C  518C               	movf	___delay@time& (0+255),w,b
  2844   004E0E  5D8F               	subwf	___delay@i& (0+255),w,b
  2845   004E10  5190               	movf	(___delay@i+1)& (0+255),w,b
  2846   004E12  0A80               	xorlw	128
  2847   004E14  6F8E               	movwf	??___delay& (0+255),b
  2848   004E16  518D               	movf	(___delay@time+1)& (0+255),w,b
  2849   004E18  0A80               	xorlw	128
  2850   004E1A  598E               	subwfb	??___delay& (0+255),w,b
  2851   004E1C  A0D8               	btfss	status,0,c
  2852   004E1E  EF13  F027         	goto	u3331
  2853   004E22  EF15  F027         	goto	u3330
  2854   004E26                     u3331:
  2855   004E26  EF04  F027         	goto	l3880
  2856   004E2A                     u3330:
  2857   004E2A                     
  2858                           ; BSR set to: 1
  2859   004E2A  0012               	return		;funcret
  2860   004E2C                     __end_of___delay:
  2861                           	callstack 0
  2862                           
  2863 ;; *************** function _LCD_4bitCodeNoWait *****************
  2864 ;; Defined at:
  2865 ;;		line 62 in file "LCD-library/LCD-library.c"
  2866 ;; Parameters:    Size  Location     Type
  2867 ;;  code            2    0[BANK1 ] int 
  2868 ;; Auto vars:     Size  Location     Type
  2869 ;;		None
  2870 ;; Return value:  Size  Location     Type
  2871 ;;                  1    wreg      void 
  2872 ;; Registers used:
  2873 ;;		wreg, status,2, status,0
  2874 ;; Tracked objects:
  2875 ;;		On entry : 0/0
  2876 ;;		On exit  : 0/0
  2877 ;;		Unchanged: 0/0
  2878 ;; Data sizes:     COMRAM   BANK0   BANK1   BANK2   BANK3   BANK4   BANK5   BANK6   BANK7   BANK8   BANK9  BANK10  BANK1
      +1  BANK12  BANK13  BANK14  BANK15
  2879 ;;      Params:         0       0       2       0       0       0       0       0       0       0       0       0       
      +0       0       0       0       0
  2880 ;;      Locals:         0       0       0       0       0       0       0       0       0       0       0       0       
      +0       0       0       0       0
  2881 ;;      Temps:          0       0       3       0       0       0       0       0       0       0       0       0       
      +0       0       0       0       0
  2882 ;;      Totals:         0       0       5       0       0       0       0       0       0       0       0       0       
      +0       0       0       0       0
  2883 ;;Total ram usage:        5 bytes
  2884 ;; Hardware stack levels used: 1
  2885 ;; Hardware stack levels required when called: 10
  2886 ;; This function calls:
  2887 ;;		Nothing
  2888 ;; This function is called by:
  2889 ;;		_LCD_4bitCode
  2890 ;;		_LCD_Init
  2891 ;; This function uses a non-reentrant model
  2892 ;;
  2893                           
  2894                           	psect	text21
  2895   004702                     __ptext21:
  2896                           	callstack 0
  2897   004702                     _LCD_4bitCodeNoWait:
  2898                           	callstack 16
  2899   004702                     
  2900                           ;LCD-library/LCD-library.c: 63:     PORTHbits.RH2 = (code & 0b100000) >> 5;
  2901   004702  C18C  F18E         	movff	LCD_4bitCodeNoWait@code,??_LCD_4bitCodeNoWait
  2902   004706  C18D  F18F         	movff	LCD_4bitCodeNoWait@code+1,??_LCD_4bitCodeNoWait+1
  2903   00470A  0E05               	movlw	5
  2904   00470C  0101               	movlb	1	; () banked
  2905   00470E  6F90               	movwf	(??_LCD_4bitCodeNoWait+2)& (0+255),b
  2906   004710                     u4295:
  2907   004710  358F               	rlcf	(??_LCD_4bitCodeNoWait+1)& (0+255),w,b
  2908   004712  338F               	rrcf	(??_LCD_4bitCodeNoWait+1)& (0+255),f,b
  2909   004714  338E               	rrcf	??_LCD_4bitCodeNoWait& (0+255),f,b
  2910   004716  2F90               	decfsz	(??_LCD_4bitCodeNoWait+2)& (0+255),f,b
  2911   004718  EF88  F023         	goto	u4295
  2912   00471C  0E01               	movlw	1
  2913   00471E  178E               	andwf	??_LCD_4bitCodeNoWait& (0+255),f,b
  2914   004720  478E               	rlncf	??_LCD_4bitCodeNoWait& (0+255),f,b
  2915   004722  478E               	rlncf	??_LCD_4bitCodeNoWait& (0+255),f,b
  2916   004724  5087               	movf	135,w,c	;volatile
  2917   004726  198E               	xorwf	??_LCD_4bitCodeNoWait& (0+255),w,b
  2918   004728  0BFB               	andlw	-5
  2919   00472A  198E               	xorwf	??_LCD_4bitCodeNoWait& (0+255),w,b
  2920   00472C  6E87               	movwf	135,c	;volatile
  2921                           
  2922                           ;LCD-library/LCD-library.c: 64:     PORTHbits.RH1 = (code & 0b010000) >> 4;
  2923   00472E  C18C  F18E         	movff	LCD_4bitCodeNoWait@code,??_LCD_4bitCodeNoWait
  2924   004732  C18D  F18F         	movff	LCD_4bitCodeNoWait@code+1,??_LCD_4bitCodeNoWait+1
  2925   004736  0E04               	movlw	4
  2926   004738  6F90               	movwf	(??_LCD_4bitCodeNoWait+2)& (0+255),b
  2927   00473A                     u4305:
  2928   00473A  358F               	rlcf	(??_LCD_4bitCodeNoWait+1)& (0+255),w,b
  2929   00473C  338F               	rrcf	(??_LCD_4bitCodeNoWait+1)& (0+255),f,b
  2930   00473E  338E               	rrcf	??_LCD_4bitCodeNoWait& (0+255),f,b
  2931   004740  2F90               	decfsz	(??_LCD_4bitCodeNoWait+2)& (0+255),f,b
  2932   004742  EF9D  F023         	goto	u4305
  2933   004746  0E01               	movlw	1
  2934   004748  178E               	andwf	??_LCD_4bitCodeNoWait& (0+255),f,b
  2935   00474A  478E               	rlncf	??_LCD_4bitCodeNoWait& (0+255),f,b
  2936   00474C  5087               	movf	135,w,c	;volatile
  2937   00474E  198E               	xorwf	??_LCD_4bitCodeNoWait& (0+255),w,b
  2938   004750  0BFD               	andlw	-3
  2939   004752  198E               	xorwf	??_LCD_4bitCodeNoWait& (0+255),w,b
  2940   004754  6E87               	movwf	135,c	;volatile
  2941                           
  2942                           ;LCD-library/LCD-library.c: 65:     PORTE &= 0b00001111;
  2943   004756  0E0F               	movlw	15
  2944   004758  1684               	andwf	132,f,c	;volatile
  2945                           
  2946                           ;LCD-library/LCD-library.c: 66:     PORTE |= (code & 0b001111) << 4;
  2947   00475A  C18C  F18E         	movff	LCD_4bitCodeNoWait@code,??_LCD_4bitCodeNoWait	;volatile
  2948   00475E  0E0F               	movlw	15
  2949   004760  178E               	andwf	??_LCD_4bitCodeNoWait& (0+255),f,b
  2950   004762  398E               	swapf	??_LCD_4bitCodeNoWait& (0+255),w,b
  2951   004764  0BF0               	andlw	240
  2952   004766  1284               	iorwf	132,f,c	;volatile
  2953   004768                     
  2954                           ; BSR set to: 1
  2955                           ;LCD-library/LCD-library.c: 67:     PORTHbits.RH0 = 1;
  2956   004768  8087               	bsf	135,0,c	;volatile
  2957   00476A                     
  2958                           ; BSR set to: 1
  2959                           ;LCD-library/LCD-library.c: 68:     PORTHbits.RH0 = 0;
  2960   00476A  9087               	bcf	135,0,c	;volatile
  2961   00476C                     
  2962                           ; BSR set to: 1
  2963   00476C  0012               	return		;funcret
  2964   00476E                     __end_of_LCD_4bitCodeNoWait:
  2965                           	callstack 0
  2966                           
  2967 ;; *************** function _INTERRUPT_InterruptManager *****************
  2968 ;; Defined at:
  2969 ;;		line 58 in file "mcc_generated_files/interrupt_manager.c"
  2970 ;; Parameters:    Size  Location     Type
  2971 ;;		None
  2972 ;; Auto vars:     Size  Location     Type
  2973 ;;		None
  2974 ;; Return value:  Size  Location     Type
  2975 ;;                  1    wreg      void 
  2976 ;; Registers used:
  2977 ;;		wreg, fsr1l, fsr1h, fsr2l, fsr2h, status,2, status,0, pcl, pclath, pclatu, tosl, tblptrl, tblptrh, tblptru, prodl, p
      +rodh, cstack
  2978 ;; Tracked objects:
  2979 ;;		On entry : 0/0
  2980 ;;		On exit  : 0/0
  2981 ;;		Unchanged: 0/0
  2982 ;; Data sizes:     COMRAM   BANK0   BANK1   BANK2   BANK3   BANK4   BANK5   BANK6   BANK7   BANK8   BANK9  BANK10  BANK1
      +1  BANK12  BANK13  BANK14  BANK15
  2983 ;;      Params:         0       0       0       0       0       0       0       0       0       0       0       0       
      +0       0       0       0       0
  2984 ;;      Locals:         0       0       0       0       0       0       0       0       0       0       0       0       
      +0       0       0       0       0
  2985 ;;      Temps:          0      12       0       0       0       0       0       0       0       0       0       0       
      +0       0       0       0       0
  2986 ;;      Totals:         0      12       0       0       0       0       0       0       0       0       0       0       
      +0       0       0       0       0
  2987 ;;Total ram usage:       12 bytes
  2988 ;; Hardware stack levels used: 1
  2989 ;; Hardware stack levels required when called: 9
  2990 ;; This function calls:
  2991 ;;		NULL
  2992 ;;		_HandleInterrupt
  2993 ;; This function is called by:
  2994 ;;		Interrupt level 2
  2995 ;; This function uses a non-reentrant model
  2996 ;;
  2997                           
  2998                           	psect	intcode
  2999   000008                     __pintcode:
  3000                           	callstack 0
  3001   000008                     _INTERRUPT_InterruptManager:
  3002                           	callstack 15
  3003                           
  3004                           ; BSR set to: 1
  3005                           ;incstack = 0
  3006   000008  825F               	bsf	int$flags,1,c	;set compiler interrupt flag (level 2)
  3007   00000A  CFFA F0DC          	movff	pclath,??_INTERRUPT_InterruptManager
  3008   00000E  CFFB F0DD          	movff	pclatu,??_INTERRUPT_InterruptManager+1
  3009   000012  CFE1 F0DE          	movff	fsr1l,??_INTERRUPT_InterruptManager+2
  3010   000016  CFE2 F0DF          	movff	fsr1h,??_INTERRUPT_InterruptManager+3
  3011   00001A  CFD9 F0E0          	movff	fsr2l,??_INTERRUPT_InterruptManager+4
  3012   00001E  CFDA F0E1          	movff	fsr2h,??_INTERRUPT_InterruptManager+5
  3013   000022  CFF3 F0E2          	movff	prodl,??_INTERRUPT_InterruptManager+6
  3014   000026  CFF4 F0E3          	movff	prodh,??_INTERRUPT_InterruptManager+7
  3015   00002A  CFF6 F0E4          	movff	tblptrl,??_INTERRUPT_InterruptManager+8
  3016   00002E  CFF7 F0E5          	movff	tblptrh,??_INTERRUPT_InterruptManager+9
  3017   000032  CFF8 F0E6          	movff	tblptru,??_INTERRUPT_InterruptManager+10
  3018   000036  CFF5 F0E7          	movff	tablat,??_INTERRUPT_InterruptManager+11
  3019   00003A                     
  3020                           ;mcc_generated_files/interrupt_manager.c: 61:     if(INTCONbits.PEIE == 1)
  3021   00003A  ACF2               	btfss	242,6,c	;volatile
  3022   00003C  EF22  F000         	goto	i2u561_41
  3023   000040  EF24  F000         	goto	i2u561_40
  3024   000044                     i2u561_41:
  3025   000044  EF40  F000         	goto	i2l477
  3026   000048                     i2u561_40:
  3027   000048                     
  3028                           ;mcc_generated_files/interrupt_manager.c: 62:     {;mcc_generated_files/interrupt_manage
      +                          r.c: 63:         if(PIE1bits.RC1IE == 1 && PIR1bits.RC1IF == 1)
  3029   000048  AA9D               	btfss	157,5,c	;volatile
  3030   00004A  EF29  F000         	goto	i2u562_41
  3031   00004E  EF2B  F000         	goto	i2u562_40
  3032   000052                     i2u562_41:
  3033   000052  EF40  F000         	goto	i2l477
  3034   000056                     i2u562_40:
  3035   000056  AA9E               	btfss	158,5,c	;volatile
  3036   000058  EF30  F000         	goto	i2u563_41
  3037   00005C  EF32  F000         	goto	i2u563_40
  3038   000060                     i2u563_41:
  3039   000060  EF40  F000         	goto	i2l477
  3040   000064                     i2u563_40:
  3041   000064                     
  3042                           ;mcc_generated_files/interrupt_manager.c: 64:         {;mcc_generated_files/interrupt_ma
      +                          nager.c: 65:             EUSART1_RxDefaultInterruptHandler();
  3043   000064  D802               	call	i2u564_48
  3044   000066  EF40  F000         	goto	i2u564_49
  3045   00006A                     i2u564_48:
  3046   00006A  0005               	push	
  3047   00006C  6EFA               	movwf	pclath,c
  3048   00006E  0101               	movlb	1	; () banked
  3049   000070  51AA               	movf	_EUSART1_RxDefaultInterruptHandler& (0+255),w,b
  3050   000072  6EFD               	movwf	tosl,c
  3051   000074  51AB               	movf	(_EUSART1_RxDefaultInterruptHandler+1)& (0+255),w,b
  3052   000076  6EFE               	movwf	tosh,c
  3053   000078  51AC               	movf	(_EUSART1_RxDefaultInterruptHandler+2)& (0+255),w,b
  3054   00007A  6EFF               	movwf	tosu,c
  3055   00007C  50FA               	movf	pclath,w,c
  3056   00007E  0012               	return		;indir
  3057   000080                     i2u564_49:
  3058   000080                     i2l477:
  3059   000080  C0E7  FFF5         	movff	??_INTERRUPT_InterruptManager+11,tablat
  3060   000084  C0E6  FFF8         	movff	??_INTERRUPT_InterruptManager+10,tblptru
  3061   000088  C0E5  FFF7         	movff	??_INTERRUPT_InterruptManager+9,tblptrh
  3062   00008C  C0E4  FFF6         	movff	??_INTERRUPT_InterruptManager+8,tblptrl
  3063   000090  C0E3  FFF4         	movff	??_INTERRUPT_InterruptManager+7,prodh
  3064   000094  C0E2  FFF3         	movff	??_INTERRUPT_InterruptManager+6,prodl
  3065   000098  C0E1  FFDA         	movff	??_INTERRUPT_InterruptManager+5,fsr2h
  3066   00009C  C0E0  FFD9         	movff	??_INTERRUPT_InterruptManager+4,fsr2l
  3067   0000A0  C0DF  FFE2         	movff	??_INTERRUPT_InterruptManager+3,fsr1h
  3068   0000A4  C0DE  FFE1         	movff	??_INTERRUPT_InterruptManager+2,fsr1l
  3069   0000A8  C0DD  FFFB         	movff	??_INTERRUPT_InterruptManager+1,pclatu
  3070   0000AC  C0DC  FFFA         	movff	??_INTERRUPT_InterruptManager,pclath
  3071   0000B0  925F               	bcf	int$flags,1,c	;clear compiler interrupt flag (level 2)
  3072   0000B2  0011               	retfie		f
  3073   0000B4                     __end_of_INTERRUPT_InterruptManager:
  3074                           	callstack 0
  3075                           
  3076 ;; *************** function _HandleInterrupt *****************
  3077 ;; Defined at:
  3078 ;;		line 84 in file "mcc_generated_files/eusart1.c"
  3079 ;; Parameters:    Size  Location     Type
  3080 ;;		None
  3081 ;; Auto vars:     Size  Location     Type
  3082 ;;  i               2  120[BANK0 ] int 
  3083 ;;  i               2  118[BANK0 ] int 
  3084 ;;  temperature     6   91[BANK0 ] unsigned char [6]
  3085 ;;  potValue        5   97[BANK0 ] unsigned char [5]
  3086 ;;  len             1  123[BANK0 ] unsigned char 
  3087 ;;  received        1  122[BANK0 ] unsigned char 
  3088 ;; Return value:  Size  Location     Type
  3089 ;;                  1    wreg      void 
  3090 ;; Registers used:
  3091 ;;		wreg, fsr1l, fsr1h, fsr2l, fsr2h, status,2, status,0, pcl, pclath, pclatu, tosl, tblptrl, tblptrh, tblptru, prodl, p
      +rodh, cstack
  3092 ;; Tracked objects:
  3093 ;;		On entry : 0/0
  3094 ;;		On exit  : 0/0
  3095 ;;		Unchanged: 0/0
  3096 ;; Data sizes:     COMRAM   BANK0   BANK1   BANK2   BANK3   BANK4   BANK5   BANK6   BANK7   BANK8   BANK9  BANK10  BANK1
      +1  BANK12  BANK13  BANK14  BANK15
  3097 ;;      Params:         0       0       0       0       0       0       0       0       0       0       0       0       
      +0       0       0       0       0
  3098 ;;      Locals:         0      33       0       0       0       0       0       0       0       0       0       0       
      +0       0       0       0       0
  3099 ;;      Temps:          0       3       0       0       0       0       0       0       0       0       0       0       
      +0       0       0       0       0
  3100 ;;      Totals:         0      36       0       0       0       0       0       0       0       0       0       0       
      +0       0       0       0       0
  3101 ;;Total ram usage:       36 bytes
  3102 ;; Hardware stack levels used: 1
  3103 ;; Hardware stack levels required when called: 8
  3104 ;; This function calls:
  3105 ;;		_ADC_GetConversion
  3106 ;;		_EUSART1_Read
  3107 ;;		_EUSART1_Receive_ISR
  3108 ;;		_EUSART1_Write
  3109 ;;		_LCD_Clear
  3110 ;;		_LCD_PrintStr
  3111 ;;		___fladd
  3112 ;;		___fldiv
  3113 ;;		___xxtofl
  3114 ;;		_logf
  3115 ;;		_sprintf
  3116 ;;		_strlen
  3117 ;; This function is called by:
  3118 ;;		_EUSART1_Initialize
  3119 ;;		_INTERRUPT_InterruptManager
  3120 ;; This function uses a non-reentrant model
  3121 ;;
  3122                           
  3123                           	psect	text23
  3124   002A54                     __ptext23:
  3125                           	callstack 0
  3126   002A54                     _HandleInterrupt:
  3127                           	callstack 15
  3128   002A54                     
  3129                           ;mcc_generated_files/eusart1.c: 85:     EUSART1_Receive_ISR();
  3130   002A54  ECC0  F021         	call	_EUSART1_Receive_ISR	;wreg free
  3131   002A58                     
  3132                           ;mcc_generated_files/eusart1.c: 86:     char received = EUSART1_Read();
  3133   002A58  EC77  F024         	call	_EUSART1_Read	;wreg free
  3134   002A5C  0100               	movlb	0	; () banked
  3135   002A5E  6FDA               	movwf	HandleInterrupt@received& (0+255),b
  3136   002A60                     
  3137                           ; BSR set to: 0
  3138                           ;mcc_generated_files/eusart1.c: 87:     if (received == '\r' || len == 34){
  3139   002A60  0E0D               	movlw	13
  3140   002A62  19DA               	xorwf	HandleInterrupt@received& (0+255),w,b
  3141   002A64  B4D8               	btfsc	status,2,c
  3142   002A66  EF37  F015         	goto	i2u535_41
  3143   002A6A  EF39  F015         	goto	i2u535_40
  3144   002A6E                     i2u535_41:
  3145   002A6E  EF42  F015         	goto	i2l5334
  3146   002A72                     i2u535_40:
  3147   002A72                     
  3148                           ; BSR set to: 0
  3149   002A72  0E22               	movlw	34
  3150   002A74  19FB               	xorwf	_len& (0+255),w,b
  3151   002A76  A4D8               	btfss	status,2,c
  3152   002A78  EF40  F015         	goto	i2u536_41
  3153   002A7C  EF42  F015         	goto	i2u536_40
  3154   002A80                     i2u536_41:
  3155   002A80  EF00  F017         	goto	i2l5400
  3156   002A84                     i2u536_40:
  3157   002A84                     i2l5334:
  3158                           
  3159                           ; BSR set to: 0
  3160                           ;mcc_generated_files/eusart1.c: 88:         if (command[0] == 1){
  3161   002A84  0101               	movlb	1	; () banked
  3162   002A86  056A               	decf	_command& (0+255),w,b
  3163   002A88  A4D8               	btfss	status,2,c
  3164   002A8A  EF49  F015         	goto	i2u537_41
  3165   002A8E  EF4B  F015         	goto	i2u537_40
  3166   002A92                     i2u537_41:
  3167   002A92  EF7E  F016         	goto	i2l5376
  3168   002A96                     i2u537_40:
  3169   002A96                     
  3170                           ; BSR set to: 1
  3171                           ;mcc_generated_files/eusart1.c: 90:             EUSART1_Write(PORTBbits.RB3);
  3172   002A96  B681               	btfsc	129,3,c	;volatile
  3173   002A98  EF50  F015         	goto	i2u538_41
  3174   002A9C  EF53  F015         	goto	i2u538_40
  3175   002AA0                     i2u538_41:
  3176   002AA0  0E01               	movlw	1
  3177   002AA2  EF54  F015         	goto	i2u538_46
  3178   002AA6                     i2u538_40:
  3179   002AA6  0E00               	movlw	0
  3180   002AA8                     i2u538_46:
  3181   002AA8  EC8E  F027         	call	_EUSART1_Write
  3182                           
  3183                           ;mcc_generated_files/eusart1.c: 91:             EUSART1_Write(' ');
  3184   002AAC  0E20               	movlw	32
  3185   002AAE  EC8E  F027         	call	_EUSART1_Write
  3186                           
  3187                           ;mcc_generated_files/eusart1.c: 92:             EUSART1_Write(PORTBbits.RB1);
  3188   002AB2  B281               	btfsc	129,1,c	;volatile
  3189   002AB4  EF5E  F015         	goto	i2u539_41
  3190   002AB8  EF61  F015         	goto	i2u539_40
  3191   002ABC                     i2u539_41:
  3192   002ABC  0E01               	movlw	1
  3193   002ABE  EF62  F015         	goto	i2u539_46
  3194   002AC2                     i2u539_40:
  3195   002AC2  0E00               	movlw	0
  3196   002AC4                     i2u539_46:
  3197   002AC4  EC8E  F027         	call	_EUSART1_Write
  3198                           
  3199                           ;mcc_generated_files/eusart1.c: 93:             EUSART1_Write(' ');
  3200   002AC8  0E20               	movlw	32
  3201   002ACA  EC8E  F027         	call	_EUSART1_Write
  3202   002ACE                     
  3203                           ;mcc_generated_files/eusart1.c: 94:             char potValue[5];;mcc_generated_files/eu
      +                          sart1.c: 95:             sprintf(potValue, "%d", ADC_GetConversion(Potentiometer));
  3204   002ACE  0EC1               	movlw	low HandleInterrupt@potValue
  3205   002AD0  0100               	movlb	0	; () banked
  3206   002AD2  6FA2               	movwf	sprintf@s& (0+255),b
  3207   002AD4  0E00               	movlw	high HandleInterrupt@potValue
  3208   002AD6  6FA3               	movwf	(sprintf@s+1)& (0+255),b
  3209   002AD8  0E26               	movlw	low STR_1
  3210   002ADA  6FA4               	movwf	sprintf@fmt& (0+255),b
  3211   002ADC  0E10               	movlw	high STR_1
  3212   002ADE  6FA5               	movwf	(sprintf@fmt+1)& (0+255),b
  3213   002AE0  0E02               	movlw	2
  3214   002AE2  EC8E  F026         	call	_ADC_GetConversion
  3215   002AE6  C001  F0A6         	movff	?_ADC_GetConversion,?_sprintf+4
  3216   002AEA  C002  F0A7         	movff	?_ADC_GetConversion+1,?_sprintf+5
  3217   002AEE  ECC8  F024         	call	_sprintf	;wreg free
  3218   002AF2                     
  3219                           ;mcc_generated_files/eusart1.c: 96:             uint8_t len = strlen(potValue);
  3220   002AF2  0EC1               	movlw	low HandleInterrupt@potValue
  3221   002AF4  6E01               	movwf	strlen@s^0,c
  3222   002AF6  0E00               	movlw	high HandleInterrupt@potValue
  3223   002AF8  6E02               	movwf	(strlen@s+1)^0,c
  3224   002AFA  ECC7  F026         	call	_strlen	;wreg free
  3225   002AFE  5001               	movf	?_strlen^0,w,c
  3226   002B00  0100               	movlb	0	; () banked
  3227   002B02  6FDB               	movwf	HandleInterrupt@len& (0+255),b
  3228   002B04                     
  3229                           ; BSR set to: 0
  3230                           ;mcc_generated_files/eusart1.c: 97:             for(int i = 0; i < len; i++){
  3231   002B04  0E00               	movlw	0
  3232   002B06  6FD7               	movwf	(HandleInterrupt@i+1)& (0+255),b
  3233   002B08  0E00               	movlw	0
  3234   002B0A  6FD6               	movwf	HandleInterrupt@i& (0+255),b
  3235   002B0C  EF94  F015         	goto	i2l5350
  3236   002B10                     i2l5346:
  3237                           
  3238                           ; BSR set to: 0
  3239                           ;mcc_generated_files/eusart1.c: 98:                 EUSART1_Write(potValue[i]);
  3240   002B10  0EC1               	movlw	low HandleInterrupt@potValue
  3241   002B12  25D6               	addwf	HandleInterrupt@i& (0+255),w,b
  3242   002B14  6ED9               	movwf	fsr2l,c
  3243   002B16  0E00               	movlw	high HandleInterrupt@potValue
  3244   002B18  21D7               	addwfc	(HandleInterrupt@i+1)& (0+255),w,b
  3245   002B1A  6EDA               	movwf	fsr2h,c
  3246   002B1C  50DF               	movf	indf2,w,c
  3247   002B1E  EC8E  F027         	call	_EUSART1_Write
  3248   002B22                     
  3249                           ;mcc_generated_files/eusart1.c: 99:             }
  3250   002B22  0100               	movlb	0	; () banked
  3251   002B24  4BD6               	infsnz	HandleInterrupt@i& (0+255),f,b
  3252   002B26  2BD7               	incf	(HandleInterrupt@i+1)& (0+255),f,b
  3253   002B28                     i2l5350:
  3254                           
  3255                           ; BSR set to: 0
  3256   002B28  51DB               	movf	HandleInterrupt@len& (0+255),w,b
  3257   002B2A  6FB8               	movwf	??_HandleInterrupt& (0+255),b
  3258   002B2C  6BB9               	clrf	(??_HandleInterrupt+1)& (0+255),b
  3259   002B2E  51B8               	movf	??_HandleInterrupt& (0+255),w,b
  3260   002B30  5DD6               	subwf	HandleInterrupt@i& (0+255),w,b
  3261   002B32  51D7               	movf	(HandleInterrupt@i+1)& (0+255),w,b
  3262   002B34  0A80               	xorlw	128
  3263   002B36  6FBA               	movwf	(??_HandleInterrupt+2)& (0+255),b
  3264   002B38  51B9               	movf	(??_HandleInterrupt+1)& (0+255),w,b
  3265   002B3A  0A80               	xorlw	128
  3266   002B3C  59BA               	subwfb	(??_HandleInterrupt+2)& (0+255),w,b
  3267   002B3E  A0D8               	btfss	status,0,c
  3268   002B40  EFA4  F015         	goto	i2u540_41
  3269   002B44  EFA6  F015         	goto	i2u540_40
  3270   002B48                     i2u540_41:
  3271   002B48  EF88  F015         	goto	i2l5346
  3272   002B4C                     i2u540_40:
  3273   002B4C                     
  3274                           ; BSR set to: 0
  3275                           ;mcc_generated_files/eusart1.c: 100:             EUSART1_Write(' ');
  3276   002B4C  0E20               	movlw	32
  3277   002B4E  EC8E  F027         	call	_EUSART1_Write
  3278   002B52                     
  3279                           ;mcc_generated_files/eusart1.c: 101:             char temperature[6];;mcc_generated_file
      +                          s/eusart1.c: 102:             sprintf(temperature, "%.2f", 4100.0 / logf(((1024.0 * 1000
      +                          0.0) / ADC_GetConversion(Temperature) - 10000.0) / 0.0111182) - 273.15);
  3280   002B52  0E00               	movlw	0
  3281   002B54  6E37               	movwf	___fladd@a^0,c
  3282   002B56  0E40               	movlw	64
  3283   002B58  6E38               	movwf	(___fladd@a+1)^0,c
  3284   002B5A  0E1C               	movlw	28
  3285   002B5C  6E39               	movwf	(___fladd@a+2)^0,c
  3286   002B5E  0EC6               	movlw	198
  3287   002B60  6E3A               	movwf	(___fladd@a+3)^0,c
  3288   002B62  0E03               	movlw	3
  3289   002B64  EC8E  F026         	call	_ADC_GetConversion
  3290   002B68  C001  F006         	movff	?_ADC_GetConversion,___xxtofl@val
  3291   002B6C  C002  F007         	movff	?_ADC_GetConversion+1,___xxtofl@val+1
  3292   002B70  6A08               	clrf	(___xxtofl@val+2)^0,c
  3293   002B72  6A09               	clrf	(___xxtofl@val+3)^0,c
  3294   002B74  0E00               	movlw	0
  3295   002B76  EC79  F01B         	call	___xxtofl
  3296   002B7A  C006  F01E         	movff	?___xxtofl,___fldiv@a
  3297   002B7E  C007  F01F         	movff	?___xxtofl+1,___fldiv@a+1
  3298   002B82  C008  F020         	movff	?___xxtofl+2,___fldiv@a+2
  3299   002B86  C009  F021         	movff	?___xxtofl+3,___fldiv@a+3
  3300   002B8A  0E00               	movlw	0
  3301   002B8C  6E1A               	movwf	___fldiv@b^0,c
  3302   002B8E  0E40               	movlw	64
  3303   002B90  6E1B               	movwf	(___fldiv@b+1)^0,c
  3304   002B92  0E1C               	movlw	28
  3305   002B94  6E1C               	movwf	(___fldiv@b+2)^0,c
  3306   002B96  0E4B               	movlw	75
  3307   002B98  6E1D               	movwf	(___fldiv@b+3)^0,c
  3308   002B9A  EC0A  F017         	call	___fldiv	;wreg free
  3309   002B9E  C01A  F033         	movff	?___fldiv,___fladd@b
  3310   002BA2  C01B  F034         	movff	?___fldiv+1,___fladd@b+1
  3311   002BA6  C01C  F035         	movff	?___fldiv+2,___fladd@b+2
  3312   002BAA  C01D  F036         	movff	?___fldiv+3,___fladd@b+3
  3313   002BAE  ECB5  F010         	call	___fladd	;wreg free
  3314   002BB2  C033  F0C6         	movff	?___fladd,_HandleInterrupt$2530
  3315   002BB6  C034  F0C7         	movff	?___fladd+1,_HandleInterrupt$2530+1
  3316   002BBA  C035  F0C8         	movff	?___fladd+2,_HandleInterrupt$2530+2
  3317   002BBE  C036  F0C9         	movff	?___fladd+3,_HandleInterrupt$2530+3
  3318   002BC2                     
  3319                           ;mcc_generated_files/eusart1.c: 101:             char temperature[6];;mcc_generated_file
      +                          s/eusart1.c: 102:             sprintf(temperature, "%.2f", 4100.0 / logf(((1024.0 * 1000
      +                          0.0) / ADC_GetConversion(Temperature) - 10000.0) / 0.0111182) - 273.15);
  3320   002BC2  0E1C               	movlw	28
  3321   002BC4  6E1E               	movwf	___fldiv@a^0,c
  3322   002BC6  0E29               	movlw	41
  3323   002BC8  6E1F               	movwf	(___fldiv@a+1)^0,c
  3324   002BCA  0E36               	movlw	54
  3325   002BCC  6E20               	movwf	(___fldiv@a+2)^0,c
  3326   002BCE  0E3C               	movlw	60
  3327   002BD0  6E21               	movwf	(___fldiv@a+3)^0,c
  3328   002BD2  C0C6  F01A         	movff	_HandleInterrupt$2530,___fldiv@b
  3329   002BD6  C0C7  F01B         	movff	_HandleInterrupt$2530+1,___fldiv@b+1
  3330   002BDA  C0C8  F01C         	movff	_HandleInterrupt$2530+2,___fldiv@b+2
  3331   002BDE  C0C9  F01D         	movff	_HandleInterrupt$2530+3,___fldiv@b+3
  3332   002BE2  EC0A  F017         	call	___fldiv	;wreg free
  3333   002BE6  C01A  F0CA         	movff	?___fldiv,_HandleInterrupt$2531
  3334   002BEA  C01B  F0CB         	movff	?___fldiv+1,_HandleInterrupt$2531+1
  3335   002BEE  C01C  F0CC         	movff	?___fldiv+2,_HandleInterrupt$2531+2
  3336   002BF2  C01D  F0CD         	movff	?___fldiv+3,_HandleInterrupt$2531+3
  3337   002BF6                     
  3338                           ;mcc_generated_files/eusart1.c: 101:             char temperature[6];;mcc_generated_file
      +                          s/eusart1.c: 102:             sprintf(temperature, "%.2f", 4100.0 / logf(((1024.0 * 1000
      +                          0.0) / ADC_GetConversion(Temperature) - 10000.0) / 0.0111182) - 273.15);
  3339   002BF6  C0CA  F04B         	movff	_HandleInterrupt$2531,logf@x
  3340   002BFA  C0CB  F04C         	movff	_HandleInterrupt$2531+1,logf@x+1
  3341   002BFE  C0CC  F04D         	movff	_HandleInterrupt$2531+2,logf@x+2
  3342   002C02  C0CD  F04E         	movff	_HandleInterrupt$2531+3,logf@x+3
  3343   002C06  EC11  F00D         	call	_logf	;wreg free
  3344   002C0A  C04B  F0CE         	movff	?_logf,_HandleInterrupt$2532
  3345   002C0E  C04C  F0CF         	movff	?_logf+1,_HandleInterrupt$2532+1
  3346   002C12  C04D  F0D0         	movff	?_logf+2,_HandleInterrupt$2532+2
  3347   002C16  C04E  F0D1         	movff	?_logf+3,_HandleInterrupt$2532+3
  3348   002C1A                     
  3349                           ;mcc_generated_files/eusart1.c: 101:             char temperature[6];;mcc_generated_file
      +                          s/eusart1.c: 102:             sprintf(temperature, "%.2f", 4100.0 / logf(((1024.0 * 1000
      +                          0.0) / ADC_GetConversion(Temperature) - 10000.0) / 0.0111182) - 273.15);
  3350   002C1A  C0CE  F01E         	movff	_HandleInterrupt$2532,___fldiv@a
  3351   002C1E  C0CF  F01F         	movff	_HandleInterrupt$2532+1,___fldiv@a+1
  3352   002C22  C0D0  F020         	movff	_HandleInterrupt$2532+2,___fldiv@a+2
  3353   002C26  C0D1  F021         	movff	_HandleInterrupt$2532+3,___fldiv@a+3
  3354   002C2A  0E00               	movlw	0
  3355   002C2C  6E1A               	movwf	___fldiv@b^0,c
  3356   002C2E  0E20               	movlw	32
  3357   002C30  6E1B               	movwf	(___fldiv@b+1)^0,c
  3358   002C32  0E80               	movlw	128
  3359   002C34  6E1C               	movwf	(___fldiv@b+2)^0,c
  3360   002C36  0E45               	movlw	69
  3361   002C38  6E1D               	movwf	(___fldiv@b+3)^0,c
  3362   002C3A  EC0A  F017         	call	___fldiv	;wreg free
  3363   002C3E  C01A  F033         	movff	?___fldiv,___fladd@b
  3364   002C42  C01B  F034         	movff	?___fldiv+1,___fladd@b+1
  3365   002C46  C01C  F035         	movff	?___fldiv+2,___fladd@b+2
  3366   002C4A  C01D  F036         	movff	?___fldiv+3,___fladd@b+3
  3367   002C4E  0E33               	movlw	51
  3368   002C50  6E37               	movwf	___fladd@a^0,c
  3369   002C52  0E93               	movlw	147
  3370   002C54  6E38               	movwf	(___fladd@a+1)^0,c
  3371   002C56  0E88               	movlw	136
  3372   002C58  6E39               	movwf	(___fladd@a+2)^0,c
  3373   002C5A  0EC3               	movlw	195
  3374   002C5C  6E3A               	movwf	(___fladd@a+3)^0,c
  3375   002C5E  ECB5  F010         	call	___fladd	;wreg free
  3376   002C62  C033  F0D2         	movff	?___fladd,_HandleInterrupt$2533
  3377   002C66  C034  F0D3         	movff	?___fladd+1,_HandleInterrupt$2533+1
  3378   002C6A  C035  F0D4         	movff	?___fladd+2,_HandleInterrupt$2533+2
  3379   002C6E  C036  F0D5         	movff	?___fladd+3,_HandleInterrupt$2533+3
  3380   002C72                     
  3381                           ;mcc_generated_files/eusart1.c: 101:             char temperature[6];;mcc_generated_file
      +                          s/eusart1.c: 102:             sprintf(temperature, "%.2f", 4100.0 / logf(((1024.0 * 1000
      +                          0.0) / ADC_GetConversion(Temperature) - 10000.0) / 0.0111182) - 273.15);
  3382   002C72  0EBB               	movlw	low HandleInterrupt@temperature
  3383   002C74  0100               	movlb	0	; () banked
  3384   002C76  6FA2               	movwf	sprintf@s& (0+255),b
  3385   002C78  0E00               	movlw	high HandleInterrupt@temperature
  3386   002C7A  6FA3               	movwf	(sprintf@s+1)& (0+255),b
  3387   002C7C  0E19               	movlw	low STR_3
  3388   002C7E  6FA4               	movwf	sprintf@fmt& (0+255),b
  3389   002C80  0E10               	movlw	high STR_3
  3390   002C82  6FA5               	movwf	(sprintf@fmt+1)& (0+255),b
  3391   002C84  C0D2  F0A6         	movff	_HandleInterrupt$2533,?_sprintf+4
  3392   002C88  C0D3  F0A7         	movff	_HandleInterrupt$2533+1,?_sprintf+5
  3393   002C8C  C0D4  F0A8         	movff	_HandleInterrupt$2533+2,?_sprintf+6
  3394   002C90  C0D5  F0A9         	movff	_HandleInterrupt$2533+3,?_sprintf+7
  3395   002C94  ECC8  F024         	call	_sprintf	;wreg free
  3396   002C98                     
  3397                           ;mcc_generated_files/eusart1.c: 103:             len = strlen(temperature);
  3398   002C98  0EBB               	movlw	low HandleInterrupt@temperature
  3399   002C9A  6E01               	movwf	strlen@s^0,c
  3400   002C9C  0E00               	movlw	high HandleInterrupt@temperature
  3401   002C9E  6E02               	movwf	(strlen@s+1)^0,c
  3402   002CA0  ECC7  F026         	call	_strlen	;wreg free
  3403   002CA4  5001               	movf	?_strlen^0,w,c
  3404   002CA6  0100               	movlb	0	; () banked
  3405   002CA8  6FDB               	movwf	HandleInterrupt@len& (0+255),b
  3406   002CAA                     
  3407                           ; BSR set to: 0
  3408                           ;mcc_generated_files/eusart1.c: 104:             for(int i = 0; i < len; i++){
  3409   002CAA  0E00               	movlw	0
  3410   002CAC  6FD9               	movwf	(HandleInterrupt@i_1054+1)& (0+255),b
  3411   002CAE  0E00               	movlw	0
  3412   002CB0  6FD8               	movwf	HandleInterrupt@i_1054& (0+255),b
  3413   002CB2  EF67  F016         	goto	i2l5372
  3414   002CB6                     i2l5368:
  3415                           
  3416                           ; BSR set to: 0
  3417                           ;mcc_generated_files/eusart1.c: 105:                 EUSART1_Write(temperature[i]);
  3418   002CB6  0EBB               	movlw	low HandleInterrupt@temperature
  3419   002CB8  25D8               	addwf	HandleInterrupt@i_1054& (0+255),w,b
  3420   002CBA  6ED9               	movwf	fsr2l,c
  3421   002CBC  0E00               	movlw	high HandleInterrupt@temperature
  3422   002CBE  21D9               	addwfc	(HandleInterrupt@i_1054+1)& (0+255),w,b
  3423   002CC0  6EDA               	movwf	fsr2h,c
  3424   002CC2  50DF               	movf	indf2,w,c
  3425   002CC4  EC8E  F027         	call	_EUSART1_Write
  3426   002CC8                     
  3427                           ;mcc_generated_files/eusart1.c: 106:             }
  3428   002CC8  0100               	movlb	0	; () banked
  3429   002CCA  4BD8               	infsnz	HandleInterrupt@i_1054& (0+255),f,b
  3430   002CCC  2BD9               	incf	(HandleInterrupt@i_1054+1)& (0+255),f,b
  3431   002CCE                     i2l5372:
  3432                           
  3433                           ; BSR set to: 0
  3434   002CCE  51DB               	movf	HandleInterrupt@len& (0+255),w,b
  3435   002CD0  6FB8               	movwf	??_HandleInterrupt& (0+255),b
  3436   002CD2  6BB9               	clrf	(??_HandleInterrupt+1)& (0+255),b
  3437   002CD4  51B8               	movf	??_HandleInterrupt& (0+255),w,b
  3438   002CD6  5DD8               	subwf	HandleInterrupt@i_1054& (0+255),w,b
  3439   002CD8  51D9               	movf	(HandleInterrupt@i_1054+1)& (0+255),w,b
  3440   002CDA  0A80               	xorlw	128
  3441   002CDC  6FBA               	movwf	(??_HandleInterrupt+2)& (0+255),b
  3442   002CDE  51B9               	movf	(??_HandleInterrupt+1)& (0+255),w,b
  3443   002CE0  0A80               	xorlw	128
  3444   002CE2  59BA               	subwfb	(??_HandleInterrupt+2)& (0+255),w,b
  3445   002CE4  A0D8               	btfss	status,0,c
  3446   002CE6  EF77  F016         	goto	i2u541_41
  3447   002CEA  EF79  F016         	goto	i2u541_40
  3448   002CEE                     i2u541_41:
  3449   002CEE  EF5B  F016         	goto	i2l5368
  3450   002CF2                     i2u541_40:
  3451   002CF2                     
  3452                           ; BSR set to: 0
  3453                           ;mcc_generated_files/eusart1.c: 107:             EUSART1_Write('\r');
  3454   002CF2  0E0D               	movlw	13
  3455   002CF4  EC8E  F027         	call	_EUSART1_Write
  3456                           
  3457                           ;mcc_generated_files/eusart1.c: 108:         }
  3458   002CF8  EFFB  F016         	goto	i2l5398
  3459   002CFC                     i2l5376:
  3460                           
  3461                           ; BSR set to: 1
  3462   002CFC  0E02               	movlw	2
  3463   002CFE  196A               	xorwf	_command& (0+255),w,b
  3464   002D00  A4D8               	btfss	status,2,c
  3465   002D02  EF85  F016         	goto	i2u542_41
  3466   002D06  EF87  F016         	goto	i2u542_40
  3467   002D0A                     i2u542_41:
  3468   002D0A  EFDC  F016         	goto	i2l5390
  3469   002D0E                     i2u542_40:
  3470   002D0E  EFC2  F016         	goto	i2l5388
  3471   002D12                     i2l5380:
  3472                           
  3473                           ; BSR set to: 0
  3474                           ;mcc_generated_files/eusart1.c: 112:                     PORTJbits.RJ0 = !PORTJbits.RJ0;
  3475   002D12  A088               	btfss	136,0,c	;volatile
  3476   002D14  EF8E  F016         	goto	i2u543_41
  3477   002D18  EF92  F016         	goto	i2u543_40
  3478   002D1C                     i2u543_41:
  3479   002D1C  6BB8               	clrf	??_HandleInterrupt& (0+255),b
  3480   002D1E  2BB8               	incf	??_HandleInterrupt& (0+255),f,b
  3481   002D20  EF94  F016         	goto	i2u544_48
  3482   002D24                     i2u543_40:
  3483   002D24  0100               	movlb	0	; () banked
  3484   002D26  6BB8               	clrf	??_HandleInterrupt& (0+255),b
  3485   002D28                     i2u544_48:
  3486   002D28  5088               	movf	136,w,c	;volatile
  3487   002D2A  19B8               	xorwf	??_HandleInterrupt& (0+255),w,b
  3488   002D2C  0BFE               	andlw	-2
  3489   002D2E  19B8               	xorwf	??_HandleInterrupt& (0+255),w,b
  3490   002D30  6E88               	movwf	136,c	;volatile
  3491                           
  3492                           ;mcc_generated_files/eusart1.c: 113:                     break;
  3493   002D32  EFFB  F016         	goto	i2l5398
  3494   002D36                     i2l5382:
  3495                           
  3496                           ; BSR set to: 0
  3497                           ;mcc_generated_files/eusart1.c: 115:                     PORTJbits.RJ1 = !PORTJbits.RJ1;
  3498   002D36  A288               	btfss	136,1,c	;volatile
  3499   002D38  EFA0  F016         	goto	i2u545_41
  3500   002D3C  EFA4  F016         	goto	i2u545_40
  3501   002D40                     i2u545_41:
  3502   002D40  6BB8               	clrf	??_HandleInterrupt& (0+255),b
  3503   002D42  2BB8               	incf	??_HandleInterrupt& (0+255),f,b
  3504   002D44  EFA6  F016         	goto	i2u546_48
  3505   002D48                     i2u545_40:
  3506   002D48  0100               	movlb	0	; () banked
  3507   002D4A  6BB8               	clrf	??_HandleInterrupt& (0+255),b
  3508   002D4C                     i2u546_48:
  3509   002D4C  47B8               	rlncf	??_HandleInterrupt& (0+255),f,b
  3510   002D4E  5088               	movf	136,w,c	;volatile
  3511   002D50  19B8               	xorwf	??_HandleInterrupt& (0+255),w,b
  3512   002D52  0BFD               	andlw	-3
  3513   002D54  19B8               	xorwf	??_HandleInterrupt& (0+255),w,b
  3514   002D56  6E88               	movwf	136,c	;volatile
  3515                           
  3516                           ;mcc_generated_files/eusart1.c: 116:                     break;
  3517   002D58  EFFB  F016         	goto	i2l5398
  3518   002D5C                     i2l5384:
  3519                           
  3520                           ; BSR set to: 0
  3521                           ;mcc_generated_files/eusart1.c: 118:                     PORTJbits.RJ2 = !PORTJbits.RJ2;
  3522   002D5C  A488               	btfss	136,2,c	;volatile
  3523   002D5E  EFB3  F016         	goto	i2u547_41
  3524   002D62  EFB7  F016         	goto	i2u547_40
  3525   002D66                     i2u547_41:
  3526   002D66  6BB8               	clrf	??_HandleInterrupt& (0+255),b
  3527   002D68  2BB8               	incf	??_HandleInterrupt& (0+255),f,b
  3528   002D6A  EFB9  F016         	goto	i2u548_48
  3529   002D6E                     i2u547_40:
  3530   002D6E  0100               	movlb	0	; () banked
  3531   002D70  6BB8               	clrf	??_HandleInterrupt& (0+255),b
  3532   002D72                     i2u548_48:
  3533   002D72  47B8               	rlncf	??_HandleInterrupt& (0+255),f,b
  3534   002D74  47B8               	rlncf	??_HandleInterrupt& (0+255),f,b
  3535   002D76  5088               	movf	136,w,c	;volatile
  3536   002D78  19B8               	xorwf	??_HandleInterrupt& (0+255),w,b
  3537   002D7A  0BFB               	andlw	-5
  3538   002D7C  19B8               	xorwf	??_HandleInterrupt& (0+255),w,b
  3539   002D7E  6E88               	movwf	136,c	;volatile
  3540                           
  3541                           ;mcc_generated_files/eusart1.c: 119:                     break;
  3542   002D80  EFFB  F016         	goto	i2l5398
  3543   002D84                     i2l5388:
  3544                           
  3545                           ; BSR set to: 1
  3546   002D84  516B               	movf	(_command+1)& (0+255),w,b
  3547   002D86  0100               	movlb	0	; () banked
  3548   002D88  6FB8               	movwf	??_HandleInterrupt& (0+255),b
  3549   002D8A  6BB9               	clrf	(??_HandleInterrupt+1)& (0+255),b
  3550                           
  3551                           ; Switch on 2 bytes has been partitioned into a top level switch of size 1, and 1 sub-sw
      +                          itches
  3552                           ; Switch size 1, requested type "simple"
  3553                           ; Number of cases is 1, Range of values is 0 to 0
  3554                           ; switch strategies available:
  3555                           ; Name         Instructions Cycles
  3556                           ; simple_byte            4     3 (average)
  3557                           ;	Chosen strategy is simple_byte
  3558   002D8C  51B9               	movf	(??_HandleInterrupt+1)& (0+255),w,b
  3559   002D8E  0A00               	xorlw	0	; case 0
  3560   002D90  B4D8               	btfsc	status,2,c
  3561   002D92  EFCD  F016         	goto	i2l5676
  3562   002D96  EFFB  F016         	goto	i2l388
  3563   002D9A                     i2l5676:
  3564                           
  3565                           ; BSR set to: 0
  3566                           ; Switch size 1, requested type "simple"
  3567                           ; Number of cases is 3, Range of values is 49 to 51
  3568                           ; switch strategies available:
  3569                           ; Name         Instructions Cycles
  3570                           ; simple_byte           10     6 (average)
  3571                           ;	Chosen strategy is simple_byte
  3572   002D9A  51B8               	movf	??_HandleInterrupt& (0+255),w,b
  3573   002D9C  0A31               	xorlw	49	; case 49
  3574   002D9E  B4D8               	btfsc	status,2,c
  3575   002DA0  EF89  F016         	goto	i2l5380
  3576   002DA4  0A03               	xorlw	3	; case 50
  3577   002DA6  B4D8               	btfsc	status,2,c
  3578   002DA8  EF9B  F016         	goto	i2l5382
  3579   002DAC  0A01               	xorlw	1	; case 51
  3580   002DAE  B4D8               	btfsc	status,2,c
  3581   002DB0  EFAE  F016         	goto	i2l5384
  3582   002DB4  EFFB  F016         	goto	i2l388
  3583   002DB8                     i2l5390:
  3584                           
  3585                           ; BSR set to: 1
  3586   002DB8  0E03               	movlw	3
  3587   002DBA  196A               	xorwf	_command& (0+255),w,b
  3588   002DBC  A4D8               	btfss	status,2,c
  3589   002DBE  EFE3  F016         	goto	i2u549_41
  3590   002DC2  EFE5  F016         	goto	i2u549_40
  3591   002DC6                     i2u549_41:
  3592   002DC6  EFFB  F016         	goto	i2l5398
  3593   002DCA                     i2u549_40:
  3594   002DCA                     
  3595                           ; BSR set to: 1
  3596                           ;mcc_generated_files/eusart1.c: 125:             LCD_Clear();
  3597   002DCA  EC2E  F027         	call	_LCD_Clear	;wreg free
  3598   002DCE                     
  3599                           ;mcc_generated_files/eusart1.c: 126:             command[len] = '\0';
  3600   002DCE  0E6A               	movlw	low _command
  3601   002DD0  0100               	movlb	0	; () banked
  3602   002DD2  25FB               	addwf	_len& (0+255),w,b
  3603   002DD4  6ED9               	movwf	fsr2l,c
  3604   002DD6  6ADA               	clrf	fsr2h,c
  3605   002DD8  0E01               	movlw	high _command
  3606   002DDA  22DA               	addwfc	fsr2h,f,c
  3607   002DDC  6ADF               	clrf	indf2,c
  3608   002DDE                     
  3609                           ; BSR set to: 0
  3610                           ;mcc_generated_files/eusart1.c: 127:             LCD_PrintStr(command + 1, 50);
  3611   002DDE  0E6B               	movlw	low (_command+1)
  3612   002DE0  6E15               	movwf	LCD_PrintStr@str^0,c
  3613   002DE2  0E01               	movlw	high (_command+1)
  3614   002DE4  6E16               	movwf	(LCD_PrintStr@str+1)^0,c
  3615   002DE6  0E00               	movlw	0
  3616   002DE8  6E18               	movwf	(LCD_PrintStr@delay+1)^0,c
  3617   002DEA  0E32               	movlw	50
  3618   002DEC  6E17               	movwf	LCD_PrintStr@delay^0,c
  3619   002DEE  EC40  F01F         	call	_LCD_PrintStr	;wreg free
  3620   002DF2  EFFB  F016         	goto	i2l5398
  3621   002DF6                     i2l388:
  3622   002DF6                     i2l5398:
  3623                           
  3624                           ;mcc_generated_files/eusart1.c: 129:         len = 0;
  3625   002DF6  0E00               	movlw	0
  3626   002DF8  0100               	movlb	0	; () banked
  3627   002DFA  6FFB               	movwf	_len& (0+255),b
  3628                           
  3629                           ;mcc_generated_files/eusart1.c: 130:     }
  3630   002DFC  EF09  F017         	goto	i2l391
  3631   002E00                     i2l5400:
  3632                           
  3633                           ; BSR set to: 0
  3634                           ;mcc_generated_files/eusart1.c: 132:         command[len] = received;
  3635   002E00  0E6A               	movlw	low _command
  3636   002E02  25FB               	addwf	_len& (0+255),w,b
  3637   002E04  6ED9               	movwf	fsr2l,c
  3638   002E06  6ADA               	clrf	fsr2h,c
  3639   002E08  0E01               	movlw	high _command
  3640   002E0A  22DA               	addwfc	fsr2h,f,c
  3641   002E0C  C0DA  FFDF         	movff	HandleInterrupt@received,indf2
  3642   002E10                     
  3643                           ; BSR set to: 0
  3644                           ;mcc_generated_files/eusart1.c: 133:         len++;
  3645   002E10  2BFB               	incf	_len& (0+255),f,b
  3646   002E12                     i2l391:
  3647                           
  3648                           ; BSR set to: 0
  3649   002E12  0012               	return		;funcret
  3650   002E14                     __end_of_HandleInterrupt:
  3651                           	callstack 0
  3652                           
  3653 ;; *************** function _sprintf *****************
  3654 ;; Defined at:
  3655 ;;		line 9 in file "C:\Program Files\Microchip\xc8\v2.41\pic\sources\c99\common\nf_sprintf.c"
  3656 ;; Parameters:    Size  Location     Type
  3657 ;;  s               2   66[BANK0 ] PTR unsigned char 
  3658 ;;		 -> HandleInterrupt@temperature(6), HandleInterrupt@potValue(5), LCD_PrintNum@strNumber(20), 
  3659 ;;  fmt             2   68[BANK0 ] PTR const unsigned char 
  3660 ;;		 -> STR_3(5), STR_2(3), STR_1(3), 
  3661 ;; Auto vars:     Size  Location     Type
  3662 ;;  f              12   76[BANK0 ] struct _IO_FILE
  3663 ;;  ap              2   74[BANK0 ] PTR void [1]
  3664 ;;		 -> ?_sprintf(2), 
  3665 ;;  ret             2    0        int 
  3666 ;; Return value:  Size  Location     Type
  3667 ;;                  2   66[BANK0 ] int 
  3668 ;; Registers used:
  3669 ;;		wreg, fsr1l, fsr1h, fsr2l, fsr2h, status,2, status,0, tblptrl, tblptrh, tblptru, prodl, prodh, cstack
  3670 ;; Tracked objects:
  3671 ;;		On entry : 0/0
  3672 ;;		On exit  : 0/0
  3673 ;;		Unchanged: 0/0
  3674 ;; Data sizes:     COMRAM   BANK0   BANK1   BANK2   BANK3   BANK4   BANK5   BANK6   BANK7   BANK8   BANK9  BANK10  BANK1
      +1  BANK12  BANK13  BANK14  BANK15
  3675 ;;      Params:         0       8       0       0       0       0       0       0       0       0       0       0       
      +0       0       0       0       0
  3676 ;;      Locals:         0      14       0       0       0       0       0       0       0       0       0       0       
      +0       0       0       0       0
  3677 ;;      Temps:          0       0       0       0       0       0       0       0       0       0       0       0       
      +0       0       0       0       0
  3678 ;;      Totals:         0      22       0       0       0       0       0       0       0       0       0       0       
      +0       0       0       0       0
  3679 ;;Total ram usage:       22 bytes
  3680 ;; Hardware stack levels used: 1
  3681 ;; Hardware stack levels required when called: 7
  3682 ;; This function calls:
  3683 ;;		_vfprintf
  3684 ;; This function is called by:
  3685 ;;		_HandleInterrupt
  3686 ;;		_LCD_PrintNum
  3687 ;; This function uses a non-reentrant model
  3688 ;;
  3689                           
  3690                           	psect	text24
  3691   004990                     __ptext24:
  3692                           	callstack 0
  3693   004990                     _sprintf:
  3694                           	callstack 15
  3695   004990  0EA6               	movlw	low (?_sprintf+4)
  3696   004992  0100               	movlb	0	; () banked
  3697   004994  6FAA               	movwf	sprintf@ap& (0+255),b
  3698   004996  0E00               	movlw	high (?_sprintf+4)
  3699   004998  6FAB               	movwf	(sprintf@ap+1)& (0+255),b
  3700   00499A  C0A2  F0AC         	movff	sprintf@s,sprintf@f
  3701   00499E  C0A3  F0AD         	movff	sprintf@s+1,sprintf@f+1
  3702   0049A2                     
  3703                           ; BSR set to: 0
  3704   0049A2  0E00               	movlw	0
  3705   0049A4  6FB0               	movwf	(sprintf@f+4)& (0+255),b
  3706   0049A6  0E00               	movlw	0
  3707   0049A8  6FAF               	movwf	(sprintf@f+3)& (0+255),b
  3708   0049AA                     
  3709                           ; BSR set to: 0
  3710   0049AA  0E00               	movlw	0
  3711   0049AC  6FB7               	movwf	(sprintf@f+11)& (0+255),b
  3712   0049AE  0E00               	movlw	0
  3713   0049B0  6FB6               	movwf	(sprintf@f+10)& (0+255),b
  3714   0049B2                     
  3715                           ; BSR set to: 0
  3716   0049B2  0EAC               	movlw	low sprintf@f
  3717   0049B4  6F93               	movwf	vfprintf@fp& (0+255),b
  3718   0049B6  0E00               	movlw	high sprintf@f
  3719   0049B8  6F94               	movwf	(vfprintf@fp+1)& (0+255),b
  3720   0049BA  C0A4  F095         	movff	sprintf@fmt,vfprintf@fmt
  3721   0049BE  C0A5  F096         	movff	sprintf@fmt+1,vfprintf@fmt+1
  3722   0049C2  0EAA               	movlw	low sprintf@ap
  3723   0049C4  6F97               	movwf	vfprintf@ap& (0+255),b
  3724   0049C6  0E00               	movlw	high sprintf@ap
  3725   0049C8  6F98               	movwf	(vfprintf@ap+1)& (0+255),b
  3726   0049CA  EC4D  F024         	call	_vfprintf	;wreg free
  3727   0049CE  0100               	movlb	0	; () banked
  3728   0049D0  51AF               	movf	(sprintf@f+3)& (0+255),w,b
  3729   0049D2  25A2               	addwf	sprintf@s& (0+255),w,b
  3730   0049D4  6ED9               	movwf	fsr2l,c
  3731   0049D6  51B0               	movf	(sprintf@f+4)& (0+255),w,b
  3732   0049D8  21A3               	addwfc	(sprintf@s+1)& (0+255),w,b
  3733   0049DA  6EDA               	movwf	fsr2h,c
  3734   0049DC  6ADF               	clrf	indf2,c
  3735   0049DE                     
  3736                           ; BSR set to: 0
  3737   0049DE  0012               	return		;funcret
  3738   0049E0                     __end_of_sprintf:
  3739                           	callstack 0
  3740                           
  3741 ;; *************** function _vfprintf *****************
  3742 ;; Defined at:
  3743 ;;		line 1546 in file "C:\Program Files\Microchip\xc8\v2.41\pic\sources\c99\common\doprnt.c"
  3744 ;; Parameters:    Size  Location     Type
  3745 ;;  fp              2   51[BANK0 ] PTR struct _IO_FILE
  3746 ;;		 -> sprintf@f(12), 
  3747 ;;  fmt             2   53[BANK0 ] PTR const unsigned char 
  3748 ;;		 -> STR_3(5), STR_2(3), STR_1(3), 
  3749 ;;  ap              2   55[BANK0 ] PTR PTR void 
  3750 ;;		 -> sprintf@ap(2), 
  3751 ;; Auto vars:     Size  Location     Type
  3752 ;;  cfmt            2   91[COMRAM] PTR unsigned char 
  3753 ;;		 -> STR_3(5), STR_2(3), STR_1(3), 
  3754 ;; Return value:  Size  Location     Type
  3755 ;;                  2   51[BANK0 ] int 
  3756 ;; Registers used:
  3757 ;;		wreg, fsr1l, fsr1h, fsr2l, fsr2h, status,2, status,0, tblptrl, tblptrh, tblptru, prodl, prodh, cstack
  3758 ;; Tracked objects:
  3759 ;;		On entry : 0/0
  3760 ;;		On exit  : 0/0
  3761 ;;		Unchanged: 0/0
  3762 ;; Data sizes:     COMRAM   BANK0   BANK1   BANK2   BANK3   BANK4   BANK5   BANK6   BANK7   BANK8   BANK9  BANK10  BANK1
      +1  BANK12  BANK13  BANK14  BANK15
  3763 ;;      Params:         0       6       0       0       0       0       0       0       0       0       0       0       
      +0       0       0       0       0
  3764 ;;      Locals:         2       0       0       0       0       0       0       0       0       0       0       0       
      +0       0       0       0       0
  3765 ;;      Temps:          0       0       0       0       0       0       0       0       0       0       0       0       
      +0       0       0       0       0
  3766 ;;      Totals:         2       6       0       0       0       0       0       0       0       0       0       0       
      +0       0       0       0       0
  3767 ;;Total ram usage:        8 bytes
  3768 ;; Hardware stack levels used: 1
  3769 ;; Hardware stack levels required when called: 6
  3770 ;; This function calls:
  3771 ;;		_vfpfcnvrt
  3772 ;; This function is called by:
  3773 ;;		_sprintf
  3774 ;; This function uses a non-reentrant model
  3775 ;;
  3776                           
  3777                           	psect	text25
  3778   00489A                     __ptext25:
  3779                           	callstack 0
  3780   00489A                     _vfprintf:
  3781                           	callstack 15
  3782   00489A                     
  3783                           ;C:\Program Files\Microchip\xc8\v2.41\pic\sources\c99\common\doprnt.c: 1546: int vfprint
      +                          f(FILE *fp, const char *fmt, va_list ap);C:\Program Files\Microchip\xc8\v2.41\pic\source
      +                          s\c99\common\doprnt.c: 1547: {;C:\Program Files\Microchip\xc8\v2.41\pic\sources\c99\comm
      +                          on\doprnt.c: 1549:     char *cfmt;;C:\Program Files\Microchip\xc8\v2.41\pic\sources\c99\
      +                          common\doprnt.c: 1551:     cfmt = (char *)fmt;
  3784   00489A  C095  F05C         	movff	vfprintf@fmt,vfprintf@cfmt
  3785   00489E  C096  F05D         	movff	vfprintf@fmt+1,vfprintf@cfmt+1
  3786                           
  3787                           ;C:\Program Files\Microchip\xc8\v2.41\pic\sources\c99\common\doprnt.c: 1555:     while (
      +                          *cfmt) {
  3788   0048A2  EF61  F024         	goto	i2l5006
  3789   0048A6                     i2l5004:
  3790                           
  3791                           ;C:\Program Files\Microchip\xc8\v2.41\pic\sources\c99\common\doprnt.c: 1559:    vfpfcnvr
      +                          t(fp, &cfmt, ap);
  3792   0048A6  C093  F054         	movff	vfprintf@fp,vfpfcnvrt@fp
  3793   0048AA  C094  F055         	movff	vfprintf@fp+1,vfpfcnvrt@fp+1
  3794   0048AE  0E5C               	movlw	low vfprintf@cfmt
  3795   0048B0  6E56               	movwf	vfpfcnvrt@fmt^0,c
  3796   0048B2  0E00               	movlw	high vfprintf@cfmt
  3797   0048B4  6E57               	movwf	(vfpfcnvrt@fmt+1)^0,c
  3798   0048B6  C097  F058         	movff	vfprintf@ap,vfpfcnvrt@ap
  3799   0048BA  C098  F059         	movff	vfprintf@ap+1,vfpfcnvrt@ap+1
  3800   0048BE  ECD7  F018         	call	_vfpfcnvrt	;wreg free
  3801   0048C2                     i2l5006:
  3802                           
  3803                           ;C:\Program Files\Microchip\xc8\v2.41\pic\sources\c99\common\doprnt.c: 1555:     while (
      +                          *cfmt) {
  3804   0048C2  C05C  FFF6         	movff	vfprintf@cfmt,tblptrl
  3805   0048C6  C05D  FFF7         	movff	vfprintf@cfmt+1,tblptrh
  3806   0048CA                     	if	0	;tblptru may be non-zero
  3807   0048CA                     	endif
  3808   0048CA                     	if	1	;Program memory is > 0xFFFF, there are 3 active tblptr bytes
  3809   0048CA  0E00               	movlw	low (__mediumconst shr (0+16))
  3810   0048CC  6EF8               	movwf	tblptru,c
  3811   0048CE                     	endif
  3812   0048CE  0008               	tblrd		*
  3813   0048D0  50F5               	movf	tablat,w,c
  3814   0048D2  0900               	iorlw	0
  3815   0048D4  A4D8               	btfss	status,2,c
  3816   0048D6  EF6F  F024         	goto	i2u501_41
  3817   0048DA  EF71  F024         	goto	i2u501_40
  3818   0048DE                     i2u501_41:
  3819   0048DE  EF53  F024         	goto	i2l5004
  3820   0048E2                     i2u501_40:
  3821   0048E2                     
  3822                           ;C:\Program Files\Microchip\xc8\v2.41\pic\sources\c99\common\doprnt.c: 1564:  return 0;
  3823   0048E2  0E00               	movlw	0
  3824   0048E4  0100               	movlb	0	; () banked
  3825   0048E6  6F94               	movwf	(?_vfprintf+1)& (0+255),b
  3826   0048E8  0E00               	movlw	0
  3827   0048EA  6F93               	movwf	?_vfprintf& (0+255),b
  3828   0048EC                     
  3829                           ; BSR set to: 0
  3830   0048EC  0012               	return		;funcret
  3831   0048EE                     __end_of_vfprintf:
  3832                           	callstack 0
  3833                           
  3834 ;; *************** function _vfpfcnvrt *****************
  3835 ;; Defined at:
  3836 ;;		line 1048 in file "C:\Program Files\Microchip\xc8\v2.41\pic\sources\c99\common\doprnt.c"
  3837 ;; Parameters:    Size  Location     Type
  3838 ;;  fp              2   83[COMRAM] PTR struct _IO_FILE
  3839 ;;		 -> sprintf@f(12), 
  3840 ;;  fmt             2   85[COMRAM] PTR PTR unsigned char 
  3841 ;;		 -> vfprintf@cfmt(2), 
  3842 ;;  ap              2   87[COMRAM] PTR PTR void 
  3843 ;;		 -> sprintf@ap(2), 
  3844 ;; Auto vars:     Size  Location     Type
  3845 ;;  convarg         4   44[BANK0 ] struct .
  3846 ;;  cp              2   49[BANK0 ] PTR unsigned char 
  3847 ;;		 -> STR_3(5), STR_2(3), STR_1(3), 
  3848 ;;  i               2    0        int 
  3849 ;;  done            2    0        int 
  3850 ;;  c               1   48[BANK0 ] unsigned char 
  3851 ;; Return value:  Size  Location     Type
  3852 ;;                  1    wreg      void 
  3853 ;; Registers used:
  3854 ;;		wreg, fsr1l, fsr1h, fsr2l, fsr2h, status,2, status,0, tblptrl, tblptrh, tblptru, prodl, prodh, cstack
  3855 ;; Tracked objects:
  3856 ;;		On entry : 0/0
  3857 ;;		On exit  : 0/0
  3858 ;;		Unchanged: 0/0
  3859 ;; Data sizes:     COMRAM   BANK0   BANK1   BANK2   BANK3   BANK4   BANK5   BANK6   BANK7   BANK8   BANK9  BANK10  BANK1
      +1  BANK12  BANK13  BANK14  BANK15
  3860 ;;      Params:         6       0       0       0       0       0       0       0       0       0       0       0       
      +0       0       0       0       0
  3861 ;;      Locals:         0       7       0       0       0       0       0       0       0       0       0       0       
      +0       0       0       0       0
  3862 ;;      Temps:          2       0       0       0       0       0       0       0       0       0       0       0       
      +0       0       0       0       0
  3863 ;;      Totals:         8       7       0       0       0       0       0       0       0       0       0       0       
      +0       0       0       0       0
  3864 ;;Total ram usage:       15 bytes
  3865 ;; Hardware stack levels used: 1
  3866 ;; Hardware stack levels required when called: 5
  3867 ;; This function calls:
  3868 ;;		_dtoa
  3869 ;;		_efgtoa
  3870 ;;		_fputc
  3871 ;;		_read_prec_or_width
  3872 ;; This function is called by:
  3873 ;;		_vfprintf
  3874 ;; This function uses a non-reentrant model
  3875 ;;
  3876                           
  3877                           	psect	text26
  3878   0031AE                     __ptext26:
  3879                           	callstack 0
  3880   0031AE                     _vfpfcnvrt:
  3881                           	callstack 15
  3882   0031AE                     
  3883                           ;C:\Program Files\Microchip\xc8\v2.41\pic\sources\c99\common\doprnt.c: 1048: vfpfcnvrt(F
      +                          ILE *fp, char *fmt[], va_list ap);C:\Program Files\Microchip\xc8\v2.41\pic\sources\c99\c
      +                          ommon\doprnt.c: 1049: {;C:\Program Files\Microchip\xc8\v2.41\pic\sources\c99\common\dopr
      +                          nt.c: 1050:     char c, *cp;;C:\Program Files\Microchip\xc8\v2.41\pic\sources\c99\common
      +                          \doprnt.c: 1051:     int done, i;;C:\Program Files\Microchip\xc8\v2.41\pic\sources\c99\c
      +                          ommon\doprnt.c: 1059:  } convarg;;C:\Program Files\Microchip\xc8\v2.41\pic\sources\c99\c
      +                          ommon\doprnt.c: 1062:     if ((*fmt)[0] == '%') {
  3884   0031AE  C056  FFD9         	movff	vfpfcnvrt@fmt,fsr2l
  3885   0031B2  C057  FFDA         	movff	vfpfcnvrt@fmt+1,fsr2h
  3886   0031B6  CFDE FFF6          	movff	postinc2,tblptrl
  3887   0031BA  CFDD FFF7          	movff	postdec2,tblptrh
  3888   0031BE                     	if	0	;tblptru may be non-zero
  3889   0031BE                     	endif
  3890   0031BE                     	if	1	;Program memory is > 0xFFFF, there are 3 active tblptr bytes
  3891   0031BE  0E00               	movlw	low (__mediumconst shr (0+16))
  3892   0031C0  6EF8               	movwf	tblptru,c
  3893   0031C2                     	endif
  3894   0031C2  0008               	tblrd		*
  3895   0031C4  50F5               	movf	tablat,w,c
  3896   0031C6  0A25               	xorlw	37
  3897   0031C8  A4D8               	btfss	status,2,c
  3898   0031CA  EFE9  F018         	goto	i2u482_41
  3899   0031CE  EFEB  F018         	goto	i2u482_40
  3900   0031D2                     i2u482_41:
  3901   0031D2  EF59  F01A         	goto	i2l4890
  3902   0031D6                     i2u482_40:
  3903   0031D6                     
  3904                           ;C:\Program Files\Microchip\xc8\v2.41\pic\sources\c99\common\doprnt.c: 1063:         ++*
      +                          fmt;
  3905   0031D6  C056  FFD9         	movff	vfpfcnvrt@fmt,fsr2l
  3906   0031DA  C057  FFDA         	movff	vfpfcnvrt@fmt+1,fsr2h
  3907   0031DE  2ADE               	incf	postinc2,f,c
  3908   0031E0  0E00               	movlw	0
  3909   0031E2  22DD               	addwfc	postdec2,f,c
  3910   0031E4                     
  3911                           ;C:\Program Files\Microchip\xc8\v2.41\pic\sources\c99\common\doprnt.c: 1065:         fla
      +                          gs = width = 0;
  3912   0031E4  0E00               	movlw	0
  3913   0031E6  0100               	movlb	0	; () banked
  3914   0031E8  6FF5               	movwf	(_width+1)& (0+255),b
  3915   0031EA  0E00               	movlw	0
  3916   0031EC  6FF4               	movwf	_width& (0+255),b
  3917   0031EE  C0F4  F0FA         	movff	_width,_flags
  3918   0031F2                     
  3919                           ; BSR set to: 0
  3920                           ;C:\Program Files\Microchip\xc8\v2.41\pic\sources\c99\common\doprnt.c: 1066:         pre
      +                          c = -1;
  3921   0031F2  69F6               	setf	_prec& (0+255),b
  3922   0031F4  69F7               	setf	(_prec+1)& (0+255),b
  3923   0031F6                     
  3924                           ; BSR set to: 0
  3925                           ;C:\Program Files\Microchip\xc8\v2.41\pic\sources\c99\common\doprnt.c: 1126:         if 
      +                          ((*fmt)[0] == '.') {
  3926   0031F6  C056  FFD9         	movff	vfpfcnvrt@fmt,fsr2l
  3927   0031FA  C057  FFDA         	movff	vfpfcnvrt@fmt+1,fsr2h
  3928   0031FE  CFDE FFF6          	movff	postinc2,tblptrl
  3929   003202  CFDD FFF7          	movff	postdec2,tblptrh
  3930   003206                     	if	0	;tblptru may be non-zero
  3931   003206                     	endif
  3932   003206                     	if	1	;Program memory is > 0xFFFF, there are 3 active tblptr bytes
  3933   003206  0E00               	movlw	low (__mediumconst shr (0+16))
  3934   003208  6EF8               	movwf	tblptru,c
  3935   00320A                     	endif
  3936   00320A  0008               	tblrd		*
  3937   00320C  50F5               	movf	tablat,w,c
  3938   00320E  0A2E               	xorlw	46
  3939   003210  A4D8               	btfss	status,2,c
  3940   003212  EF0D  F019         	goto	i2u483_41
  3941   003216  EF0F  F019         	goto	i2u483_40
  3942   00321A                     i2u483_41:
  3943   00321A  EF24  F019         	goto	i2l4840
  3944   00321E                     i2u483_40:
  3945   00321E                     
  3946                           ; BSR set to: 0
  3947                           ;C:\Program Files\Microchip\xc8\v2.41\pic\sources\c99\common\doprnt.c: 1127:            
      +                           ++*fmt;
  3948   00321E  C056  FFD9         	movff	vfpfcnvrt@fmt,fsr2l
  3949   003222  C057  FFDA         	movff	vfpfcnvrt@fmt+1,fsr2h
  3950   003226  2ADE               	incf	postinc2,f,c
  3951   003228  0E00               	movlw	0
  3952   00322A  22DD               	addwfc	postdec2,f,c
  3953   00322C                     
  3954                           ; BSR set to: 0
  3955                           ;C:\Program Files\Microchip\xc8\v2.41\pic\sources\c99\common\doprnt.c: 1128:    prec = r
      +                          ead_prec_or_width(fmt, ap);
  3956   00322C  C056  F007         	movff	vfpfcnvrt@fmt,read_prec_or_width@fmt
  3957   003230  C057  F008         	movff	vfpfcnvrt@fmt+1,read_prec_or_width@fmt+1
  3958   003234  C058  F009         	movff	vfpfcnvrt@ap,read_prec_or_width@ap
  3959   003238  C059  F00A         	movff	vfpfcnvrt@ap+1,read_prec_or_width@ap+1
  3960   00323C  EC92  F020         	call	_read_prec_or_width	;wreg free
  3961   003240  C007  F0F6         	movff	?_read_prec_or_width,_prec
  3962   003244  C008  F0F7         	movff	?_read_prec_or_width+1,_prec+1
  3963   003248                     i2l4840:
  3964                           
  3965                           ;C:\Program Files\Microchip\xc8\v2.41\pic\sources\c99\common\doprnt.c: 1143:   cp = *fmt
      +                          ;
  3966   003248  C056  FFD9         	movff	vfpfcnvrt@fmt,fsr2l
  3967   00324C  C057  FFDA         	movff	vfpfcnvrt@fmt+1,fsr2h
  3968   003250  CFDE F091          	movff	postinc2,vfpfcnvrt@cp
  3969   003254  CFDD F092          	movff	postdec2,vfpfcnvrt@cp+1
  3970   003258                     
  3971                           ;C:\Program Files\Microchip\xc8\v2.41\pic\sources\c99\common\doprnt.c: 1213:   if (*cp =
      +                          = 'd' || *cp == 'i') {
  3972   003258  C091  FFF6         	movff	vfpfcnvrt@cp,tblptrl
  3973   00325C  C092  FFF7         	movff	vfpfcnvrt@cp+1,tblptrh
  3974   003260                     	if	0	;tblptru may be non-zero
  3975   003260                     	endif
  3976   003260                     	if	1	;Program memory is > 0xFFFF, there are 3 active tblptr bytes
  3977   003260  0E00               	movlw	low (__mediumconst shr (0+16))
  3978   003262  6EF8               	movwf	tblptru,c
  3979   003264                     	endif
  3980   003264  0008               	tblrd		*
  3981   003266  50F5               	movf	tablat,w,c
  3982   003268  0A64               	xorlw	100
  3983   00326A  B4D8               	btfsc	status,2,c
  3984   00326C  EF3A  F019         	goto	i2u484_41
  3985   003270  EF3C  F019         	goto	i2u484_40
  3986   003274                     i2u484_41:
  3987   003274  EF4C  F019         	goto	i2l4846
  3988   003278                     i2u484_40:
  3989   003278  C091  FFF6         	movff	vfpfcnvrt@cp,tblptrl
  3990   00327C  C092  FFF7         	movff	vfpfcnvrt@cp+1,tblptrh
  3991   003280                     	if	0	;tblptru may be non-zero
  3992   003280                     	endif
  3993   003280                     	if	1	;Program memory is > 0xFFFF, there are 3 active tblptr bytes
  3994   003280  0E00               	movlw	low (__mediumconst shr (0+16))
  3995   003282  6EF8               	movwf	tblptru,c
  3996   003284                     	endif
  3997   003284  0008               	tblrd		*
  3998   003286  50F5               	movf	tablat,w,c
  3999   003288  0A69               	xorlw	105
  4000   00328A  A4D8               	btfss	status,2,c
  4001   00328C  EF4A  F019         	goto	i2u485_41
  4002   003290  EF4C  F019         	goto	i2u485_40
  4003   003294                     i2u485_41:
  4004   003294  EF7B  F019         	goto	i2l4852
  4005   003298                     i2u485_40:
  4006   003298                     i2l4846:
  4007                           
  4008                           ;C:\Program Files\Microchip\xc8\v2.41\pic\sources\c99\common\doprnt.c: 1256:    convarg.
      +                          sint = (vfpf_sint_t)(int)(*(int *)__va_arg(*(int **)ap, (int)0));
  4009   003298  C058  FFD9         	movff	vfpfcnvrt@ap,fsr2l
  4010   00329C  C059  FFDA         	movff	vfpfcnvrt@ap+1,fsr2h
  4011   0032A0  CFDF F05A          	movff	indf2,??_vfpfcnvrt
  4012   0032A4  0E02               	movlw	2
  4013   0032A6  26DE               	addwf	postinc2,f,c
  4014   0032A8  CFDF F05B          	movff	indf2,??_vfpfcnvrt+1
  4015   0032AC  0E00               	movlw	0
  4016   0032AE  22DD               	addwfc	postdec2,f,c
  4017   0032B0  C05A  FFD9         	movff	??_vfpfcnvrt,fsr2l
  4018   0032B4  C05B  FFDA         	movff	??_vfpfcnvrt+1,fsr2h
  4019   0032B8  CFDE F08C          	movff	postinc2,vfpfcnvrt@convarg
  4020   0032BC  CFDD F08D          	movff	postdec2,vfpfcnvrt@convarg+1
  4021                           
  4022                           ;C:\Program Files\Microchip\xc8\v2.41\pic\sources\c99\common\doprnt.c: 1258:    *fmt = c
      +                          p+1;
  4023   0032C0  0E01               	movlw	1
  4024   0032C2  0100               	movlb	0	; () banked
  4025   0032C4  2591               	addwf	vfpfcnvrt@cp& (0+255),w,b
  4026   0032C6  6E5A               	movwf	??_vfpfcnvrt^0,c
  4027   0032C8  0E00               	movlw	0
  4028   0032CA  2192               	addwfc	(vfpfcnvrt@cp+1)& (0+255),w,b
  4029   0032CC  6E5B               	movwf	(??_vfpfcnvrt+1)^0,c
  4030   0032CE  C056  FFD9         	movff	vfpfcnvrt@fmt,fsr2l
  4031   0032D2  C057  FFDA         	movff	vfpfcnvrt@fmt+1,fsr2h
  4032   0032D6  C05A  FFDE         	movff	??_vfpfcnvrt,postinc2
  4033   0032DA  C05B  FFDD         	movff	??_vfpfcnvrt+1,postdec2
  4034   0032DE                     
  4035                           ; BSR set to: 0
  4036                           ;C:\Program Files\Microchip\xc8\v2.41\pic\sources\c99\common\doprnt.c: 1259:    return (
      +                          void) dtoa(fp, convarg.sint);;	Return value of _vfpfcnvrt is never used
  4037   0032DE  C054  F01C         	movff	vfpfcnvrt@fp,dtoa@fp
  4038   0032E2  C055  F01D         	movff	vfpfcnvrt@fp+1,dtoa@fp+1
  4039   0032E6  C08C  F01E         	movff	vfpfcnvrt@convarg,dtoa@d
  4040   0032EA  C08D  F01F         	movff	vfpfcnvrt@convarg+1,dtoa@d+1
  4041   0032EE  EC53  F01C         	call	_dtoa	;wreg free
  4042   0032F2  EF6F  F01A         	goto	i2l1385
  4043   0032F6                     i2l4852:
  4044                           
  4045                           ;C:\Program Files\Microchip\xc8\v2.41\pic\sources\c99\common\doprnt.c: 1418:   cp = *fmt
      +                          ;
  4046   0032F6  C056  FFD9         	movff	vfpfcnvrt@fmt,fsr2l
  4047   0032FA  C057  FFDA         	movff	vfpfcnvrt@fmt+1,fsr2h
  4048   0032FE  CFDE F091          	movff	postinc2,vfpfcnvrt@cp
  4049   003302  CFDD F092          	movff	postdec2,vfpfcnvrt@cp+1
  4050   003306                     
  4051                           ;C:\Program Files\Microchip\xc8\v2.41\pic\sources\c99\common\doprnt.c: 1419:   c = *cp;
  4052   003306  C091  FFF6         	movff	vfpfcnvrt@cp,tblptrl
  4053   00330A  C092  FFF7         	movff	vfpfcnvrt@cp+1,tblptrh
  4054   00330E                     	if	0	;tblptru may be non-zero
  4055   00330E                     	endif
  4056   00330E                     	if	1	;Program memory is > 0xFFFF, there are 3 active tblptr bytes
  4057   00330E  0E00               	movlw	low (__mediumconst shr (0+16))
  4058   003310  6EF8               	movwf	tblptru,c
  4059   003312                     	endif
  4060   003312  0008               	tblrd		*
  4061   003314  CFF5 F090          	movff	tablat,vfpfcnvrt@c
  4062                           
  4063                           ;C:\Program Files\Microchip\xc8\v2.41\pic\sources\c99\common\doprnt.c: 1420:   switch(c)
      +                           {
  4064   003318  EF9A  F019         	goto	i2l4864
  4065   00331C                     i2l4856:
  4066                           
  4067                           ; BSR set to: 0
  4068                           ;C:\Program Files\Microchip\xc8\v2.41\pic\sources\c99\common\doprnt.c: 1424:     cp++;
  4069   00331C  4B91               	infsnz	vfpfcnvrt@cp& (0+255),f,b
  4070   00331E  2B92               	incf	(vfpfcnvrt@cp+1)& (0+255),f,b
  4071                           
  4072                           ;C:\Program Files\Microchip\xc8\v2.41\pic\sources\c99\common\doprnt.c: 1425:     break;
  4073   003320  EFB4  F019         	goto	i2l4866
  4074   003324                     i2l4858:
  4075                           
  4076                           ; BSR set to: 0
  4077                           ;C:\Program Files\Microchip\xc8\v2.41\pic\sources\c99\common\doprnt.c: 1450:     c = 'l'
      +                          ;
  4078   003324  0E6C               	movlw	108
  4079   003326  6F90               	movwf	vfpfcnvrt@c& (0+255),b
  4080                           
  4081                           ;C:\Program Files\Microchip\xc8\v2.41\pic\sources\c99\common\doprnt.c: 1451:     break;
  4082   003328  EFB4  F019         	goto	i2l4866
  4083   00332C                     i2l4860:
  4084                           
  4085                           ; BSR set to: 0
  4086                           ;C:\Program Files\Microchip\xc8\v2.41\pic\sources\c99\common\doprnt.c: 1453:     c = 0;
  4087   00332C  0E00               	movlw	0
  4088   00332E  6F90               	movwf	vfpfcnvrt@c& (0+255),b
  4089                           
  4090                           ;C:\Program Files\Microchip\xc8\v2.41\pic\sources\c99\common\doprnt.c: 1454:     break;
  4091   003330  EFB4  F019         	goto	i2l4866
  4092   003334                     i2l4864:
  4093   003334  0100               	movlb	0	; () banked
  4094   003336  5190               	movf	vfpfcnvrt@c& (0+255),w,b
  4095   003338  6E5A               	movwf	??_vfpfcnvrt^0,c
  4096   00333A  6A5B               	clrf	(??_vfpfcnvrt+1)^0,c
  4097                           
  4098                           ; Switch on 2 bytes has been partitioned into a top level switch of size 1, and 1 sub-sw
      +                          itches
  4099                           ; Switch size 1, requested type "simple"
  4100                           ; Number of cases is 1, Range of values is 0 to 0
  4101                           ; switch strategies available:
  4102                           ; Name         Instructions Cycles
  4103                           ; simple_byte            4     3 (average)
  4104                           ;	Chosen strategy is simple_byte
  4105   00333C  505B               	movf	(??_vfpfcnvrt+1)^0,w,c
  4106   00333E  0A00               	xorlw	0	; case 0
  4107   003340  B4D8               	btfsc	status,2,c
  4108   003342  EFA5  F019         	goto	i2l5678
  4109   003346  EF96  F019         	goto	i2l4860
  4110   00334A                     i2l5678:
  4111                           
  4112                           ; BSR set to: 0
  4113                           ; Switch size 1, requested type "simple"
  4114                           ; Number of cases is 3, Range of values is 76 to 108
  4115                           ; switch strategies available:
  4116                           ; Name         Instructions Cycles
  4117                           ; simple_byte           10     6 (average)
  4118                           ;	Chosen strategy is simple_byte
  4119   00334A  505A               	movf	??_vfpfcnvrt^0,w,c
  4120   00334C  0A4C               	xorlw	76	; case 76
  4121   00334E  B4D8               	btfsc	status,2,c
  4122   003350  EF8E  F019         	goto	i2l4856
  4123   003354  0A2A               	xorlw	42	; case 102
  4124   003356  B4D8               	btfsc	status,2,c
  4125   003358  EF92  F019         	goto	i2l4858
  4126   00335C  0A0A               	xorlw	10	; case 108
  4127   00335E  B4D8               	btfsc	status,2,c
  4128   003360  EF8E  F019         	goto	i2l4856
  4129   003364  EF96  F019         	goto	i2l4860
  4130   003368                     i2l4866:
  4131                           
  4132                           ; BSR set to: 0
  4133   003368  C091  FFF6         	movff	vfpfcnvrt@cp,tblptrl
  4134   00336C  C092  FFF7         	movff	vfpfcnvrt@cp+1,tblptrh
  4135   003370                     	if	0	;tblptru may be non-zero
  4136   003370                     	endif
  4137   003370                     	if	1	;Program memory is > 0xFFFF, there are 3 active tblptr bytes
  4138   003370  0E00               	movlw	low (__mediumconst shr (0+16))
  4139   003372  6EF8               	movwf	tblptru,c
  4140   003374                     	endif
  4141   003374  0008               	tblrd		*
  4142   003376  50F5               	movf	tablat,w,c
  4143   003378  0A66               	xorlw	102
  4144   00337A  A4D8               	btfss	status,2,c
  4145   00337C  EFC2  F019         	goto	i2u486_41
  4146   003380  EFC4  F019         	goto	i2u486_40
  4147   003384                     i2u486_41:
  4148   003384  EF50  F01A         	goto	i2l4886
  4149   003388                     i2u486_40:
  4150   003388  EFFA  F019         	goto	i2l4874
  4151   00338C                     i2l4868:
  4152                           
  4153                           ; BSR set to: 0
  4154                           ;C:\Program Files\Microchip\xc8\v2.41\pic\sources\c99\common\doprnt.c: 1485:      convar
      +                          g.f = (long double)(*(double *)__va_arg(*(double **)ap, (double)0));
  4155   00338C  C058  FFD9         	movff	vfpfcnvrt@ap,fsr2l
  4156   003390  C059  FFDA         	movff	vfpfcnvrt@ap+1,fsr2h
  4157   003394  CFDF F05A          	movff	indf2,??_vfpfcnvrt
  4158   003398  0E04               	movlw	4
  4159   00339A  26DE               	addwf	postinc2,f,c
  4160   00339C  CFDF F05B          	movff	indf2,??_vfpfcnvrt+1
  4161   0033A0  0E00               	movlw	0
  4162   0033A2  22DD               	addwfc	postdec2,f,c
  4163   0033A4  C05A  FFD9         	movff	??_vfpfcnvrt,fsr2l
  4164   0033A8  C05B  FFDA         	movff	??_vfpfcnvrt+1,fsr2h
  4165   0033AC  CFDE F08C          	movff	postinc2,vfpfcnvrt@convarg
  4166   0033B0  CFDE F08D          	movff	postinc2,vfpfcnvrt@convarg+1
  4167   0033B4  CFDE F08E          	movff	postinc2,vfpfcnvrt@convarg+2
  4168   0033B8  CFDE F08F          	movff	postinc2,vfpfcnvrt@convarg+3
  4169                           
  4170                           ;C:\Program Files\Microchip\xc8\v2.41\pic\sources\c99\common\doprnt.c: 1486:      break;
  4171   0033BC  EF0F  F01A         	goto	i2l4876
  4172   0033C0                     i2l4870:
  4173                           
  4174                           ; BSR set to: 0
  4175                           ;C:\Program Files\Microchip\xc8\v2.41\pic\sources\c99\common\doprnt.c: 1488:      convar
      +                          g.f = (long double)(*(long double *)__va_arg(*(long double **)ap, (long double)0));
  4176   0033C0  C058  FFD9         	movff	vfpfcnvrt@ap,fsr2l
  4177   0033C4  C059  FFDA         	movff	vfpfcnvrt@ap+1,fsr2h
  4178   0033C8  CFDF F05A          	movff	indf2,??_vfpfcnvrt
  4179   0033CC  0E04               	movlw	4
  4180   0033CE  26DE               	addwf	postinc2,f,c
  4181   0033D0  CFDF F05B          	movff	indf2,??_vfpfcnvrt+1
  4182   0033D4  0E00               	movlw	0
  4183   0033D6  22DD               	addwfc	postdec2,f,c
  4184   0033D8  C05A  FFD9         	movff	??_vfpfcnvrt,fsr2l
  4185   0033DC  C05B  FFDA         	movff	??_vfpfcnvrt+1,fsr2h
  4186   0033E0  CFDE F08C          	movff	postinc2,vfpfcnvrt@convarg
  4187   0033E4  CFDE F08D          	movff	postinc2,vfpfcnvrt@convarg+1
  4188   0033E8  CFDE F08E          	movff	postinc2,vfpfcnvrt@convarg+2
  4189   0033EC  CFDE F08F          	movff	postinc2,vfpfcnvrt@convarg+3
  4190                           
  4191                           ;C:\Program Files\Microchip\xc8\v2.41\pic\sources\c99\common\doprnt.c: 1489:      break;
  4192   0033F0  EF0F  F01A         	goto	i2l4876
  4193   0033F4                     i2l4874:
  4194                           
  4195                           ; BSR set to: 0
  4196   0033F4  5190               	movf	vfpfcnvrt@c& (0+255),w,b
  4197   0033F6  6E5A               	movwf	??_vfpfcnvrt^0,c
  4198   0033F8  6A5B               	clrf	(??_vfpfcnvrt+1)^0,c
  4199                           
  4200                           ; Switch on 2 bytes has been partitioned into a top level switch of size 1, and 1 sub-sw
      +                          itches
  4201                           ; Switch size 1, requested type "simple"
  4202                           ; Number of cases is 1, Range of values is 0 to 0
  4203                           ; switch strategies available:
  4204                           ; Name         Instructions Cycles
  4205                           ; simple_byte            4     3 (average)
  4206                           ;	Chosen strategy is simple_byte
  4207   0033FA  505B               	movf	(??_vfpfcnvrt+1)^0,w,c
  4208   0033FC  0A00               	xorlw	0	; case 0
  4209   0033FE  B4D8               	btfsc	status,2,c
  4210   003400  EF04  F01A         	goto	i2l5680
  4211   003404  EF0F  F01A         	goto	i2l4876
  4212   003408                     i2l5680:
  4213                           
  4214                           ; BSR set to: 0
  4215                           ; Switch size 1, requested type "simple"
  4216                           ; Number of cases is 2, Range of values is 76 to 108
  4217                           ; switch strategies available:
  4218                           ; Name         Instructions Cycles
  4219                           ; simple_byte            7     4 (average)
  4220                           ;	Chosen strategy is simple_byte
  4221   003408  505A               	movf	??_vfpfcnvrt^0,w,c
  4222   00340A  0A4C               	xorlw	76	; case 76
  4223   00340C  B4D8               	btfsc	status,2,c
  4224   00340E  EFE0  F019         	goto	i2l4870
  4225   003412  0A20               	xorlw	32	; case 108
  4226   003414  B4D8               	btfsc	status,2,c
  4227   003416  EFC6  F019         	goto	i2l4868
  4228   00341A  EF0F  F01A         	goto	i2l4876
  4229   00341E                     i2l4876:
  4230                           
  4231                           ; BSR set to: 0
  4232                           ;C:\Program Files\Microchip\xc8\v2.41\pic\sources\c99\common\doprnt.c: 1491:    *fmt = c
      +                          p+1;
  4233   00341E  0E01               	movlw	1
  4234   003420  2591               	addwf	vfpfcnvrt@cp& (0+255),w,b
  4235   003422  6E5A               	movwf	??_vfpfcnvrt^0,c
  4236   003424  0E00               	movlw	0
  4237   003426  2192               	addwfc	(vfpfcnvrt@cp+1)& (0+255),w,b
  4238   003428  6E5B               	movwf	(??_vfpfcnvrt+1)^0,c
  4239   00342A  C056  FFD9         	movff	vfpfcnvrt@fmt,fsr2l
  4240   00342E  C057  FFDA         	movff	vfpfcnvrt@fmt+1,fsr2h
  4241   003432  C05A  FFDE         	movff	??_vfpfcnvrt,postinc2
  4242   003436  C05B  FFDD         	movff	??_vfpfcnvrt+1,postdec2
  4243                           
  4244                           ;C:\Program Files\Microchip\xc8\v2.41\pic\sources\c99\common\doprnt.c: 1492:    switch (
      +                          *cp) {
  4245   00343A  EF38  F01A         	goto	i2l4884
  4246   00343E                     i2l4878:
  4247                           
  4248                           ; BSR set to: 0
  4249                           ;C:\Program Files\Microchip\xc8\v2.41\pic\sources\c99\common\doprnt.c: 1519:      return
      +                           (void) efgtoa(fp, convarg.f, *cp);;	Return value of _vfpfcnvrt is never used
  4250   00343E  C054  F04B         	movff	vfpfcnvrt@fp,efgtoa@fp
  4251   003442  C055  F04C         	movff	vfpfcnvrt@fp+1,efgtoa@fp+1
  4252   003446  C08C  F04D         	movff	vfpfcnvrt@convarg,efgtoa@f
  4253   00344A  C08D  F04E         	movff	vfpfcnvrt@convarg+1,efgtoa@f+1
  4254   00344E  C08E  F04F         	movff	vfpfcnvrt@convarg+2,efgtoa@f+2
  4255   003452  C08F  F050         	movff	vfpfcnvrt@convarg+3,efgtoa@f+3
  4256   003456  C091  FFF6         	movff	vfpfcnvrt@cp,tblptrl
  4257   00345A  C092  FFF7         	movff	vfpfcnvrt@cp+1,tblptrh
  4258   00345E                     	if	0	;tblptru may be non-zero
  4259   00345E                     	endif
  4260   00345E                     	if	1	;Program memory is > 0xFFFF, there are 3 active tblptr bytes
  4261   00345E  0E00               	movlw	low (__mediumconst shr (0+16))
  4262   003460  6EF8               	movwf	tblptru,c
  4263   003462                     	endif
  4264   003462  0008               	tblrd		*
  4265   003464  CFF5 F051          	movff	tablat,efgtoa@c
  4266   003468  EC15  F008         	call	_efgtoa	;wreg free
  4267   00346C  EF6F  F01A         	goto	i2l1385
  4268   003470                     i2l4884:
  4269                           
  4270                           ; BSR set to: 0
  4271   003470  C091  FFF6         	movff	vfpfcnvrt@cp,tblptrl
  4272   003474  C092  FFF7         	movff	vfpfcnvrt@cp+1,tblptrh
  4273   003478                     	if	0	;tblptru may be non-zero
  4274   003478                     	endif
  4275   003478                     	if	1	;Program memory is > 0xFFFF, there are 3 active tblptr bytes
  4276   003478  0E00               	movlw	low (__mediumconst shr (0+16))
  4277   00347A  6EF8               	movwf	tblptru,c
  4278   00347C                     	endif
  4279   00347C  0008               	tblrd		*
  4280   00347E  50F5               	movf	tablat,w,c
  4281   003480  6E5A               	movwf	??_vfpfcnvrt^0,c
  4282   003482  6A5B               	clrf	(??_vfpfcnvrt+1)^0,c
  4283                           
  4284                           ; Switch on 2 bytes has been partitioned into a top level switch of size 1, and 1 sub-sw
      +                          itches
  4285                           ; Switch size 1, requested type "simple"
  4286                           ; Number of cases is 1, Range of values is 0 to 0
  4287                           ; switch strategies available:
  4288                           ; Name         Instructions Cycles
  4289                           ; simple_byte            4     3 (average)
  4290                           ;	Chosen strategy is simple_byte
  4291   003484  505B               	movf	(??_vfpfcnvrt+1)^0,w,c
  4292   003486  0A00               	xorlw	0	; case 0
  4293   003488  B4D8               	btfsc	status,2,c
  4294   00348A  EF49  F01A         	goto	i2l5682
  4295   00348E  EF50  F01A         	goto	i2l4886
  4296   003492                     i2l5682:
  4297                           
  4298                           ; BSR set to: 0
  4299                           ; Switch size 1, requested type "simple"
  4300                           ; Number of cases is 1, Range of values is 102 to 102
  4301                           ; switch strategies available:
  4302                           ; Name         Instructions Cycles
  4303                           ; simple_byte            4     3 (average)
  4304                           ;	Chosen strategy is simple_byte
  4305   003492  505A               	movf	??_vfpfcnvrt^0,w,c
  4306   003494  0A66               	xorlw	102	; case 102
  4307   003496  B4D8               	btfsc	status,2,c
  4308   003498  EF1F  F01A         	goto	i2l4878
  4309   00349C  EF50  F01A         	goto	i2l4886
  4310   0034A0                     i2l4886:
  4311                           
  4312                           ;C:\Program Files\Microchip\xc8\v2.41\pic\sources\c99\common\doprnt.c: 1535:         ++*
      +                          fmt;
  4313   0034A0  C056  FFD9         	movff	vfpfcnvrt@fmt,fsr2l
  4314   0034A4  C057  FFDA         	movff	vfpfcnvrt@fmt+1,fsr2h
  4315   0034A8  2ADE               	incf	postinc2,f,c
  4316   0034AA  0E00               	movlw	0
  4317   0034AC  22DD               	addwfc	postdec2,f,c
  4318   0034AE  EF6F  F01A         	goto	i2l1385
  4319   0034B2                     i2l4890:
  4320                           
  4321                           ;C:\Program Files\Microchip\xc8\v2.41\pic\sources\c99\common\doprnt.c: 1540:     fputc((
      +                          int)(*fmt)[0], fp);
  4322   0034B2  C056  FFD9         	movff	vfpfcnvrt@fmt,fsr2l
  4323   0034B6  C057  FFDA         	movff	vfpfcnvrt@fmt+1,fsr2h
  4324   0034BA  CFDE FFF6          	movff	postinc2,tblptrl
  4325   0034BE  CFDD FFF7          	movff	postdec2,tblptrh
  4326   0034C2                     	if	0	;tblptru may be non-zero
  4327   0034C2                     	endif
  4328   0034C2                     	if	1	;Program memory is > 0xFFFF, there are 3 active tblptr bytes
  4329   0034C2  0E00               	movlw	low (__mediumconst shr (0+16))
  4330   0034C4  6EF8               	movwf	tblptru,c
  4331   0034C6                     	endif
  4332   0034C6  0008               	tblrd		*
  4333   0034C8  50F5               	movf	tablat,w,c
  4334   0034CA  6E01               	movwf	fputc@c^0,c
  4335   0034CC  6A02               	clrf	(fputc@c+1)^0,c
  4336   0034CE  C054  F003         	movff	vfpfcnvrt@fp,fputc@fp
  4337   0034D2  C055  F004         	movff	vfpfcnvrt@fp+1,fputc@fp+1
  4338   0034D6  ECF9  F020         	call	_fputc	;wreg free
  4339   0034DA  EF50  F01A         	goto	i2l4886
  4340   0034DE                     i2l1385:
  4341   0034DE  0012               	return		;funcret
  4342   0034E0                     __end_of_vfpfcnvrt:
  4343                           	callstack 0
  4344                           
  4345 ;; *************** function _read_prec_or_width *****************
  4346 ;; Defined at:
  4347 ;;		line 1029 in file "C:\Program Files\Microchip\xc8\v2.41\pic\sources\c99\common\doprnt.c"
  4348 ;; Parameters:    Size  Location     Type
  4349 ;;  fmt             2    6[COMRAM] PTR PTR const unsigned c
  4350 ;;		 -> vfprintf@cfmt(2), 
  4351 ;;  ap              2    8[COMRAM] PTR PTR void [1]
  4352 ;;		 -> sprintf@ap(2), 
  4353 ;; Auto vars:     Size  Location     Type
  4354 ;;  c               1   12[COMRAM] unsigned char 
  4355 ;;  n               2   13[COMRAM] int 
  4356 ;; Return value:  Size  Location     Type
  4357 ;;                  2    6[COMRAM] int 
  4358 ;; Registers used:
  4359 ;;		wreg, fsr2l, fsr2h, status,2, status,0, tblptrl, tblptrh, tblptru, prodl, prodh, cstack
  4360 ;; Tracked objects:
  4361 ;;		On entry : 0/0
  4362 ;;		On exit  : 0/0
  4363 ;;		Unchanged: 0/0
  4364 ;; Data sizes:     COMRAM   BANK0   BANK1   BANK2   BANK3   BANK4   BANK5   BANK6   BANK7   BANK8   BANK9  BANK10  BANK1
      +1  BANK12  BANK13  BANK14  BANK15
  4365 ;;      Params:         4       0       0       0       0       0       0       0       0       0       0       0       
      +0       0       0       0       0
  4366 ;;      Locals:         3       0       0       0       0       0       0       0       0       0       0       0       
      +0       0       0       0       0
  4367 ;;      Temps:          2       0       0       0       0       0       0       0       0       0       0       0       
      +0       0       0       0       0
  4368 ;;      Totals:         9       0       0       0       0       0       0       0       0       0       0       0       
      +0       0       0       0       0
  4369 ;;Total ram usage:        9 bytes
  4370 ;; Hardware stack levels used: 1
  4371 ;; Hardware stack levels required when called: 1
  4372 ;; This function calls:
  4373 ;;		___wmul
  4374 ;; This function is called by:
  4375 ;;		_vfpfcnvrt
  4376 ;; This function uses a non-reentrant model
  4377 ;;
  4378                           
  4379                           	psect	text27
  4380   004124                     __ptext27:
  4381                           	callstack 0
  4382   004124                     _read_prec_or_width:
  4383                           	callstack 18
  4384   004124                     
  4385                           ;C:\Program Files\Microchip\xc8\v2.41\pic\sources\c99\common\doprnt.c: 1030:     int n =
      +                           0;
  4386   004124  0E00               	movlw	0
  4387   004126  6E0F               	movwf	(read_prec_or_width@n+1)^0,c
  4388   004128  0E00               	movlw	0
  4389   00412A  6E0E               	movwf	read_prec_or_width@n^0,c
  4390   00412C                     
  4391                           ;C:\Program Files\Microchip\xc8\v2.41\pic\sources\c99\common\doprnt.c: 1031:     if ((*f
      +                          mt)[0] == '*') {
  4392   00412C  C007  FFD9         	movff	read_prec_or_width@fmt,fsr2l
  4393   004130  C008  FFDA         	movff	read_prec_or_width@fmt+1,fsr2h
  4394   004134  CFDE FFF6          	movff	postinc2,tblptrl
  4395   004138  CFDD FFF7          	movff	postdec2,tblptrh
  4396   00413C                     	if	0	;tblptru may be non-zero
  4397   00413C                     	endif
  4398   00413C                     	if	1	;Program memory is > 0xFFFF, there are 3 active tblptr bytes
  4399   00413C  0E00               	movlw	low (__mediumconst shr (0+16))
  4400   00413E  6EF8               	movwf	tblptru,c
  4401   004140                     	endif
  4402   004140  0008               	tblrd		*
  4403   004142  50F5               	movf	tablat,w,c
  4404   004144  0A2A               	xorlw	42
  4405   004146  A4D8               	btfss	status,2,c
  4406   004148  EFA8  F020         	goto	i2u473_41
  4407   00414C  EFAA  F020         	goto	i2u473_40
  4408   004150                     i2u473_41:
  4409   004150  EFDE  F020         	goto	i2l4774
  4410   004154                     i2u473_40:
  4411   004154                     
  4412                           ;C:\Program Files\Microchip\xc8\v2.41\pic\sources\c99\common\doprnt.c: 1032:         ++*
      +                          fmt;
  4413   004154  C007  FFD9         	movff	read_prec_or_width@fmt,fsr2l
  4414   004158  C008  FFDA         	movff	read_prec_or_width@fmt+1,fsr2h
  4415   00415C  2ADE               	incf	postinc2,f,c
  4416   00415E  0E00               	movlw	0
  4417   004160  22DD               	addwfc	postdec2,f,c
  4418                           
  4419                           ;C:\Program Files\Microchip\xc8\v2.41\pic\sources\c99\common\doprnt.c: 1033:         n =
      +                           (*(int *)__va_arg(*(int **)*ap, (int)0));
  4420   004162  C009  FFD9         	movff	read_prec_or_width@ap,fsr2l
  4421   004166  C00A  FFDA         	movff	read_prec_or_width@ap+1,fsr2h
  4422   00416A  CFDF F00B          	movff	indf2,??_read_prec_or_width
  4423   00416E  0E02               	movlw	2
  4424   004170  26DE               	addwf	postinc2,f,c
  4425   004172  CFDF F00C          	movff	indf2,??_read_prec_or_width+1
  4426   004176  0E00               	movlw	0
  4427   004178  22DD               	addwfc	postdec2,f,c
  4428   00417A  C00B  FFD9         	movff	??_read_prec_or_width,fsr2l
  4429   00417E  C00C  FFDA         	movff	??_read_prec_or_width+1,fsr2h
  4430   004182  CFDE F00E          	movff	postinc2,read_prec_or_width@n
  4431   004186  CFDD F00F          	movff	postdec2,read_prec_or_width@n+1
  4432                           
  4433                           ;C:\Program Files\Microchip\xc8\v2.41\pic\sources\c99\common\doprnt.c: 1034:     } else 
      +                          {
  4434   00418A  EFF4  F020         	goto	i2l1373
  4435   00418E                     i2l4770:
  4436                           
  4437                           ;C:\Program Files\Microchip\xc8\v2.41\pic\sources\c99\common\doprnt.c: 1037:            
      +                           n = n * 10 + c;
  4438   00418E  C00E  F001         	movff	read_prec_or_width@n,___wmul@multiplier
  4439   004192  C00F  F002         	movff	read_prec_or_width@n+1,___wmul@multiplier+1
  4440   004196  0E00               	movlw	0
  4441   004198  6E04               	movwf	(___wmul@multiplicand+1)^0,c
  4442   00419A  0E0A               	movlw	10
  4443   00419C  6E03               	movwf	___wmul@multiplicand^0,c
  4444   00419E  EC5A  F027         	call	___wmul	;wreg free
  4445   0041A2  500D               	movf	read_prec_or_width@c^0,w,c
  4446   0041A4  2401               	addwf	?___wmul^0,w,c
  4447   0041A6  6E0E               	movwf	read_prec_or_width@n^0,c
  4448   0041A8  0E00               	movlw	0
  4449   0041AA  2002               	addwfc	(?___wmul+1)^0,w,c
  4450   0041AC  6E0F               	movwf	(read_prec_or_width@n+1)^0,c
  4451   0041AE                     
  4452                           ;C:\Program Files\Microchip\xc8\v2.41\pic\sources\c99\common\doprnt.c: 1038:            
      +                           ++*fmt;
  4453   0041AE  C007  FFD9         	movff	read_prec_or_width@fmt,fsr2l
  4454   0041B2  C008  FFDA         	movff	read_prec_or_width@fmt+1,fsr2h
  4455   0041B6  2ADE               	incf	postinc2,f,c
  4456   0041B8  0E00               	movlw	0
  4457   0041BA  22DD               	addwfc	postdec2,f,c
  4458   0041BC                     i2l4774:
  4459                           
  4460                           ;C:\Program Files\Microchip\xc8\v2.41\pic\sources\c99\common\doprnt.c: 1036:         whi
      +                          le ((c = ((unsigned)(*fmt)[0]) - '0') < 10) {
  4461   0041BC  C007  FFD9         	movff	read_prec_or_width@fmt,fsr2l
  4462   0041C0  C008  FFDA         	movff	read_prec_or_width@fmt+1,fsr2h
  4463   0041C4  CFDE FFF6          	movff	postinc2,tblptrl
  4464   0041C8  CFDD FFF7          	movff	postdec2,tblptrh
  4465   0041CC                     	if	0	;tblptru may be non-zero
  4466   0041CC                     	endif
  4467   0041CC                     	if	1	;Program memory is > 0xFFFF, there are 3 active tblptr bytes
  4468   0041CC  0E00               	movlw	low (__mediumconst shr (0+16))
  4469   0041CE  6EF8               	movwf	tblptru,c
  4470   0041D0                     	endif
  4471   0041D0  0008               	tblrd		*
  4472   0041D2  50F5               	movf	tablat,w,c
  4473   0041D4  0FD0               	addlw	208
  4474   0041D6  6E0D               	movwf	read_prec_or_width@c^0,c
  4475   0041D8  0E09               	movlw	9
  4476   0041DA  640D               	cpfsgt	read_prec_or_width@c^0,c
  4477   0041DC  EFF2  F020         	goto	i2u474_41
  4478   0041E0  EFF4  F020         	goto	i2u474_40
  4479   0041E4                     i2u474_41:
  4480   0041E4  EFC7  F020         	goto	i2l4770
  4481   0041E8                     i2u474_40:
  4482   0041E8                     i2l1373:
  4483                           
  4484                           ;C:\Program Files\Microchip\xc8\v2.41\pic\sources\c99\common\doprnt.c: 1041:     return 
      +                          n;
  4485   0041E8  C00E  F007         	movff	read_prec_or_width@n,?_read_prec_or_width
  4486   0041EC  C00F  F008         	movff	read_prec_or_width@n+1,?_read_prec_or_width+1
  4487   0041F0  0012               	return		;funcret
  4488   0041F2                     __end_of_read_prec_or_width:
  4489                           	callstack 0
  4490                           
  4491 ;; *************** function ___wmul *****************
  4492 ;; Defined at:
  4493 ;;		line 15 in file "C:\Program Files\Microchip\xc8\v2.41\pic\sources\c99\common\Umul16.c"
  4494 ;; Parameters:    Size  Location     Type
  4495 ;;  multiplier      2    0[COMRAM] unsigned int 
  4496 ;;  multiplicand    2    2[COMRAM] unsigned int 
  4497 ;; Auto vars:     Size  Location     Type
  4498 ;;  product         2    4[COMRAM] unsigned int 
  4499 ;; Return value:  Size  Location     Type
  4500 ;;                  2    0[COMRAM] unsigned int 
  4501 ;; Registers used:
  4502 ;;		wreg, status,2, status,0, prodl, prodh
  4503 ;; Tracked objects:
  4504 ;;		On entry : 0/0
  4505 ;;		On exit  : 0/0
  4506 ;;		Unchanged: 0/0
  4507 ;; Data sizes:     COMRAM   BANK0   BANK1   BANK2   BANK3   BANK4   BANK5   BANK6   BANK7   BANK8   BANK9  BANK10  BANK1
      +1  BANK12  BANK13  BANK14  BANK15
  4508 ;;      Params:         4       0       0       0       0       0       0       0       0       0       0       0       
      +0       0       0       0       0
  4509 ;;      Locals:         2       0       0       0       0       0       0       0       0       0       0       0       
      +0       0       0       0       0
  4510 ;;      Temps:          0       0       0       0       0       0       0       0       0       0       0       0       
      +0       0       0       0       0
  4511 ;;      Totals:         6       0       0       0       0       0       0       0       0       0       0       0       
      +0       0       0       0       0
  4512 ;;Total ram usage:        6 bytes
  4513 ;; Hardware stack levels used: 1
  4514 ;; This function calls:
  4515 ;;		Nothing
  4516 ;; This function is called by:
  4517 ;;		_read_prec_or_width
  4518 ;; This function uses a non-reentrant model
  4519 ;;
  4520                           
  4521                           	psect	text28
  4522   004EB4                     __ptext28:
  4523                           	callstack 0
  4524   004EB4                     ___wmul:
  4525                           	callstack 18
  4526   004EB4  5001               	movf	___wmul@multiplier^0,w,c
  4527   004EB6  0203               	mulwf	___wmul@multiplicand^0,c
  4528   004EB8  CFF3 F005          	movff	prodl,___wmul@product
  4529   004EBC  CFF4 F006          	movff	prodh,___wmul@product+1
  4530   004EC0  5001               	movf	___wmul@multiplier^0,w,c
  4531   004EC2  0204               	mulwf	(___wmul@multiplicand+1)^0,c
  4532   004EC4  50F3               	movf	243,w,c
  4533   004EC6  2606               	addwf	(___wmul@product+1)^0,f,c
  4534   004EC8  5002               	movf	(___wmul@multiplier+1)^0,w,c
  4535   004ECA  0203               	mulwf	___wmul@multiplicand^0,c
  4536   004ECC  50F3               	movf	243,w,c
  4537   004ECE  2606               	addwf	(___wmul@product+1)^0,f,c
  4538   004ED0  C005  F001         	movff	___wmul@product,?___wmul
  4539   004ED4  C006  F002         	movff	___wmul@product+1,?___wmul+1
  4540   004ED8  0012               	return		;funcret
  4541   004EDA                     __end_of___wmul:
  4542                           	callstack 0
  4543                           
  4544 ;; *************** function _efgtoa *****************
  4545 ;; Defined at:
  4546 ;;		line 531 in file "C:\Program Files\Microchip\xc8\v2.41\pic\sources\c99\common\doprnt.c"
  4547 ;; Parameters:    Size  Location     Type
  4548 ;;  fp              2   74[COMRAM] PTR struct _IO_FILE
  4549 ;;		 -> sprintf@f(12), 
  4550 ;;  f               4   76[COMRAM] PTR struct _IO_FILE
  4551 ;;  c               1   80[COMRAM] unsigned char 
  4552 ;; Auto vars:     Size  Location     Type
  4553 ;;  u               4   40[BANK0 ] struct flui
  4554 ;;  g               4   36[BANK0 ] struct flui
  4555 ;;  l               4   29[BANK0 ] struct flui
  4556 ;;  h               4   25[BANK0 ] struct flui
  4557 ;;  ou              4   19[BANK0 ] struct flui
  4558 ;;  n               2   34[BANK0 ] int 
  4559 ;;  i               2   23[BANK0 ] int 
  4560 ;;  w               2   17[BANK0 ] int 
  4561 ;;  e               2   15[BANK0 ] int 
  4562 ;;  m               2   13[BANK0 ] int 
  4563 ;;  d               2   11[BANK0 ] int 
  4564 ;;  t               2    4[BANK0 ] int 
  4565 ;;  p               2    2[BANK0 ] int 
  4566 ;;  ne              2    0[BANK0 ] int 
  4567 ;;  sign            1   33[BANK0 ] unsigned char 
  4568 ;;  nmode           1   10[BANK0 ] unsigned char 
  4569 ;;  mode            1    9[BANK0 ] unsigned char 
  4570 ;;  pp              1    8[BANK0 ] unsigned char 
  4571 ;;  esign           1    0        unsigned char 
  4572 ;; Return value:  Size  Location     Type
  4573 ;;                  1    wreg      void 
  4574 ;; Registers used:
  4575 ;;		wreg, fsr1l, fsr1h, fsr2l, fsr2h, status,2, status,0, tblptrl, tblptrh, tblptru, prodl, prodh, cstack
  4576 ;; Tracked objects:
  4577 ;;		On entry : 0/0
  4578 ;;		On exit  : 0/0
  4579 ;;		Unchanged: 0/0
  4580 ;; Data sizes:     COMRAM   BANK0   BANK1   BANK2   BANK3   BANK4   BANK5   BANK6   BANK7   BANK8   BANK9  BANK10  BANK1
      +1  BANK12  BANK13  BANK14  BANK15
  4581 ;;      Params:         7       0       0       0       0       0       0       0       0       0       0       0       
      +0       0       0       0       0
  4582 ;;      Locals:         0      44       0       0       0       0       0       0       0       0       0       0       
      +0       0       0       0       0
  4583 ;;      Temps:          2       0       0       0       0       0       0       0       0       0       0       0       
      +0       0       0       0       0
  4584 ;;      Totals:         9      44       0       0       0       0       0       0       0       0       0       0       
      +0       0       0       0       0
  4585 ;;Total ram usage:       53 bytes
  4586 ;; Hardware stack levels used: 1
  4587 ;; Hardware stack levels required when called: 4
  4588 ;; This function calls:
  4589 ;;		___fladd
  4590 ;;		___fldiv
  4591 ;;		___fleq
  4592 ;;		___flge
  4593 ;;		___flmul
  4594 ;;		___flneg
  4595 ;;		___flsub
  4596 ;;		___fltol
  4597 ;;		___fpclassifyf
  4598 ;;		_floorf
  4599 ;;		_labs
  4600 ;;		_memcpy
  4601 ;;		_pad
  4602 ;;		_strcpy
  4603 ;; This function is called by:
  4604 ;;		_vfpfcnvrt
  4605 ;; This function uses a non-reentrant model
  4606 ;;
  4607                           
  4608                           	psect	text29
  4609   00102A                     __ptext29:
  4610                           	callstack 0
  4611   00102A                     _efgtoa:
  4612                           	callstack 15
  4613   00102A                     
  4614                           ;C:\Program Files\Microchip\xc8\v2.41\pic\sources\c99\common\doprnt.c: 531: static void 
      +                          efgtoa(FILE *fp, long double f, char c);C:\Program Files\Microchip\xc8\v2.41\pic\sources
      +                          \c99\common\doprnt.c: 532: {;C:\Program Files\Microchip\xc8\v2.41\pic\sources\c99\common
      +                          \doprnt.c: 533:     char mode, nmode, pp, sign, esign;;C:\Program Files\Microchip\xc8\v2
      +                          .41\pic\sources\c99\common\doprnt.c: 534:     int d, e, i, m, n, ne, p, t, w;;C:\Program
      +                           Files\Microchip\xc8\v2.41\pic\sources\c99\common\doprnt.c: 535:     long double h, l;
  4615   00102A  0E00               	movlw	0
  4616   00102C  0100               	movlb	0	; () banked
  4617   00102E  6F81               	movwf	efgtoa@sign& (0+255),b
  4618   001030                     
  4619                           ; BSR set to: 0
  4620                           ;C:\Program Files\Microchip\xc8\v2.41\pic\sources\c99\common\doprnt.c: 540:     g.f = f;
  4621   001030  C04D  F084         	movff	efgtoa@f,efgtoa@g
  4622   001034  C04E  F085         	movff	efgtoa@f+1,efgtoa@g+1
  4623   001038  C04F  F086         	movff	efgtoa@f+2,efgtoa@g+2
  4624   00103C  C050  F087         	movff	efgtoa@f+3,efgtoa@g+3
  4625   001040                     
  4626                           ; BSR set to: 0
  4627                           ;C:\Program Files\Microchip\xc8\v2.41\pic\sources\c99\common\doprnt.c: 541:     if (g.f 
      +                          < 0.0) {
  4628   001040  BF87               	btfsc	(efgtoa@g+3)& (0+255),7,b
  4629   001042  EF27  F008         	goto	i2u441_40
  4630   001046  EF25  F008         	goto	i2u441_41
  4631   00104A                     i2u441_41:
  4632   00104A  EF3B  F008         	goto	i2l4552
  4633   00104E                     i2u441_40:
  4634   00104E                     
  4635                           ; BSR set to: 0
  4636                           ;C:\Program Files\Microchip\xc8\v2.41\pic\sources\c99\common\doprnt.c: 542:         sign
      +                           = 1;
  4637   00104E  0E01               	movlw	1
  4638   001050  6F81               	movwf	efgtoa@sign& (0+255),b
  4639   001052                     
  4640                           ; BSR set to: 0
  4641                           ;C:\Program Files\Microchip\xc8\v2.41\pic\sources\c99\common\doprnt.c: 543:         g.f 
      +                          = -g.f;
  4642   001052  C084  F001         	movff	efgtoa@g,___flneg@f1
  4643   001056  C085  F002         	movff	efgtoa@g+1,___flneg@f1+1
  4644   00105A  C086  F003         	movff	efgtoa@g+2,___flneg@f1+2
  4645   00105E  C087  F004         	movff	efgtoa@g+3,___flneg@f1+3
  4646   001062  ECAB  F026         	call	___flneg	;wreg free
  4647   001066  C001  F084         	movff	?___flneg,efgtoa@g
  4648   00106A  C002  F085         	movff	?___flneg+1,efgtoa@g+1
  4649   00106E  C003  F086         	movff	?___flneg+2,efgtoa@g+2
  4650   001072  C004  F087         	movff	?___flneg+3,efgtoa@g+3
  4651   001076                     i2l4552:
  4652                           
  4653                           ;C:\Program Files\Microchip\xc8\v2.41\pic\sources\c99\common\doprnt.c: 547:     n = 0;
  4654   001076  0E00               	movlw	0
  4655   001078  0100               	movlb	0	; () banked
  4656   00107A  6F83               	movwf	(efgtoa@n+1)& (0+255),b
  4657   00107C  0E00               	movlw	0
  4658   00107E  6F82               	movwf	efgtoa@n& (0+255),b
  4659   001080                     
  4660                           ; BSR set to: 0
  4661                           ;C:\Program Files\Microchip\xc8\v2.41\pic\sources\c99\common\doprnt.c: 548:     w = widt
      +                          h;
  4662   001080  C0F4  F071         	movff	_width,efgtoa@w
  4663   001084  C0F5  F072         	movff	_width+1,efgtoa@w+1
  4664   001088                     
  4665                           ; BSR set to: 0
  4666                           ;C:\Program Files\Microchip\xc8\v2.41\pic\sources\c99\common\doprnt.c: 549:     if (sign
  4667   001088  5181               	movf	efgtoa@sign& (0+255),w,b
  4668   00108A  B4D8               	btfsc	status,2,c
  4669   00108C  EF4A  F008         	goto	i2u442_41
  4670   001090  EF4C  F008         	goto	i2u442_40
  4671   001094                     i2u442_41:
  4672   001094  EF60  F008         	goto	i2l4566
  4673   001098                     i2u442_40:
  4674   001098                     
  4675                           ; BSR set to: 0
  4676                           ;C:\Program Files\Microchip\xc8\v2.41\pic\sources\c99\common\doprnt.c: 553:    ) {;C:\Pr
      +                          ogram Files\Microchip\xc8\v2.41\pic\sources\c99\common\doprnt.c: 554:   sign = sign ? '-
      +                          ' : '+';
  4677   001098  5181               	movf	efgtoa@sign& (0+255),w,b
  4678   00109A  A4D8               	btfss	status,2,c
  4679   00109C  EF52  F008         	goto	i2u443_41
  4680   0010A0  EF54  F008         	goto	i2u443_40
  4681   0010A4                     i2u443_41:
  4682   0010A4  EF5A  F008         	goto	i2l4562
  4683   0010A8                     i2u443_40:
  4684   0010A8                     
  4685                           ; BSR set to: 0
  4686   0010A8  0E00               	movlw	0
  4687   0010AA  6F67               	movwf	(_efgtoa$2130+1)& (0+255),b
  4688   0010AC  0E2B               	movlw	43
  4689   0010AE  6F66               	movwf	_efgtoa$2130& (0+255),b
  4690   0010B0  EF5E  F008         	goto	i2l4564
  4691   0010B4                     i2l4562:
  4692                           
  4693                           ; BSR set to: 0
  4694   0010B4  0E00               	movlw	0
  4695   0010B6  6F67               	movwf	(_efgtoa$2130+1)& (0+255),b
  4696   0010B8  0E2D               	movlw	45
  4697   0010BA  6F66               	movwf	_efgtoa$2130& (0+255),b
  4698   0010BC                     i2l4564:
  4699                           
  4700                           ; BSR set to: 0
  4701   0010BC  C066  F081         	movff	_efgtoa$2130,efgtoa@sign
  4702   0010C0                     i2l4566:
  4703                           
  4704                           ; BSR set to: 0
  4705                           ;C:\Program Files\Microchip\xc8\v2.41\pic\sources\c99\common\doprnt.c: 563:     if (( __
      +                          fpclassifyf(g.f) == 1 )) {
  4706   0010C0  C084  F001         	movff	efgtoa@g,___fpclassifyf@x
  4707   0010C4  C085  F002         	movff	efgtoa@g+1,___fpclassifyf@x+1
  4708   0010C8  C086  F003         	movff	efgtoa@g+2,___fpclassifyf@x+2
  4709   0010CC  C087  F004         	movff	efgtoa@g+3,___fpclassifyf@x+3
  4710   0010D0  ECC1  F01E         	call	___fpclassifyf	;wreg free
  4711   0010D4  0401               	decf	?___fpclassifyf^0,w,c
  4712   0010D6  1002               	iorwf	(?___fpclassifyf+1)^0,w,c
  4713   0010D8  A4D8               	btfss	status,2,c
  4714   0010DA  EF71  F008         	goto	i2u444_41
  4715   0010DE  EF73  F008         	goto	i2u444_40
  4716   0010E2                     i2u444_41:
  4717   0010E2  EFA6  F008         	goto	i2l4584
  4718   0010E6                     i2u444_40:
  4719   0010E6                     
  4720                           ;C:\Program Files\Microchip\xc8\v2.41\pic\sources\c99\common\doprnt.c: 564:   if (sign) 
      +                          {
  4721   0010E6  0100               	movlb	0	; () banked
  4722   0010E8  5181               	movf	efgtoa@sign& (0+255),w,b
  4723   0010EA  B4D8               	btfsc	status,2,c
  4724   0010EC  EF7A  F008         	goto	i2u445_41
  4725   0010F0  EF7C  F008         	goto	i2u445_40
  4726   0010F4                     i2u445_41:
  4727   0010F4  EF85  F008         	goto	i2l4576
  4728   0010F8                     i2u445_40:
  4729   0010F8                     
  4730                           ; BSR set to: 0
  4731                           ;C:\Program Files\Microchip\xc8\v2.41\pic\sources\c99\common\doprnt.c: 565:    dbuf[0] =
      +                           sign;
  4732   0010F8  C081  F11A         	movff	efgtoa@sign,_dbuf
  4733   0010FC                     
  4734                           ; BSR set to: 0
  4735                           ;C:\Program Files\Microchip\xc8\v2.41\pic\sources\c99\common\doprnt.c: 566:    w--;
  4736   0010FC  0771               	decf	efgtoa@w& (0+255),f,b
  4737   0010FE  A0D8               	btfss	status,0,c
  4738   001100  0772               	decf	(efgtoa@w+1)& (0+255),f,b
  4739   001102                     
  4740                           ; BSR set to: 0
  4741                           ;C:\Program Files\Microchip\xc8\v2.41\pic\sources\c99\common\doprnt.c: 567:    n = 1;
  4742   001102  0E00               	movlw	0
  4743   001104  6F83               	movwf	(efgtoa@n+1)& (0+255),b
  4744   001106  0E01               	movlw	1
  4745   001108  6F82               	movwf	efgtoa@n& (0+255),b
  4746   00110A                     i2l4576:
  4747                           
  4748                           ; BSR set to: 0
  4749                           ;C:\Program Files\Microchip\xc8\v2.41\pic\sources\c99\common\doprnt.c: 575:   {;C:\Progr
      +                          am Files\Microchip\xc8\v2.41\pic\sources\c99\common\doprnt.c: 576:             strcpy(&d
      +                          buf[n], "inf");
  4750   00110A  0E1A               	movlw	low _dbuf
  4751   00110C  2582               	addwf	efgtoa@n& (0+255),w,b
  4752   00110E  6E01               	movwf	strcpy@dest^0,c
  4753   001110  0E01               	movlw	high _dbuf
  4754   001112  2183               	addwfc	(efgtoa@n+1)& (0+255),w,b
  4755   001114  6E02               	movwf	(strcpy@dest+1)^0,c
  4756   001116  0E1E               	movlw	low STR_4
  4757   001118  6E03               	movwf	strcpy@src^0,c
  4758   00111A  0E10               	movlw	high STR_4
  4759   00111C  6E04               	movwf	(strcpy@src+1)^0,c
  4760   00111E  ECCC  F025         	call	_strcpy	;wreg free
  4761   001122                     i2l4578:
  4762                           
  4763                           ;C:\Program Files\Microchip\xc8\v2.41\pic\sources\c99\common\doprnt.c: 577:         };C:
      +                          \Program Files\Microchip\xc8\v2.41\pic\sources\c99\common\doprnt.c: 578:         w -= ((
      +                          sizeof("inf")/sizeof("inf"[0]))-1);
  4764   001122  0100               	movlb	0	; () banked
  4765   001124  0EFD               	movlw	253
  4766   001126  2771               	addwf	efgtoa@w& (0+255),f,b
  4767   001128  0EFF               	movlw	255
  4768   00112A  2372               	addwfc	(efgtoa@w+1)& (0+255),f,b
  4769   00112C                     
  4770                           ; BSR set to: 0
  4771                           ;C:\Program Files\Microchip\xc8\v2.41\pic\sources\c99\common\doprnt.c: 579:         retu
      +                          rn (void) pad(fp, &dbuf[0], w);
  4772   00112C  C04B  F011         	movff	efgtoa@fp,pad@fp
  4773   001130  C04C  F012         	movff	efgtoa@fp+1,pad@fp+1
  4774   001134  0E1A               	movlw	low _dbuf
  4775   001136  6E13               	movwf	pad@buf^0,c
  4776   001138  0E01               	movlw	high _dbuf
  4777   00113A  6E14               	movwf	(pad@buf+1)^0,c
  4778   00113C  C071  F015         	movff	efgtoa@w,pad@p
  4779   001140  C072  F016         	movff	efgtoa@w+1,pad@p+1
  4780   001144  ECCD  F022         	call	_pad	;wreg free
  4781   001148  EF10  F00D         	goto	i2l1328
  4782   00114C                     i2l4584:
  4783                           
  4784                           ;C:\Program Files\Microchip\xc8\v2.41\pic\sources\c99\common\doprnt.c: 581:     if (( __
      +                          fpclassifyf(g.f) == 0 )) {
  4785   00114C  C084  F001         	movff	efgtoa@g,___fpclassifyf@x
  4786   001150  C085  F002         	movff	efgtoa@g+1,___fpclassifyf@x+1
  4787   001154  C086  F003         	movff	efgtoa@g+2,___fpclassifyf@x+2
  4788   001158  C087  F004         	movff	efgtoa@g+3,___fpclassifyf@x+3
  4789   00115C  ECC1  F01E         	call	___fpclassifyf	;wreg free
  4790   001160  5001               	movf	?___fpclassifyf^0,w,c
  4791   001162  1002               	iorwf	(?___fpclassifyf+1)^0,w,c
  4792   001164  A4D8               	btfss	status,2,c
  4793   001166  EFB7  F008         	goto	i2u446_41
  4794   00116A  EFB9  F008         	goto	i2u446_40
  4795   00116E                     i2u446_41:
  4796   00116E  EFD9  F008         	goto	i2l4602
  4797   001172                     i2u446_40:
  4798   001172                     
  4799                           ;C:\Program Files\Microchip\xc8\v2.41\pic\sources\c99\common\doprnt.c: 582:   if (sign) 
      +                          {
  4800   001172  0100               	movlb	0	; () banked
  4801   001174  5181               	movf	efgtoa@sign& (0+255),w,b
  4802   001176  B4D8               	btfsc	status,2,c
  4803   001178  EFC0  F008         	goto	i2u447_41
  4804   00117C  EFC2  F008         	goto	i2u447_40
  4805   001180                     i2u447_41:
  4806   001180  EFCB  F008         	goto	i2l4594
  4807   001184                     i2u447_40:
  4808   001184                     
  4809                           ; BSR set to: 0
  4810                           ;C:\Program Files\Microchip\xc8\v2.41\pic\sources\c99\common\doprnt.c: 583:    dbuf[0] =
      +                           sign;
  4811   001184  C081  F11A         	movff	efgtoa@sign,_dbuf
  4812   001188                     
  4813                           ; BSR set to: 0
  4814                           ;C:\Program Files\Microchip\xc8\v2.41\pic\sources\c99\common\doprnt.c: 584:    w--;
  4815   001188  0771               	decf	efgtoa@w& (0+255),f,b
  4816   00118A  A0D8               	btfss	status,0,c
  4817   00118C  0772               	decf	(efgtoa@w+1)& (0+255),f,b
  4818   00118E                     
  4819                           ; BSR set to: 0
  4820                           ;C:\Program Files\Microchip\xc8\v2.41\pic\sources\c99\common\doprnt.c: 585:    n = 1;
  4821   00118E  0E00               	movlw	0
  4822   001190  6F83               	movwf	(efgtoa@n+1)& (0+255),b
  4823   001192  0E01               	movlw	1
  4824   001194  6F82               	movwf	efgtoa@n& (0+255),b
  4825   001196                     i2l4594:
  4826                           
  4827                           ; BSR set to: 0
  4828                           ;C:\Program Files\Microchip\xc8\v2.41\pic\sources\c99\common\doprnt.c: 593:   {;C:\Progr
      +                          am Files\Microchip\xc8\v2.41\pic\sources\c99\common\doprnt.c: 594:             strcpy(&d
      +                          buf[n], "nan");
  4829   001196  0E1A               	movlw	low _dbuf
  4830   001198  2582               	addwf	efgtoa@n& (0+255),w,b
  4831   00119A  6E01               	movwf	strcpy@dest^0,c
  4832   00119C  0E01               	movlw	high _dbuf
  4833   00119E  2183               	addwfc	(efgtoa@n+1)& (0+255),w,b
  4834   0011A0  6E02               	movwf	(strcpy@dest+1)^0,c
  4835   0011A2  0E22               	movlw	low STR_7
  4836   0011A4  6E03               	movwf	strcpy@src^0,c
  4837   0011A6  0E10               	movlw	high STR_7
  4838   0011A8  6E04               	movwf	(strcpy@src+1)^0,c
  4839   0011AA  ECCC  F025         	call	_strcpy	;wreg free
  4840   0011AE  EF91  F008         	goto	i2l4578
  4841   0011B2                     i2l4602:
  4842                           
  4843                           ;C:\Program Files\Microchip\xc8\v2.41\pic\sources\c99\common\doprnt.c: 601:     u.f = 1.
      +                          0;
  4844   0011B2  0E00               	movlw	0
  4845   0011B4  0100               	movlb	0	; () banked
  4846   0011B6  6F88               	movwf	efgtoa@u& (0+255),b
  4847   0011B8  0E00               	movlw	0
  4848   0011BA  6F89               	movwf	(efgtoa@u+1)& (0+255),b
  4849   0011BC  0E80               	movlw	128
  4850   0011BE  6F8A               	movwf	(efgtoa@u+2)& (0+255),b
  4851   0011C0  0E3F               	movlw	63
  4852   0011C2  6F8B               	movwf	(efgtoa@u+3)& (0+255),b
  4853                           
  4854                           ;C:\Program Files\Microchip\xc8\v2.41\pic\sources\c99\common\doprnt.c: 602:     e = 0;
  4855   0011C4  0E00               	movlw	0
  4856   0011C6  6F70               	movwf	(efgtoa@e+1)& (0+255),b
  4857   0011C8  0E00               	movlw	0
  4858   0011CA  6F6F               	movwf	efgtoa@e& (0+255),b
  4859   0011CC                     
  4860                           ; BSR set to: 0
  4861                           ;C:\Program Files\Microchip\xc8\v2.41\pic\sources\c99\common\doprnt.c: 603:  if (!(g.f =
      +                          = 0.0)) {
  4862   0011CC  C084  F001         	movff	efgtoa@g,___fleq@ff1
  4863   0011D0  C085  F002         	movff	efgtoa@g+1,___fleq@ff1+1
  4864   0011D4  C086  F003         	movff	efgtoa@g+2,___fleq@ff1+2
  4865   0011D8  C087  F004         	movff	efgtoa@g+3,___fleq@ff1+3
  4866   0011DC  0E00               	movlw	0
  4867   0011DE  6E05               	movwf	___fleq@ff2^0,c
  4868   0011E0  0E00               	movlw	0
  4869   0011E2  6E06               	movwf	(___fleq@ff2+1)^0,c
  4870   0011E4  0E00               	movlw	0
  4871   0011E6  6E07               	movwf	(___fleq@ff2+2)^0,c
  4872   0011E8  0E00               	movlw	0
  4873   0011EA  6E08               	movwf	(___fleq@ff2+3)^0,c
  4874   0011EC  EC78  F022         	call	___fleq	;wreg free
  4875   0011F0  B0D8               	btfsc	status,0,c
  4876   0011F2  EFFD  F008         	goto	i2u448_41
  4877   0011F6  EFFF  F008         	goto	i2u448_40
  4878   0011FA                     i2u448_41:
  4879   0011FA  EFDE  F009         	goto	i2l1331
  4880   0011FE                     i2u448_40:
  4881   0011FE  EF0C  F009         	goto	i2l4610
  4882   001202                     i2l1333:
  4883                           
  4884                           ;C:\Program Files\Microchip\xc8\v2.41\pic\sources\c99\common\doprnt.c: 605:    u = ou;
  4885   001202  C073  F088         	movff	efgtoa@ou,efgtoa@u
  4886   001206  C074  F089         	movff	efgtoa@ou+1,efgtoa@u+1
  4887   00120A  C075  F08A         	movff	efgtoa@ou+2,efgtoa@u+2
  4888   00120E  C076  F08B         	movff	efgtoa@ou+3,efgtoa@u+3
  4889   001212                     
  4890                           ;C:\Program Files\Microchip\xc8\v2.41\pic\sources\c99\common\doprnt.c: 606:    ++e;
  4891   001212  0100               	movlb	0	; () banked
  4892   001214  4B6F               	infsnz	efgtoa@e& (0+255),f,b
  4893   001216  2B70               	incf	(efgtoa@e+1)& (0+255),f,b
  4894   001218                     i2l4610:
  4895                           
  4896                           ;C:\Program Files\Microchip\xc8\v2.41\pic\sources\c99\common\doprnt.c: 604:   while ((la
      +                          bs((g).u-((ou.f = u.f*10.0,ou)).u) <= 1) || g.f > ou.f) {
  4897   001218  C088  F001         	movff	efgtoa@u,___flmul@b
  4898   00121C  C089  F002         	movff	efgtoa@u+1,___flmul@b+1
  4899   001220  C08A  F003         	movff	efgtoa@u+2,___flmul@b+2
  4900   001224  C08B  F004         	movff	efgtoa@u+3,___flmul@b+3
  4901   001228  0E00               	movlw	0
  4902   00122A  6E05               	movwf	___flmul@a^0,c
  4903   00122C  0E00               	movlw	0
  4904   00122E  6E06               	movwf	(___flmul@a+1)^0,c
  4905   001230  0E20               	movlw	32
  4906   001232  6E07               	movwf	(___flmul@a+2)^0,c
  4907   001234  0E41               	movlw	65
  4908   001236  6E08               	movwf	(___flmul@a+3)^0,c
  4909   001238  EC15  F013         	call	___flmul	;wreg free
  4910   00123C  C001  F073         	movff	?___flmul,efgtoa@ou
  4911   001240  C002  F074         	movff	?___flmul+1,efgtoa@ou+1
  4912   001244  C003  F075         	movff	?___flmul+2,efgtoa@ou+2
  4913   001248  C004  F076         	movff	?___flmul+3,efgtoa@ou+3
  4914   00124C  0100               	movlb	0	; () banked
  4915   00124E  5173               	movf	efgtoa@ou& (0+255),w,b
  4916   001250  5D84               	subwf	efgtoa@g& (0+255),w,b
  4917   001252  6E01               	movwf	labs@a^0,c
  4918   001254  5174               	movf	(efgtoa@ou+1)& (0+255),w,b
  4919   001256  5985               	subwfb	(efgtoa@g+1)& (0+255),w,b
  4920   001258  6E02               	movwf	(labs@a+1)^0,c
  4921   00125A  5175               	movf	(efgtoa@ou+2)& (0+255),w,b
  4922   00125C  5986               	subwfb	(efgtoa@g+2)& (0+255),w,b
  4923   00125E  6E03               	movwf	(labs@a+2)^0,c
  4924   001260  5176               	movf	(efgtoa@ou+3)& (0+255),w,b
  4925   001262  5987               	subwfb	(efgtoa@g+3)& (0+255),w,b
  4926   001264  6E04               	movwf	(labs@a+3)^0,c
  4927   001266  ECEC  F023         	call	_labs	;wreg free
  4928   00126A  BE04               	btfsc	(?_labs+3)^0,7,c
  4929   00126C  EF43  F009         	goto	i2u449_41
  4930   001270  5004               	movf	(?_labs+3)^0,w,c
  4931   001272  1003               	iorwf	(?_labs+2)^0,w,c
  4932   001274  1002               	iorwf	(?_labs+1)^0,w,c
  4933   001276  E109               	bnz	i2u449_40
  4934   001278  0E02               	movlw	2
  4935   00127A  5C01               	subwf	?_labs^0,w,c
  4936   00127C  A0D8               	btfss	status,0,c
  4937   00127E  EF43  F009         	goto	i2u449_41
  4938   001282  EF45  F009         	goto	i2u449_40
  4939   001286                     i2u449_41:
  4940   001286  EF01  F009         	goto	i2l1333
  4941   00128A                     i2u449_40:
  4942   00128A  C073  F01A         	movff	efgtoa@ou,___flge@ff1
  4943   00128E  C074  F01B         	movff	efgtoa@ou+1,___flge@ff1+1
  4944   001292  C075  F01C         	movff	efgtoa@ou+2,___flge@ff1+2
  4945   001296  C076  F01D         	movff	efgtoa@ou+3,___flge@ff1+3
  4946   00129A  C084  F01E         	movff	efgtoa@g,___flge@ff2
  4947   00129E  C085  F01F         	movff	efgtoa@g+1,___flge@ff2+1
  4948   0012A2  C086  F020         	movff	efgtoa@g+2,___flge@ff2+2
  4949   0012A6  C087  F021         	movff	efgtoa@g+3,___flge@ff2+3
  4950   0012AA  EC3F  F01E         	call	___flge	;wreg free
  4951   0012AE  A0D8               	btfss	status,0,c
  4952   0012B0  EF5C  F009         	goto	i2u450_41
  4953   0012B4  EF5E  F009         	goto	i2u450_40
  4954   0012B8                     i2u450_41:
  4955   0012B8  EF01  F009         	goto	i2l1333
  4956   0012BC                     i2u450_40:
  4957   0012BC                     
  4958                           ;C:\Program Files\Microchip\xc8\v2.41\pic\sources\c99\common\doprnt.c: 608:   if ((labs(
      +                          (g).u-(u).u) <= 1)) {
  4959   0012BC  0100               	movlb	0	; () banked
  4960   0012BE  5188               	movf	efgtoa@u& (0+255),w,b
  4961   0012C0  5D84               	subwf	efgtoa@g& (0+255),w,b
  4962   0012C2  6E01               	movwf	labs@a^0,c
  4963   0012C4  5189               	movf	(efgtoa@u+1)& (0+255),w,b
  4964   0012C6  5985               	subwfb	(efgtoa@g+1)& (0+255),w,b
  4965   0012C8  6E02               	movwf	(labs@a+1)^0,c
  4966   0012CA  518A               	movf	(efgtoa@u+2)& (0+255),w,b
  4967   0012CC  5986               	subwfb	(efgtoa@g+2)& (0+255),w,b
  4968   0012CE  6E03               	movwf	(labs@a+2)^0,c
  4969   0012D0  518B               	movf	(efgtoa@u+3)& (0+255),w,b
  4970   0012D2  5987               	subwfb	(efgtoa@g+3)& (0+255),w,b
  4971   0012D4  6E04               	movwf	(labs@a+3)^0,c
  4972   0012D6  ECEC  F023         	call	_labs	;wreg free
  4973   0012DA  BE04               	btfsc	(?_labs+3)^0,7,c
  4974   0012DC  EF7D  F009         	goto	i2u451_40
  4975   0012E0  5004               	movf	(?_labs+3)^0,w,c
  4976   0012E2  1003               	iorwf	(?_labs+2)^0,w,c
  4977   0012E4  1002               	iorwf	(?_labs+1)^0,w,c
  4978   0012E6  E107               	bnz	i2u451_41
  4979   0012E8  0E02               	movlw	2
  4980   0012EA  5C01               	subwf	?_labs^0,w,c
  4981   0012EC  B0D8               	btfsc	status,0,c
  4982   0012EE  EF7B  F009         	goto	i2u451_41
  4983   0012F2  EF7D  F009         	goto	i2u451_40
  4984   0012F6                     i2u451_41:
  4985   0012F6  EFC5  F009         	goto	i2l4628
  4986   0012FA                     i2u451_40:
  4987   0012FA                     i2l4618:
  4988                           
  4989                           ;C:\Program Files\Microchip\xc8\v2.41\pic\sources\c99\common\doprnt.c: 609:    g = u;
  4990   0012FA  C088  F084         	movff	efgtoa@u,efgtoa@g
  4991   0012FE  C089  F085         	movff	efgtoa@u+1,efgtoa@g+1
  4992   001302  C08A  F086         	movff	efgtoa@u+2,efgtoa@g+2
  4993   001306  C08B  F087         	movff	efgtoa@u+3,efgtoa@g+3
  4994                           
  4995                           ;C:\Program Files\Microchip\xc8\v2.41\pic\sources\c99\common\doprnt.c: 610:   }
  4996   00130A  EFDE  F009         	goto	i2l1331
  4997   00130E                     i2l4620:
  4998                           
  4999                           ;C:\Program Files\Microchip\xc8\v2.41\pic\sources\c99\common\doprnt.c: 613:     u.f = u.
      +                          f/10.0;
  5000   00130E  C088  F01A         	movff	efgtoa@u,___fldiv@b
  5001   001312  C089  F01B         	movff	efgtoa@u+1,___fldiv@b+1
  5002   001316  C08A  F01C         	movff	efgtoa@u+2,___fldiv@b+2
  5003   00131A  C08B  F01D         	movff	efgtoa@u+3,___fldiv@b+3
  5004   00131E  0E00               	movlw	0
  5005   001320  6E1E               	movwf	___fldiv@a^0,c
  5006   001322  0E00               	movlw	0
  5007   001324  6E1F               	movwf	(___fldiv@a+1)^0,c
  5008   001326  0E20               	movlw	32
  5009   001328  6E20               	movwf	(___fldiv@a+2)^0,c
  5010   00132A  0E41               	movlw	65
  5011   00132C  6E21               	movwf	(___fldiv@a+3)^0,c
  5012   00132E  EC0A  F017         	call	___fldiv	;wreg free
  5013   001332  C01A  F088         	movff	?___fldiv,efgtoa@u
  5014   001336  C01B  F089         	movff	?___fldiv+1,efgtoa@u+1
  5015   00133A  C01C  F08A         	movff	?___fldiv+2,efgtoa@u+2
  5016   00133E  C01D  F08B         	movff	?___fldiv+3,efgtoa@u+3
  5017   001342                     
  5018                           ;C:\Program Files\Microchip\xc8\v2.41\pic\sources\c99\common\doprnt.c: 614:     --e;
  5019   001342  0100               	movlb	0	; () banked
  5020   001344  076F               	decf	efgtoa@e& (0+255),f,b
  5021   001346  A0D8               	btfss	status,0,c
  5022   001348  0770               	decf	(efgtoa@e+1)& (0+255),f,b
  5023   00134A                     
  5024                           ; BSR set to: 0
  5025                           ;C:\Program Files\Microchip\xc8\v2.41\pic\sources\c99\common\doprnt.c: 615:     if ((lab
      +                          s((g).u-(u).u) <= 1)) {
  5026   00134A  5188               	movf	efgtoa@u& (0+255),w,b
  5027   00134C  5D84               	subwf	efgtoa@g& (0+255),w,b
  5028   00134E  6E01               	movwf	labs@a^0,c
  5029   001350  5189               	movf	(efgtoa@u+1)& (0+255),w,b
  5030   001352  5985               	subwfb	(efgtoa@g+1)& (0+255),w,b
  5031   001354  6E02               	movwf	(labs@a+1)^0,c
  5032   001356  518A               	movf	(efgtoa@u+2)& (0+255),w,b
  5033   001358  5986               	subwfb	(efgtoa@g+2)& (0+255),w,b
  5034   00135A  6E03               	movwf	(labs@a+2)^0,c
  5035   00135C  518B               	movf	(efgtoa@u+3)& (0+255),w,b
  5036   00135E  5987               	subwfb	(efgtoa@g+3)& (0+255),w,b
  5037   001360  6E04               	movwf	(labs@a+3)^0,c
  5038   001362  ECEC  F023         	call	_labs	;wreg free
  5039   001366  BE04               	btfsc	(?_labs+3)^0,7,c
  5040   001368  EFC3  F009         	goto	i2u452_40
  5041   00136C  5004               	movf	(?_labs+3)^0,w,c
  5042   00136E  1003               	iorwf	(?_labs+2)^0,w,c
  5043   001370  1002               	iorwf	(?_labs+1)^0,w,c
  5044   001372  E107               	bnz	i2u452_41
  5045   001374  0E02               	movlw	2
  5046   001376  5C01               	subwf	?_labs^0,w,c
  5047   001378  B0D8               	btfsc	status,0,c
  5048   00137A  EFC1  F009         	goto	i2u452_41
  5049   00137E  EFC3  F009         	goto	i2u452_40
  5050   001382                     i2u452_41:
  5051   001382  EFC5  F009         	goto	i2l4628
  5052   001386                     i2u452_40:
  5053   001386  EF7D  F009         	goto	i2l4618
  5054   00138A                     i2l4628:
  5055                           
  5056                           ;C:\Program Files\Microchip\xc8\v2.41\pic\sources\c99\common\doprnt.c: 612:    while (g.
      +                          f < u.f) {
  5057   00138A  C084  F01A         	movff	efgtoa@g,___flge@ff1
  5058   00138E  C085  F01B         	movff	efgtoa@g+1,___flge@ff1+1
  5059   001392  C086  F01C         	movff	efgtoa@g+2,___flge@ff1+2
  5060   001396  C087  F01D         	movff	efgtoa@g+3,___flge@ff1+3
  5061   00139A  C088  F01E         	movff	efgtoa@u,___flge@ff2
  5062   00139E  C089  F01F         	movff	efgtoa@u+1,___flge@ff2+1
  5063   0013A2  C08A  F020         	movff	efgtoa@u+2,___flge@ff2+2
  5064   0013A6  C08B  F021         	movff	efgtoa@u+3,___flge@ff2+3
  5065   0013AA  EC3F  F01E         	call	___flge	;wreg free
  5066   0013AE  A0D8               	btfss	status,0,c
  5067   0013B0  EFDC  F009         	goto	i2u453_41
  5068   0013B4  EFDE  F009         	goto	i2u453_40
  5069   0013B8                     i2u453_41:
  5070   0013B8  EF87  F009         	goto	i2l4620
  5071   0013BC                     i2u453_40:
  5072   0013BC                     i2l1331:
  5073                           
  5074                           ;C:\Program Files\Microchip\xc8\v2.41\pic\sources\c99\common\doprnt.c: 627:  mode = c;
  5075   0013BC  C051  F069         	movff	efgtoa@c,efgtoa@mode
  5076                           
  5077                           ;C:\Program Files\Microchip\xc8\v2.41\pic\sources\c99\common\doprnt.c: 629:     nmode = 
      +                          mode;
  5078   0013C0  C069  F06A         	movff	efgtoa@mode,efgtoa@nmode
  5079   0013C4                     
  5080                           ;C:\Program Files\Microchip\xc8\v2.41\pic\sources\c99\common\doprnt.c: 639:  {;C:\Progra
      +                          m Files\Microchip\xc8\v2.41\pic\sources\c99\common\doprnt.c: 640:         p = (prec < 0)
      +                           ? 6 : prec;
  5081   0013C4  0100               	movlb	0	; () banked
  5082   0013C6  BFF7               	btfsc	(_prec+1)& (0+255),7,b
  5083   0013C8  EFE8  F009         	goto	i2u454_41
  5084   0013CC  EFEA  F009         	goto	i2u454_40
  5085   0013D0                     i2u454_41:
  5086   0013D0  EFF0  F009         	goto	i2l4634
  5087   0013D4                     i2u454_40:
  5088   0013D4                     
  5089                           ; BSR set to: 0
  5090   0013D4  C0F6  F062         	movff	_prec,efgtoa@p
  5091   0013D8  C0F7  F063         	movff	_prec+1,efgtoa@p+1
  5092   0013DC  EFF4  F009         	goto	i2l4636
  5093   0013E0                     i2l4634:
  5094                           
  5095                           ; BSR set to: 0
  5096   0013E0  0E00               	movlw	0
  5097   0013E2  6F63               	movwf	(efgtoa@p+1)& (0+255),b
  5098   0013E4  0E06               	movlw	6
  5099   0013E6  6F62               	movwf	efgtoa@p& (0+255),b
  5100   0013E8                     i2l4636:
  5101                           
  5102                           ; BSR set to: 0
  5103                           ;C:\Program Files\Microchip\xc8\v2.41\pic\sources\c99\common\doprnt.c: 641:     };C:\Pro
      +                          gram Files\Microchip\xc8\v2.41\pic\sources\c99\common\doprnt.c: 655:     m = p;
  5104   0013E8  C062  F06D         	movff	efgtoa@p,efgtoa@m
  5105   0013EC  C063  F06E         	movff	efgtoa@p+1,efgtoa@m+1
  5106   0013F0                     
  5107                           ; BSR set to: 0
  5108                           ;C:\Program Files\Microchip\xc8\v2.41\pic\sources\c99\common\doprnt.c: 659:  {;C:\Progra
      +                          m Files\Microchip\xc8\v2.41\pic\sources\c99\common\doprnt.c: 660:         ++m;
  5109   0013F0  4B6D               	infsnz	efgtoa@m& (0+255),f,b
  5110   0013F2  2B6E               	incf	(efgtoa@m+1)& (0+255),f,b
  5111   0013F4                     
  5112                           ; BSR set to: 0
  5113                           ;C:\Program Files\Microchip\xc8\v2.41\pic\sources\c99\common\doprnt.c: 661:     };C:\Pro
      +                          gram Files\Microchip\xc8\v2.41\pic\sources\c99\common\doprnt.c: 665:     if (nmode == 'f
      +                          ') {
  5114   0013F4  0E66               	movlw	102
  5115   0013F6  196A               	xorwf	efgtoa@nmode& (0+255),w,b
  5116   0013F8  A4D8               	btfss	status,2,c
  5117   0013FA  EF01  F00A         	goto	i2u455_41
  5118   0013FE  EF03  F00A         	goto	i2u455_40
  5119   001402                     i2u455_41:
  5120   001402  EF23  F00A         	goto	i2l4650
  5121   001406                     i2u455_40:
  5122   001406                     
  5123                           ; BSR set to: 0
  5124                           ;C:\Program Files\Microchip\xc8\v2.41\pic\sources\c99\common\doprnt.c: 666:         if (
      +                          e < 0) {
  5125   001406  BF70               	btfsc	(efgtoa@e+1)& (0+255),7,b
  5126   001408  EF0A  F00A         	goto	i2u456_40
  5127   00140C  EF08  F00A         	goto	i2u456_41
  5128   001410                     i2u456_41:
  5129   001410  EF16  F00A         	goto	i2l4646
  5130   001414                     i2u456_40:
  5131   001414                     
  5132                           ; BSR set to: 0
  5133                           ;C:\Program Files\Microchip\xc8\v2.41\pic\sources\c99\common\doprnt.c: 667:             
      +                          u.f = 1.0;
  5134   001414  0E00               	movlw	0
  5135   001416  6F88               	movwf	efgtoa@u& (0+255),b
  5136   001418  0E00               	movlw	0
  5137   00141A  6F89               	movwf	(efgtoa@u+1)& (0+255),b
  5138   00141C  0E80               	movlw	128
  5139   00141E  6F8A               	movwf	(efgtoa@u+2)& (0+255),b
  5140   001420  0E3F               	movlw	63
  5141   001422  6F8B               	movwf	(efgtoa@u+3)& (0+255),b
  5142                           
  5143                           ;C:\Program Files\Microchip\xc8\v2.41\pic\sources\c99\common\doprnt.c: 668:             
      +                          e = 0;
  5144   001424  0E00               	movlw	0
  5145   001426  6F70               	movwf	(efgtoa@e+1)& (0+255),b
  5146   001428  0E00               	movlw	0
  5147   00142A  6F6F               	movwf	efgtoa@e& (0+255),b
  5148   00142C                     i2l4646:
  5149                           
  5150                           ; BSR set to: 0
  5151                           ;C:\Program Files\Microchip\xc8\v2.41\pic\sources\c99\common\doprnt.c: 670:         if (
      +                          !(mode == 'g')) {
  5152   00142C  0E67               	movlw	103
  5153   00142E  1969               	xorwf	efgtoa@mode& (0+255),w,b
  5154   001430  B4D8               	btfsc	status,2,c
  5155   001432  EF1D  F00A         	goto	i2u457_41
  5156   001436  EF1F  F00A         	goto	i2u457_40
  5157   00143A                     i2u457_41:
  5158   00143A  EF23  F00A         	goto	i2l4650
  5159   00143E                     i2u457_40:
  5160   00143E                     
  5161                           ; BSR set to: 0
  5162                           ;C:\Program Files\Microchip\xc8\v2.41\pic\sources\c99\common\doprnt.c: 671:             
      +                          m += e;
  5163   00143E  516F               	movf	efgtoa@e& (0+255),w,b
  5164   001440  276D               	addwf	efgtoa@m& (0+255),f,b
  5165   001442  5170               	movf	(efgtoa@e+1)& (0+255),w,b
  5166   001444  236E               	addwfc	(efgtoa@m+1)& (0+255),f,b
  5167   001446                     i2l4650:
  5168                           
  5169                           ; BSR set to: 0
  5170                           ;C:\Program Files\Microchip\xc8\v2.41\pic\sources\c99\common\doprnt.c: 677:     i = 0;
  5171   001446  0E00               	movlw	0
  5172   001448  6F78               	movwf	(efgtoa@i+1)& (0+255),b
  5173   00144A  0E00               	movlw	0
  5174   00144C  6F77               	movwf	efgtoa@i& (0+255),b
  5175   00144E                     
  5176                           ; BSR set to: 0
  5177                           ;C:\Program Files\Microchip\xc8\v2.41\pic\sources\c99\common\doprnt.c: 678:     h = g.f;
  5178   00144E  C084  F079         	movff	efgtoa@g,efgtoa@h
  5179   001452  C085  F07A         	movff	efgtoa@g+1,efgtoa@h+1
  5180   001456  C086  F07B         	movff	efgtoa@g+2,efgtoa@h+2
  5181   00145A  C087  F07C         	movff	efgtoa@g+3,efgtoa@h+3
  5182   00145E                     
  5183                           ; BSR set to: 0
  5184                           ;C:\Program Files\Microchip\xc8\v2.41\pic\sources\c99\common\doprnt.c: 679:     ou = u;
  5185   00145E  C088  F073         	movff	efgtoa@u,efgtoa@ou
  5186   001462  C089  F074         	movff	efgtoa@u+1,efgtoa@ou+1
  5187   001466  C08A  F075         	movff	efgtoa@u+2,efgtoa@ou+2
  5188   00146A  C08B  F076         	movff	efgtoa@u+3,efgtoa@ou+3
  5189                           
  5190                           ;C:\Program Files\Microchip\xc8\v2.41\pic\sources\c99\common\doprnt.c: 680:     while (i
      +                           < m) {
  5191   00146E  EFB4  F00A         	goto	i2l4664
  5192   001472                     i2l4656:
  5193                           
  5194                           ; BSR set to: 0
  5195                           ;C:\Program Files\Microchip\xc8\v2.41\pic\sources\c99\common\doprnt.c: 681:         l = 
      +                          floorf(h/u.f);
  5196   001472  C079  F01A         	movff	efgtoa@h,___fldiv@b
  5197   001476  C07A  F01B         	movff	efgtoa@h+1,___fldiv@b+1
  5198   00147A  C07B  F01C         	movff	efgtoa@h+2,___fldiv@b+2
  5199   00147E  C07C  F01D         	movff	efgtoa@h+3,___fldiv@b+3
  5200   001482  C088  F01E         	movff	efgtoa@u,___fldiv@a
  5201   001486  C089  F01F         	movff	efgtoa@u+1,___fldiv@a+1
  5202   00148A  C08A  F020         	movff	efgtoa@u+2,___fldiv@a+2
  5203   00148E  C08B  F021         	movff	efgtoa@u+3,___fldiv@a+3
  5204   001492  EC0A  F017         	call	___fldiv	;wreg free
  5205   001496  C01A  F033         	movff	?___fldiv,floorf@x
  5206   00149A  C01B  F034         	movff	?___fldiv+1,floorf@x+1
  5207   00149E  C01C  F035         	movff	?___fldiv+2,floorf@x+2
  5208   0014A2  C01D  F036         	movff	?___fldiv+3,floorf@x+3
  5209   0014A6  EC70  F01A         	call	_floorf	;wreg free
  5210   0014AA  C033  F07D         	movff	?_floorf,efgtoa@l
  5211   0014AE  C034  F07E         	movff	?_floorf+1,efgtoa@l+1
  5212   0014B2  C035  F07F         	movff	?_floorf+2,efgtoa@l+2
  5213   0014B6  C036  F080         	movff	?_floorf+3,efgtoa@l+3
  5214                           
  5215                           ;C:\Program Files\Microchip\xc8\v2.41\pic\sources\c99\common\doprnt.c: 682:         d = 
      +                          (int)l;
  5216   0014BA  C07D  F001         	movff	efgtoa@l,___fltol@f1
  5217   0014BE  C07E  F002         	movff	efgtoa@l+1,___fltol@f1+1
  5218   0014C2  C07F  F003         	movff	efgtoa@l+2,___fltol@f1+2
  5219   0014C6  C080  F004         	movff	efgtoa@l+3,___fltol@f1+3
  5220   0014CA  ECBC  F01D         	call	___fltol	;wreg free
  5221   0014CE  C001  F06B         	movff	?___fltol,efgtoa@d
  5222   0014D2  C002  F06C         	movff	?___fltol+1,efgtoa@d+1
  5223   0014D6                     
  5224                           ;C:\Program Files\Microchip\xc8\v2.41\pic\sources\c99\common\doprnt.c: 683:         h -=
      +                           l*u.f;
  5225   0014D6  C079  F043         	movff	efgtoa@h,___flsub@b
  5226   0014DA  C07A  F044         	movff	efgtoa@h+1,___flsub@b+1
  5227   0014DE  C07B  F045         	movff	efgtoa@h+2,___flsub@b+2
  5228   0014E2  C07C  F046         	movff	efgtoa@h+3,___flsub@b+3
  5229   0014E6  C07D  F005         	movff	efgtoa@l,___flmul@a
  5230   0014EA  C07E  F006         	movff	efgtoa@l+1,___flmul@a+1
  5231   0014EE  C07F  F007         	movff	efgtoa@l+2,___flmul@a+2
  5232   0014F2  C080  F008         	movff	efgtoa@l+3,___flmul@a+3
  5233   0014F6  C088  F001         	movff	efgtoa@u,___flmul@b
  5234   0014FA  C089  F002         	movff	efgtoa@u+1,___flmul@b+1
  5235   0014FE  C08A  F003         	movff	efgtoa@u+2,___flmul@b+2
  5236   001502  C08B  F004         	movff	efgtoa@u+3,___flmul@b+3
  5237   001506  EC15  F013         	call	___flmul	;wreg free
  5238   00150A  C001  F047         	movff	?___flmul,___flsub@a
  5239   00150E  C002  F048         	movff	?___flmul+1,___flsub@a+1
  5240   001512  C003  F049         	movff	?___flmul+2,___flsub@a+2
  5241   001516  C004  F04A         	movff	?___flmul+3,___flsub@a+3
  5242   00151A  EC86  F025         	call	___flsub	;wreg free
  5243   00151E  C043  F079         	movff	?___flsub,efgtoa@h
  5244   001522  C044  F07A         	movff	?___flsub+1,efgtoa@h+1
  5245   001526  C045  F07B         	movff	?___flsub+2,efgtoa@h+2
  5246   00152A  C046  F07C         	movff	?___flsub+3,efgtoa@h+3
  5247   00152E                     
  5248                           ;C:\Program Files\Microchip\xc8\v2.41\pic\sources\c99\common\doprnt.c: 684:         u.f 
      +                          = u.f/10.0;
  5249   00152E  C088  F01A         	movff	efgtoa@u,___fldiv@b
  5250   001532  C089  F01B         	movff	efgtoa@u+1,___fldiv@b+1
  5251   001536  C08A  F01C         	movff	efgtoa@u+2,___fldiv@b+2
  5252   00153A  C08B  F01D         	movff	efgtoa@u+3,___fldiv@b+3
  5253   00153E  0E00               	movlw	0
  5254   001540  6E1E               	movwf	___fldiv@a^0,c
  5255   001542  0E00               	movlw	0
  5256   001544  6E1F               	movwf	(___fldiv@a+1)^0,c
  5257   001546  0E20               	movlw	32
  5258   001548  6E20               	movwf	(___fldiv@a+2)^0,c
  5259   00154A  0E41               	movlw	65
  5260   00154C  6E21               	movwf	(___fldiv@a+3)^0,c
  5261   00154E  EC0A  F017         	call	___fldiv	;wreg free
  5262   001552  C01A  F088         	movff	?___fldiv,efgtoa@u
  5263   001556  C01B  F089         	movff	?___fldiv+1,efgtoa@u+1
  5264   00155A  C01C  F08A         	movff	?___fldiv+2,efgtoa@u+2
  5265   00155E  C01D  F08B         	movff	?___fldiv+3,efgtoa@u+3
  5266   001562                     
  5267                           ;C:\Program Files\Microchip\xc8\v2.41\pic\sources\c99\common\doprnt.c: 685:         ++i;
  5268   001562  0100               	movlb	0	; () banked
  5269   001564  4B77               	infsnz	efgtoa@i& (0+255),f,b
  5270   001566  2B78               	incf	(efgtoa@i+1)& (0+255),f,b
  5271   001568                     i2l4664:
  5272                           
  5273                           ; BSR set to: 0
  5274                           ;C:\Program Files\Microchip\xc8\v2.41\pic\sources\c99\common\doprnt.c: 680:     while (i
      +                           < m) {
  5275   001568  516D               	movf	efgtoa@m& (0+255),w,b
  5276   00156A  5D77               	subwf	efgtoa@i& (0+255),w,b
  5277   00156C  5178               	movf	(efgtoa@i+1)& (0+255),w,b
  5278   00156E  0A80               	xorlw	128
  5279   001570  6E52               	movwf	??_efgtoa^0,c
  5280   001572  516E               	movf	(efgtoa@m+1)& (0+255),w,b
  5281   001574  0A80               	xorlw	128
  5282   001576  5852               	subwfb	??_efgtoa^0,w,c
  5283   001578  A0D8               	btfss	status,0,c
  5284   00157A  EFC1  F00A         	goto	i2u458_41
  5285   00157E  EFC3  F00A         	goto	i2u458_40
  5286   001582                     i2u458_41:
  5287   001582  EF39  F00A         	goto	i2l4656
  5288   001586                     i2u458_40:
  5289   001586                     
  5290                           ; BSR set to: 0
  5291                           ;C:\Program Files\Microchip\xc8\v2.41\pic\sources\c99\common\doprnt.c: 689:     l = u.f*
      +                          5.0;
  5292   001586  C088  F001         	movff	efgtoa@u,___flmul@b
  5293   00158A  C089  F002         	movff	efgtoa@u+1,___flmul@b+1
  5294   00158E  C08A  F003         	movff	efgtoa@u+2,___flmul@b+2
  5295   001592  C08B  F004         	movff	efgtoa@u+3,___flmul@b+3
  5296   001596  0E00               	movlw	0
  5297   001598  6E05               	movwf	___flmul@a^0,c
  5298   00159A  0E00               	movlw	0
  5299   00159C  6E06               	movwf	(___flmul@a+1)^0,c
  5300   00159E  0EA0               	movlw	160
  5301   0015A0  6E07               	movwf	(___flmul@a+2)^0,c
  5302   0015A2  0E40               	movlw	64
  5303   0015A4  6E08               	movwf	(___flmul@a+3)^0,c
  5304   0015A6  EC15  F013         	call	___flmul	;wreg free
  5305   0015AA  C001  F07D         	movff	?___flmul,efgtoa@l
  5306   0015AE  C002  F07E         	movff	?___flmul+1,efgtoa@l+1
  5307   0015B2  C003  F07F         	movff	?___flmul+2,efgtoa@l+2
  5308   0015B6  C004  F080         	movff	?___flmul+3,efgtoa@l+3
  5309   0015BA                     
  5310                           ;C:\Program Files\Microchip\xc8\v2.41\pic\sources\c99\common\doprnt.c: 690:     if (h < 
      +                          l) {
  5311   0015BA  C079  F01A         	movff	efgtoa@h,___flge@ff1
  5312   0015BE  C07A  F01B         	movff	efgtoa@h+1,___flge@ff1+1
  5313   0015C2  C07B  F01C         	movff	efgtoa@h+2,___flge@ff1+2
  5314   0015C6  C07C  F01D         	movff	efgtoa@h+3,___flge@ff1+3
  5315   0015CA  C07D  F01E         	movff	efgtoa@l,___flge@ff2
  5316   0015CE  C07E  F01F         	movff	efgtoa@l+1,___flge@ff2+1
  5317   0015D2  C07F  F020         	movff	efgtoa@l+2,___flge@ff2+2
  5318   0015D6  C080  F021         	movff	efgtoa@l+3,___flge@ff2+3
  5319   0015DA  EC3F  F01E         	call	___flge	;wreg free
  5320   0015DE  B0D8               	btfsc	status,0,c
  5321   0015E0  EFF4  F00A         	goto	i2u459_41
  5322   0015E4  EFF6  F00A         	goto	i2u459_40
  5323   0015E8                     i2u459_41:
  5324   0015E8  EF01  F00B         	goto	i2l4672
  5325   0015EC                     i2u459_40:
  5326   0015EC                     
  5327                           ;C:\Program Files\Microchip\xc8\v2.41\pic\sources\c99\common\doprnt.c: 691:         l = 
      +                          0.0;
  5328   0015EC  0E00               	movlw	0
  5329   0015EE  0100               	movlb	0	; () banked
  5330   0015F0  6F7D               	movwf	efgtoa@l& (0+255),b
  5331   0015F2  0E00               	movlw	0
  5332   0015F4  6F7E               	movwf	(efgtoa@l+1)& (0+255),b
  5333   0015F6  0E00               	movlw	0
  5334   0015F8  6F7F               	movwf	(efgtoa@l+2)& (0+255),b
  5335   0015FA  0E00               	movlw	0
  5336   0015FC  6F80               	movwf	(efgtoa@l+3)& (0+255),b
  5337                           
  5338                           ;C:\Program Files\Microchip\xc8\v2.41\pic\sources\c99\common\doprnt.c: 692:     } else {
  5339   0015FE  EF2A  F00B         	goto	i2l4678
  5340   001602                     i2l4672:
  5341                           
  5342                           ;C:\Program Files\Microchip\xc8\v2.41\pic\sources\c99\common\doprnt.c: 694:         if (
      +                          (h == l) && !(d % 2)) {
  5343   001602  C079  F001         	movff	efgtoa@h,___fleq@ff1
  5344   001606  C07A  F002         	movff	efgtoa@h+1,___fleq@ff1+1
  5345   00160A  C07B  F003         	movff	efgtoa@h+2,___fleq@ff1+2
  5346   00160E  C07C  F004         	movff	efgtoa@h+3,___fleq@ff1+3
  5347   001612  C07D  F005         	movff	efgtoa@l,___fleq@ff2
  5348   001616  C07E  F006         	movff	efgtoa@l+1,___fleq@ff2+1
  5349   00161A  C07F  F007         	movff	efgtoa@l+2,___fleq@ff2+2
  5350   00161E  C080  F008         	movff	efgtoa@l+3,___fleq@ff2+3
  5351   001622  EC78  F022         	call	___fleq	;wreg free
  5352   001626  A0D8               	btfss	status,0,c
  5353   001628  EF18  F00B         	goto	i2u460_41
  5354   00162C  EF1A  F00B         	goto	i2u460_40
  5355   001630                     i2u460_41:
  5356   001630  EF2A  F00B         	goto	i2l4678
  5357   001634                     i2u460_40:
  5358   001634  0100               	movlb	0	; () banked
  5359   001636  B16B               	btfsc	efgtoa@d& (0+255),0,b
  5360   001638  EF20  F00B         	goto	i2u461_41
  5361   00163C  EF22  F00B         	goto	i2u461_40
  5362   001640                     i2u461_41:
  5363   001640  EF2A  F00B         	goto	i2l4678
  5364   001644                     i2u461_40:
  5365   001644                     
  5366                           ; BSR set to: 0
  5367                           ;C:\Program Files\Microchip\xc8\v2.41\pic\sources\c99\common\doprnt.c: 695:             
      +                          l = 0.0;
  5368   001644  0E00               	movlw	0
  5369   001646  6F7D               	movwf	efgtoa@l& (0+255),b
  5370   001648  0E00               	movlw	0
  5371   00164A  6F7E               	movwf	(efgtoa@l+1)& (0+255),b
  5372   00164C  0E00               	movlw	0
  5373   00164E  6F7F               	movwf	(efgtoa@l+2)& (0+255),b
  5374   001650  0E00               	movlw	0
  5375   001652  6F80               	movwf	(efgtoa@l+3)& (0+255),b
  5376   001654                     i2l4678:
  5377                           
  5378                           ;C:\Program Files\Microchip\xc8\v2.41\pic\sources\c99\common\doprnt.c: 700:     h = g.f 
      +                          + l;
  5379   001654  C084  F033         	movff	efgtoa@g,___fladd@b
  5380   001658  C085  F034         	movff	efgtoa@g+1,___fladd@b+1
  5381   00165C  C086  F035         	movff	efgtoa@g+2,___fladd@b+2
  5382   001660  C087  F036         	movff	efgtoa@g+3,___fladd@b+3
  5383   001664  C07D  F037         	movff	efgtoa@l,___fladd@a
  5384   001668  C07E  F038         	movff	efgtoa@l+1,___fladd@a+1
  5385   00166C  C07F  F039         	movff	efgtoa@l+2,___fladd@a+2
  5386   001670  C080  F03A         	movff	efgtoa@l+3,___fladd@a+3
  5387   001674  ECB5  F010         	call	___fladd	;wreg free
  5388   001678  C033  F079         	movff	?___fladd,efgtoa@h
  5389   00167C  C034  F07A         	movff	?___fladd+1,efgtoa@h+1
  5390   001680  C035  F07B         	movff	?___fladd+2,efgtoa@h+2
  5391   001684  C036  F07C         	movff	?___fladd+3,efgtoa@h+3
  5392   001688                     
  5393                           ;C:\Program Files\Microchip\xc8\v2.41\pic\sources\c99\common\doprnt.c: 702:  if (h >= (o
      +                          u.f*10.0)) {
  5394   001688  C079  F01A         	movff	efgtoa@h,___flge@ff1
  5395   00168C  C07A  F01B         	movff	efgtoa@h+1,___flge@ff1+1
  5396   001690  C07B  F01C         	movff	efgtoa@h+2,___flge@ff1+2
  5397   001694  C07C  F01D         	movff	efgtoa@h+3,___flge@ff1+3
  5398   001698  0E00               	movlw	0
  5399   00169A  6E05               	movwf	___flmul@a^0,c
  5400   00169C  0E00               	movlw	0
  5401   00169E  6E06               	movwf	(___flmul@a+1)^0,c
  5402   0016A0  0E20               	movlw	32
  5403   0016A2  6E07               	movwf	(___flmul@a+2)^0,c
  5404   0016A4  0E41               	movlw	65
  5405   0016A6  6E08               	movwf	(___flmul@a+3)^0,c
  5406   0016A8  C073  F001         	movff	efgtoa@ou,___flmul@b
  5407   0016AC  C074  F002         	movff	efgtoa@ou+1,___flmul@b+1
  5408   0016B0  C075  F003         	movff	efgtoa@ou+2,___flmul@b+2
  5409   0016B4  C076  F004         	movff	efgtoa@ou+3,___flmul@b+3
  5410   0016B8  EC15  F013         	call	___flmul	;wreg free
  5411   0016BC  C001  F01E         	movff	?___flmul,___flge@ff2
  5412   0016C0  C002  F01F         	movff	?___flmul+1,___flge@ff2+1
  5413   0016C4  C003  F020         	movff	?___flmul+2,___flge@ff2+2
  5414   0016C8  C004  F021         	movff	?___flmul+3,___flge@ff2+3
  5415   0016CC  EC3F  F01E         	call	___flge	;wreg free
  5416   0016D0  A0D8               	btfss	status,0,c
  5417   0016D2  EF6D  F00B         	goto	i2u462_41
  5418   0016D6  EF6F  F00B         	goto	i2u462_40
  5419   0016DA                     i2u462_41:
  5420   0016DA  EF98  F00B         	goto	i2l4690
  5421   0016DE                     i2u462_40:
  5422   0016DE                     
  5423                           ;C:\Program Files\Microchip\xc8\v2.41\pic\sources\c99\common\doprnt.c: 703:   e++;
  5424   0016DE  0100               	movlb	0	; () banked
  5425   0016E0  4B6F               	infsnz	efgtoa@e& (0+255),f,b
  5426   0016E2  2B70               	incf	(efgtoa@e+1)& (0+255),f,b
  5427   0016E4                     
  5428                           ; BSR set to: 0
  5429                           ;C:\Program Files\Microchip\xc8\v2.41\pic\sources\c99\common\doprnt.c: 704:   ou.f *= 10
      +                          .0;
  5430   0016E4  C073  F001         	movff	efgtoa@ou,___flmul@b
  5431   0016E8  C074  F002         	movff	efgtoa@ou+1,___flmul@b+1
  5432   0016EC  C075  F003         	movff	efgtoa@ou+2,___flmul@b+2
  5433   0016F0  C076  F004         	movff	efgtoa@ou+3,___flmul@b+3
  5434   0016F4  0E00               	movlw	0
  5435   0016F6  6E05               	movwf	___flmul@a^0,c
  5436   0016F8  0E00               	movlw	0
  5437   0016FA  6E06               	movwf	(___flmul@a+1)^0,c
  5438   0016FC  0E20               	movlw	32
  5439   0016FE  6E07               	movwf	(___flmul@a+2)^0,c
  5440   001700  0E41               	movlw	65
  5441   001702  6E08               	movwf	(___flmul@a+3)^0,c
  5442   001704  EC15  F013         	call	___flmul	;wreg free
  5443   001708  C001  F073         	movff	?___flmul,efgtoa@ou
  5444   00170C  C002  F074         	movff	?___flmul+1,efgtoa@ou+1
  5445   001710  C003  F075         	movff	?___flmul+2,efgtoa@ou+2
  5446   001714  C004  F076         	movff	?___flmul+3,efgtoa@ou+3
  5447   001718                     
  5448                           ;C:\Program Files\Microchip\xc8\v2.41\pic\sources\c99\common\doprnt.c: 706:   if (nmode 
      +                          == 'f') {
  5449   001718  0E66               	movlw	102
  5450   00171A  0100               	movlb	0	; () banked
  5451   00171C  196A               	xorwf	efgtoa@nmode& (0+255),w,b
  5452   00171E  A4D8               	btfss	status,2,c
  5453   001720  EF94  F00B         	goto	i2u463_41
  5454   001724  EF96  F00B         	goto	i2u463_40
  5455   001728                     i2u463_41:
  5456   001728  EF98  F00B         	goto	i2l4690
  5457   00172C                     i2u463_40:
  5458   00172C                     
  5459                           ; BSR set to: 0
  5460                           ;C:\Program Files\Microchip\xc8\v2.41\pic\sources\c99\common\doprnt.c: 708:    m++;
  5461   00172C  4B6D               	infsnz	efgtoa@m& (0+255),f,b
  5462   00172E  2B6E               	incf	(efgtoa@m+1)& (0+255),f,b
  5463   001730                     i2l4690:
  5464                           
  5465                           ;C:\Program Files\Microchip\xc8\v2.41\pic\sources\c99\common\doprnt.c: 714:     u = ou;
  5466   001730  C073  F088         	movff	efgtoa@ou,efgtoa@u
  5467   001734  C074  F089         	movff	efgtoa@ou+1,efgtoa@u+1
  5468   001738  C075  F08A         	movff	efgtoa@ou+2,efgtoa@u+2
  5469   00173C  C076  F08B         	movff	efgtoa@ou+3,efgtoa@u+3
  5470   001740                     
  5471                           ;C:\Program Files\Microchip\xc8\v2.41\pic\sources\c99\common\doprnt.c: 718:  ne = e;
  5472   001740  C06F  F060         	movff	efgtoa@e,efgtoa@ne
  5473   001744  C070  F061         	movff	efgtoa@e+1,efgtoa@ne+1
  5474   001748                     
  5475                           ;C:\Program Files\Microchip\xc8\v2.41\pic\sources\c99\common\doprnt.c: 720:     pp = 0;
  5476   001748  0E00               	movlw	0
  5477   00174A  0100               	movlb	0	; () banked
  5478   00174C  6F68               	movwf	efgtoa@pp& (0+255),b
  5479   00174E                     
  5480                           ; BSR set to: 0
  5481                           ;C:\Program Files\Microchip\xc8\v2.41\pic\sources\c99\common\doprnt.c: 721:     t = 0;
  5482   00174E  0E00               	movlw	0
  5483   001750  6F65               	movwf	(efgtoa@t+1)& (0+255),b
  5484   001752  0E00               	movlw	0
  5485   001754  6F64               	movwf	efgtoa@t& (0+255),b
  5486   001756                     
  5487                           ; BSR set to: 0
  5488                           ;C:\Program Files\Microchip\xc8\v2.41\pic\sources\c99\common\doprnt.c: 722:     i = 0;
  5489   001756  0E00               	movlw	0
  5490   001758  6F78               	movwf	(efgtoa@i+1)& (0+255),b
  5491   00175A  0E00               	movlw	0
  5492   00175C  6F77               	movwf	efgtoa@i& (0+255),b
  5493                           
  5494                           ;C:\Program Files\Microchip\xc8\v2.41\pic\sources\c99\common\doprnt.c: 723:     while ((
      +                          i < m) && (n < (80 - 5))) {
  5495   00175E  EF96  F00C         	goto	i2l4740
  5496   001762                     i2l4700:
  5497                           
  5498                           ; BSR set to: 0
  5499                           ;C:\Program Files\Microchip\xc8\v2.41\pic\sources\c99\common\doprnt.c: 724:         l = 
      +                          floorf(h/u.f);
  5500   001762  C079  F01A         	movff	efgtoa@h,___fldiv@b
  5501   001766  C07A  F01B         	movff	efgtoa@h+1,___fldiv@b+1
  5502   00176A  C07B  F01C         	movff	efgtoa@h+2,___fldiv@b+2
  5503   00176E  C07C  F01D         	movff	efgtoa@h+3,___fldiv@b+3
  5504   001772  C088  F01E         	movff	efgtoa@u,___fldiv@a
  5505   001776  C089  F01F         	movff	efgtoa@u+1,___fldiv@a+1
  5506   00177A  C08A  F020         	movff	efgtoa@u+2,___fldiv@a+2
  5507   00177E  C08B  F021         	movff	efgtoa@u+3,___fldiv@a+3
  5508   001782  EC0A  F017         	call	___fldiv	;wreg free
  5509   001786  C01A  F033         	movff	?___fldiv,floorf@x
  5510   00178A  C01B  F034         	movff	?___fldiv+1,floorf@x+1
  5511   00178E  C01C  F035         	movff	?___fldiv+2,floorf@x+2
  5512   001792  C01D  F036         	movff	?___fldiv+3,floorf@x+3
  5513   001796  EC70  F01A         	call	_floorf	;wreg free
  5514   00179A  C033  F07D         	movff	?_floorf,efgtoa@l
  5515   00179E  C034  F07E         	movff	?_floorf+1,efgtoa@l+1
  5516   0017A2  C035  F07F         	movff	?_floorf+2,efgtoa@l+2
  5517   0017A6  C036  F080         	movff	?_floorf+3,efgtoa@l+3
  5518                           
  5519                           ;C:\Program Files\Microchip\xc8\v2.41\pic\sources\c99\common\doprnt.c: 725:         d = 
      +                          (int)l > 9 ? 9 : (int)l;
  5520   0017AA  C07D  F001         	movff	efgtoa@l,___fltol@f1
  5521   0017AE  C07E  F002         	movff	efgtoa@l+1,___fltol@f1+1
  5522   0017B2  C07F  F003         	movff	efgtoa@l+2,___fltol@f1+2
  5523   0017B6  C080  F004         	movff	efgtoa@l+3,___fltol@f1+3
  5524   0017BA  ECBC  F01D         	call	___fltol	;wreg free
  5525   0017BE  BE02               	btfsc	(?___fltol+1)^0,7,c
  5526   0017C0  EFED  F00B         	goto	i2u464_40
  5527   0017C4  5002               	movf	(?___fltol+1)^0,w,c
  5528   0017C6  E107               	bnz	i2u464_41
  5529   0017C8  0E0A               	movlw	10
  5530   0017CA  5C01               	subwf	?___fltol^0,w,c
  5531   0017CC  B0D8               	btfsc	status,0,c
  5532   0017CE  EFEB  F00B         	goto	i2u464_41
  5533   0017D2  EFED  F00B         	goto	i2u464_40
  5534   0017D6                     i2u464_41:
  5535   0017D6  EFFD  F00B         	goto	i2l4704
  5536   0017DA                     i2u464_40:
  5537   0017DA  C07D  F001         	movff	efgtoa@l,___fltol@f1
  5538   0017DE  C07E  F002         	movff	efgtoa@l+1,___fltol@f1+1
  5539   0017E2  C07F  F003         	movff	efgtoa@l+2,___fltol@f1+2
  5540   0017E6  C080  F004         	movff	efgtoa@l+3,___fltol@f1+3
  5541   0017EA  ECBC  F01D         	call	___fltol	;wreg free
  5542   0017EE  C001  F06B         	movff	?___fltol,efgtoa@d
  5543   0017F2  C002  F06C         	movff	?___fltol+1,efgtoa@d+1
  5544   0017F6  EF02  F00C         	goto	i2l1361
  5545   0017FA                     i2l4704:
  5546   0017FA  0E00               	movlw	0
  5547   0017FC  0100               	movlb	0	; () banked
  5548   0017FE  6F6C               	movwf	(efgtoa@d+1)& (0+255),b
  5549   001800  0E09               	movlw	9
  5550   001802  6F6B               	movwf	efgtoa@d& (0+255),b
  5551   001804                     i2l1361:
  5552                           
  5553                           ;C:\Program Files\Microchip\xc8\v2.41\pic\sources\c99\common\doprnt.c: 736:   {;C:\Progr
      +                          am Files\Microchip\xc8\v2.41\pic\sources\c99\common\doprnt.c: 737:             if (!pp &
      +                          & (ne < 0)) {
  5554   001804  0100               	movlb	0	; () banked
  5555   001806  5168               	movf	efgtoa@pp& (0+255),w,b
  5556   001808  A4D8               	btfss	status,2,c
  5557   00180A  EF09  F00C         	goto	i2u465_41
  5558   00180E  EF0B  F00C         	goto	i2u465_40
  5559   001812                     i2u465_41:
  5560   001812  EF33  F00C         	goto	i2l4724
  5561   001816                     i2u465_40:
  5562   001816                     
  5563                           ; BSR set to: 0
  5564   001816  BF61               	btfsc	(efgtoa@ne+1)& (0+255),7,b
  5565   001818  EF12  F00C         	goto	i2u466_40
  5566   00181C  EF10  F00C         	goto	i2u466_41
  5567   001820                     i2u466_41:
  5568   001820  EF33  F00C         	goto	i2l4724
  5569   001824                     i2u466_40:
  5570   001824                     
  5571                           ; BSR set to: 0
  5572                           ;C:\Program Files\Microchip\xc8\v2.41\pic\sources\c99\common\doprnt.c: 738:             
      +                              dbuf[n++] = '.';
  5573   001824  0E1A               	movlw	low _dbuf
  5574   001826  2582               	addwf	efgtoa@n& (0+255),w,b
  5575   001828  6ED9               	movwf	fsr2l,c
  5576   00182A  0E01               	movlw	high _dbuf
  5577   00182C  2183               	addwfc	(efgtoa@n+1)& (0+255),w,b
  5578   00182E  6EDA               	movwf	fsr2h,c
  5579   001830  0E2E               	movlw	46
  5580   001832  6EDF               	movwf	indf2,c
  5581   001834                     
  5582                           ; BSR set to: 0
  5583   001834  4B82               	infsnz	efgtoa@n& (0+255),f,b
  5584   001836  2B83               	incf	(efgtoa@n+1)& (0+255),f,b
  5585   001838                     
  5586                           ; BSR set to: 0
  5587                           ;C:\Program Files\Microchip\xc8\v2.41\pic\sources\c99\common\doprnt.c: 739:             
      +                              --w;
  5588   001838  0771               	decf	efgtoa@w& (0+255),f,b
  5589   00183A  A0D8               	btfss	status,0,c
  5590   00183C  0772               	decf	(efgtoa@w+1)& (0+255),f,b
  5591   00183E                     
  5592                           ; BSR set to: 0
  5593                           ;C:\Program Files\Microchip\xc8\v2.41\pic\sources\c99\common\doprnt.c: 740:             
      +                              pp = 1;
  5594   00183E  0E01               	movlw	1
  5595   001840  6F68               	movwf	efgtoa@pp& (0+255),b
  5596   001842  EF33  F00C         	goto	i2l4724
  5597   001846                     i2l4716:
  5598                           
  5599                           ; BSR set to: 0
  5600                           ;C:\Program Files\Microchip\xc8\v2.41\pic\sources\c99\common\doprnt.c: 743:             
      +                              dbuf[n++] = '0';
  5601   001846  0E1A               	movlw	low _dbuf
  5602   001848  2582               	addwf	efgtoa@n& (0+255),w,b
  5603   00184A  6ED9               	movwf	fsr2l,c
  5604   00184C  0E01               	movlw	high _dbuf
  5605   00184E  2183               	addwfc	(efgtoa@n+1)& (0+255),w,b
  5606   001850  6EDA               	movwf	fsr2h,c
  5607   001852  0E30               	movlw	48
  5608   001854  6EDF               	movwf	indf2,c
  5609   001856                     
  5610                           ; BSR set to: 0
  5611   001856  4B82               	infsnz	efgtoa@n& (0+255),f,b
  5612   001858  2B83               	incf	(efgtoa@n+1)& (0+255),f,b
  5613   00185A                     
  5614                           ; BSR set to: 0
  5615                           ;C:\Program Files\Microchip\xc8\v2.41\pic\sources\c99\common\doprnt.c: 744:             
      +                              --w;
  5616   00185A  0771               	decf	efgtoa@w& (0+255),f,b
  5617   00185C  A0D8               	btfss	status,0,c
  5618   00185E  0772               	decf	(efgtoa@w+1)& (0+255),f,b
  5619   001860                     
  5620                           ; BSR set to: 0
  5621                           ;C:\Program Files\Microchip\xc8\v2.41\pic\sources\c99\common\doprnt.c: 745:             
      +                              --t;
  5622   001860  0764               	decf	efgtoa@t& (0+255),f,b
  5623   001862  A0D8               	btfss	status,0,c
  5624   001864  0765               	decf	(efgtoa@t+1)& (0+255),f,b
  5625   001866                     i2l4724:
  5626                           
  5627                           ; BSR set to: 0
  5628                           ;C:\Program Files\Microchip\xc8\v2.41\pic\sources\c99\common\doprnt.c: 742:             
      +                          while (t) {
  5629   001866  5164               	movf	efgtoa@t& (0+255),w,b
  5630   001868  1165               	iorwf	(efgtoa@t+1)& (0+255),w,b
  5631   00186A  A4D8               	btfss	status,2,c
  5632   00186C  EF3A  F00C         	goto	i2u467_41
  5633   001870  EF3C  F00C         	goto	i2u467_40
  5634   001874                     i2u467_41:
  5635   001874  EF23  F00C         	goto	i2l4716
  5636   001878                     i2u467_40:
  5637   001878                     
  5638                           ; BSR set to: 0
  5639                           ;C:\Program Files\Microchip\xc8\v2.41\pic\sources\c99\common\doprnt.c: 747:             
      +                          dbuf[n++] = (char)((int)'0' + d);
  5640   001878  0E1A               	movlw	low _dbuf
  5641   00187A  2582               	addwf	efgtoa@n& (0+255),w,b
  5642   00187C  6ED9               	movwf	fsr2l,c
  5643   00187E  0E01               	movlw	high _dbuf
  5644   001880  2183               	addwfc	(efgtoa@n+1)& (0+255),w,b
  5645   001882  6EDA               	movwf	fsr2h,c
  5646   001884  516B               	movf	efgtoa@d& (0+255),w,b
  5647   001886  0F30               	addlw	48
  5648   001888  6EDF               	movwf	indf2,c
  5649   00188A                     
  5650                           ; BSR set to: 0
  5651   00188A  4B82               	infsnz	efgtoa@n& (0+255),f,b
  5652   00188C  2B83               	incf	(efgtoa@n+1)& (0+255),f,b
  5653   00188E                     
  5654                           ; BSR set to: 0
  5655                           ;C:\Program Files\Microchip\xc8\v2.41\pic\sources\c99\common\doprnt.c: 748:             
      +                          --w;
  5656   00188E  0771               	decf	efgtoa@w& (0+255),f,b
  5657   001890  A0D8               	btfss	status,0,c
  5658   001892  0772               	decf	(efgtoa@w+1)& (0+255),f,b
  5659   001894                     
  5660                           ; BSR set to: 0
  5661                           ;C:\Program Files\Microchip\xc8\v2.41\pic\sources\c99\common\doprnt.c: 749:         };C:
      +                          \Program Files\Microchip\xc8\v2.41\pic\sources\c99\common\doprnt.c: 750:         h -= l*
      +                          u.f;
  5662   001894  C079  F043         	movff	efgtoa@h,___flsub@b
  5663   001898  C07A  F044         	movff	efgtoa@h+1,___flsub@b+1
  5664   00189C  C07B  F045         	movff	efgtoa@h+2,___flsub@b+2
  5665   0018A0  C07C  F046         	movff	efgtoa@h+3,___flsub@b+3
  5666   0018A4  C07D  F005         	movff	efgtoa@l,___flmul@a
  5667   0018A8  C07E  F006         	movff	efgtoa@l+1,___flmul@a+1
  5668   0018AC  C07F  F007         	movff	efgtoa@l+2,___flmul@a+2
  5669   0018B0  C080  F008         	movff	efgtoa@l+3,___flmul@a+3
  5670   0018B4  C088  F001         	movff	efgtoa@u,___flmul@b
  5671   0018B8  C089  F002         	movff	efgtoa@u+1,___flmul@b+1
  5672   0018BC  C08A  F003         	movff	efgtoa@u+2,___flmul@b+2
  5673   0018C0  C08B  F004         	movff	efgtoa@u+3,___flmul@b+3
  5674   0018C4  EC15  F013         	call	___flmul	;wreg free
  5675   0018C8  C001  F047         	movff	?___flmul,___flsub@a
  5676   0018CC  C002  F048         	movff	?___flmul+1,___flsub@a+1
  5677   0018D0  C003  F049         	movff	?___flmul+2,___flsub@a+2
  5678   0018D4  C004  F04A         	movff	?___flmul+3,___flsub@a+3
  5679   0018D8  EC86  F025         	call	___flsub	;wreg free
  5680   0018DC  C043  F079         	movff	?___flsub,efgtoa@h
  5681   0018E0  C044  F07A         	movff	?___flsub+1,efgtoa@h+1
  5682   0018E4  C045  F07B         	movff	?___flsub+2,efgtoa@h+2
  5683   0018E8  C046  F07C         	movff	?___flsub+3,efgtoa@h+3
  5684   0018EC                     
  5685                           ;C:\Program Files\Microchip\xc8\v2.41\pic\sources\c99\common\doprnt.c: 751:         u.f 
      +                          = u.f/10.0;
  5686   0018EC  C088  F01A         	movff	efgtoa@u,___fldiv@b
  5687   0018F0  C089  F01B         	movff	efgtoa@u+1,___fldiv@b+1
  5688   0018F4  C08A  F01C         	movff	efgtoa@u+2,___fldiv@b+2
  5689   0018F8  C08B  F01D         	movff	efgtoa@u+3,___fldiv@b+3
  5690   0018FC  0E00               	movlw	0
  5691   0018FE  6E1E               	movwf	___fldiv@a^0,c
  5692   001900  0E00               	movlw	0
  5693   001902  6E1F               	movwf	(___fldiv@a+1)^0,c
  5694   001904  0E20               	movlw	32
  5695   001906  6E20               	movwf	(___fldiv@a+2)^0,c
  5696   001908  0E41               	movlw	65
  5697   00190A  6E21               	movwf	(___fldiv@a+3)^0,c
  5698   00190C  EC0A  F017         	call	___fldiv	;wreg free
  5699   001910  C01A  F088         	movff	?___fldiv,efgtoa@u
  5700   001914  C01B  F089         	movff	?___fldiv+1,efgtoa@u+1
  5701   001918  C01C  F08A         	movff	?___fldiv+2,efgtoa@u+2
  5702   00191C  C01D  F08B         	movff	?___fldiv+3,efgtoa@u+3
  5703   001920                     
  5704                           ;C:\Program Files\Microchip\xc8\v2.41\pic\sources\c99\common\doprnt.c: 752:         --ne
      +                          ;
  5705   001920  0100               	movlb	0	; () banked
  5706   001922  0760               	decf	efgtoa@ne& (0+255),f,b
  5707   001924  A0D8               	btfss	status,0,c
  5708   001926  0761               	decf	(efgtoa@ne+1)& (0+255),f,b
  5709   001928                     
  5710                           ; BSR set to: 0
  5711                           ;C:\Program Files\Microchip\xc8\v2.41\pic\sources\c99\common\doprnt.c: 753:         ++i;
  5712   001928  4B77               	infsnz	efgtoa@i& (0+255),f,b
  5713   00192A  2B78               	incf	(efgtoa@i+1)& (0+255),f,b
  5714   00192C                     i2l4740:
  5715                           
  5716                           ; BSR set to: 0
  5717                           ;C:\Program Files\Microchip\xc8\v2.41\pic\sources\c99\common\doprnt.c: 723:     while ((
      +                          i < m) && (n < (80 - 5))) {
  5718   00192C  516D               	movf	efgtoa@m& (0+255),w,b
  5719   00192E  5D77               	subwf	efgtoa@i& (0+255),w,b
  5720   001930  5178               	movf	(efgtoa@i+1)& (0+255),w,b
  5721   001932  0A80               	xorlw	128
  5722   001934  6E52               	movwf	??_efgtoa^0,c
  5723   001936  516E               	movf	(efgtoa@m+1)& (0+255),w,b
  5724   001938  0A80               	xorlw	128
  5725   00193A  5852               	subwfb	??_efgtoa^0,w,c
  5726   00193C  B0D8               	btfsc	status,0,c
  5727   00193E  EFA3  F00C         	goto	i2u468_41
  5728   001942  EFA5  F00C         	goto	i2u468_40
  5729   001946                     i2u468_41:
  5730   001946  EFB3  F00C         	goto	i2l4744
  5731   00194A                     i2u468_40:
  5732   00194A                     
  5733                           ; BSR set to: 0
  5734   00194A  BF83               	btfsc	(efgtoa@n+1)& (0+255),7,b
  5735   00194C  EFB1  F00C         	goto	i2u469_41
  5736   001950  5183               	movf	(efgtoa@n+1)& (0+255),w,b
  5737   001952  E109               	bnz	i2u469_40
  5738   001954  0E4B               	movlw	75
  5739   001956  5D82               	subwf	efgtoa@n& (0+255),w,b
  5740   001958  A0D8               	btfss	status,0,c
  5741   00195A  EFB1  F00C         	goto	i2u469_41
  5742   00195E  EFB3  F00C         	goto	i2u469_40
  5743   001962                     i2u469_41:
  5744   001962  EFB1  F00B         	goto	i2l4700
  5745   001966                     i2u469_40:
  5746   001966                     i2l4744:
  5747                           
  5748                           ; BSR set to: 0
  5749                           ;C:\Program Files\Microchip\xc8\v2.41\pic\sources\c99\common\doprnt.c: 760:  i = sizeof(
      +                          dbuf) - 1;
  5750   001966  0E00               	movlw	0
  5751   001968  6F78               	movwf	(efgtoa@i+1)& (0+255),b
  5752   00196A  0E4F               	movlw	79
  5753   00196C  6F77               	movwf	efgtoa@i& (0+255),b
  5754   00196E                     
  5755                           ; BSR set to: 0
  5756                           ;C:\Program Files\Microchip\xc8\v2.41\pic\sources\c99\common\doprnt.c: 761:     dbuf[i] 
      +                          = '\0';
  5757   00196E  0E1A               	movlw	low _dbuf
  5758   001970  2577               	addwf	efgtoa@i& (0+255),w,b
  5759   001972  6ED9               	movwf	fsr2l,c
  5760   001974  0E01               	movlw	high _dbuf
  5761   001976  2178               	addwfc	(efgtoa@i+1)& (0+255),w,b
  5762   001978  6EDA               	movwf	fsr2h,c
  5763   00197A  6ADF               	clrf	indf2,c
  5764   00197C                     
  5765                           ; BSR set to: 0
  5766                           ;C:\Program Files\Microchip\xc8\v2.41\pic\sources\c99\common\doprnt.c: 792:  memcpy(&dbu
      +                          f[i-n], &dbuf[0], (size_t)n);
  5767   00197C  0E1A               	movlw	low _dbuf
  5768   00197E  6E52               	movwf	??_efgtoa^0,c
  5769   001980  0E01               	movlw	high _dbuf
  5770   001982  6E53               	movwf	(??_efgtoa+1)^0,c
  5771   001984  5182               	movf	efgtoa@n& (0+255),w,b
  5772   001986  5E52               	subwf	??_efgtoa^0,f,c
  5773   001988  5183               	movf	(efgtoa@n+1)& (0+255),w,b
  5774   00198A  5A53               	subwfb	(??_efgtoa+1)^0,f,c
  5775   00198C  5177               	movf	efgtoa@i& (0+255),w,b
  5776   00198E  2452               	addwf	??_efgtoa^0,w,c
  5777   001990  6E01               	movwf	memcpy@d1^0,c
  5778   001992  5178               	movf	(efgtoa@i+1)& (0+255),w,b
  5779   001994  2053               	addwfc	(??_efgtoa+1)^0,w,c
  5780   001996  6E02               	movwf	(memcpy@d1+1)^0,c
  5781   001998  0E1A               	movlw	low _dbuf
  5782   00199A  6E03               	movwf	memcpy@s1^0,c
  5783   00199C  0E01               	movlw	high _dbuf
  5784   00199E  6E04               	movwf	(memcpy@s1+1)^0,c
  5785   0019A0  C082  F005         	movff	efgtoa@n,memcpy@n
  5786   0019A4  C083  F006         	movff	efgtoa@n+1,memcpy@n+1
  5787   0019A8  ECF0  F024         	call	_memcpy	;wreg free
  5788   0019AC                     
  5789                           ;C:\Program Files\Microchip\xc8\v2.41\pic\sources\c99\common\doprnt.c: 793:  n = i-n;
  5790   0019AC  0100               	movlb	0	; () banked
  5791   0019AE  5182               	movf	efgtoa@n& (0+255),w,b
  5792   0019B0  5D77               	subwf	efgtoa@i& (0+255),w,b
  5793   0019B2  6F82               	movwf	efgtoa@n& (0+255),b
  5794   0019B4  5183               	movf	(efgtoa@n+1)& (0+255),w,b
  5795   0019B6  5978               	subwfb	(efgtoa@i+1)& (0+255),w,b
  5796   0019B8  6F83               	movwf	(efgtoa@n+1)& (0+255),b
  5797   0019BA                     
  5798                           ; BSR set to: 0
  5799                           ;C:\Program Files\Microchip\xc8\v2.41\pic\sources\c99\common\doprnt.c: 794:  i = sign ==
      +                           0 ? 0 : 1;
  5800   0019BA  5181               	movf	efgtoa@sign& (0+255),w,b
  5801   0019BC  A4D8               	btfss	status,2,c
  5802   0019BE  EFE3  F00C         	goto	i2u470_41
  5803   0019C2  EFE6  F00C         	goto	i2u470_40
  5804   0019C6                     i2u470_41:
  5805   0019C6  0E01               	movlw	1
  5806   0019C8  EFE7  F00C         	goto	i2u471_40
  5807   0019CC                     i2u470_40:
  5808   0019CC  0E00               	movlw	0
  5809   0019CE                     i2u471_40:
  5810   0019CE  6F77               	movwf	efgtoa@i& (0+255),b
  5811   0019D0  6B78               	clrf	(efgtoa@i+1)& (0+255),b
  5812   0019D2                     
  5813                           ; BSR set to: 0
  5814                           ;C:\Program Files\Microchip\xc8\v2.41\pic\sources\c99\common\doprnt.c: 805:  if (sign) {
  5815   0019D2  5181               	movf	efgtoa@sign& (0+255),w,b
  5816   0019D4  B4D8               	btfsc	status,2,c
  5817   0019D6  EFEF  F00C         	goto	i2u472_41
  5818   0019DA  EFF1  F00C         	goto	i2u472_40
  5819   0019DE                     i2u472_41:
  5820   0019DE  EFFC  F00C         	goto	i2l4758
  5821   0019E2                     i2u472_40:
  5822   0019E2                     
  5823                           ; BSR set to: 0
  5824                           ;C:\Program Files\Microchip\xc8\v2.41\pic\sources\c99\common\doprnt.c: 806:   dbuf[--n] 
      +                          = sign;
  5825   0019E2  0782               	decf	efgtoa@n& (0+255),f,b
  5826   0019E4  A0D8               	btfss	status,0,c
  5827   0019E6  0783               	decf	(efgtoa@n+1)& (0+255),f,b
  5828   0019E8  0E1A               	movlw	low _dbuf
  5829   0019EA  2582               	addwf	efgtoa@n& (0+255),w,b
  5830   0019EC  6ED9               	movwf	fsr2l,c
  5831   0019EE  0E01               	movlw	high _dbuf
  5832   0019F0  2183               	addwfc	(efgtoa@n+1)& (0+255),w,b
  5833   0019F2  6EDA               	movwf	fsr2h,c
  5834   0019F4  C081  FFDF         	movff	efgtoa@sign,indf2
  5835   0019F8                     i2l4758:
  5836                           
  5837                           ; BSR set to: 0
  5838                           ;C:\Program Files\Microchip\xc8\v2.41\pic\sources\c99\common\doprnt.c: 808:  w -= i;
  5839   0019F8  5177               	movf	efgtoa@i& (0+255),w,b
  5840   0019FA  5F71               	subwf	efgtoa@w& (0+255),f,b
  5841   0019FC  5178               	movf	(efgtoa@i+1)& (0+255),w,b
  5842   0019FE  5B72               	subwfb	(efgtoa@w+1)& (0+255),f,b
  5843   001A00                     
  5844                           ; BSR set to: 0
  5845                           ;C:\Program Files\Microchip\xc8\v2.41\pic\sources\c99\common\doprnt.c: 811:     return (
      +                          void) pad(fp, &dbuf[n], w);
  5846   001A00  C04B  F011         	movff	efgtoa@fp,pad@fp
  5847   001A04  C04C  F012         	movff	efgtoa@fp+1,pad@fp+1
  5848   001A08  0E1A               	movlw	low _dbuf
  5849   001A0A  2582               	addwf	efgtoa@n& (0+255),w,b
  5850   001A0C  6E13               	movwf	pad@buf^0,c
  5851   001A0E  0E01               	movlw	high _dbuf
  5852   001A10  2183               	addwfc	(efgtoa@n+1)& (0+255),w,b
  5853   001A12  6E14               	movwf	(pad@buf+1)^0,c
  5854   001A14  C071  F015         	movff	efgtoa@w,pad@p
  5855   001A18  C072  F016         	movff	efgtoa@w+1,pad@p+1
  5856   001A1C  ECCD  F022         	call	_pad	;wreg free
  5857   001A20                     i2l1328:
  5858   001A20  0012               	return		;funcret
  5859   001A22                     __end_of_efgtoa:
  5860                           	callstack 0
  5861                           
  5862 ;; *************** function _strcpy *****************
  5863 ;; Defined at:
  5864 ;;		line 3 in file "C:\Program Files\Microchip\xc8\v2.41\pic\sources\c99\common\strcpy.c"
  5865 ;; Parameters:    Size  Location     Type
  5866 ;;  dest            2    0[COMRAM] PTR unsigned char 
  5867 ;;		 -> dbuf(80), 
  5868 ;;  src             2    2[COMRAM] PTR const unsigned char 
  5869 ;;		 -> STR_7(4), STR_4(4), 
  5870 ;; Auto vars:     Size  Location     Type
  5871 ;;  d               2    6[COMRAM] PTR unsigned char 
  5872 ;;		 -> dbuf(80), 
  5873 ;;  s               2    4[COMRAM] PTR const unsigned char 
  5874 ;;		 -> STR_7(4), STR_4(4), 
  5875 ;; Return value:  Size  Location     Type
  5876 ;;                  2    0[COMRAM] PTR unsigned char 
  5877 ;; Registers used:
  5878 ;;		wreg, fsr2l, fsr2h, status,2, status,0, tblptrl, tblptrh, tblptru
  5879 ;; Tracked objects:
  5880 ;;		On entry : 0/0
  5881 ;;		On exit  : 0/0
  5882 ;;		Unchanged: 0/0
  5883 ;; Data sizes:     COMRAM   BANK0   BANK1   BANK2   BANK3   BANK4   BANK5   BANK6   BANK7   BANK8   BANK9  BANK10  BANK1
      +1  BANK12  BANK13  BANK14  BANK15
  5884 ;;      Params:         4       0       0       0       0       0       0       0       0       0       0       0       
      +0       0       0       0       0
  5885 ;;      Locals:         4       0       0       0       0       0       0       0       0       0       0       0       
      +0       0       0       0       0
  5886 ;;      Temps:          0       0       0       0       0       0       0       0       0       0       0       0       
      +0       0       0       0       0
  5887 ;;      Totals:         8       0       0       0       0       0       0       0       0       0       0       0       
      +0       0       0       0       0
  5888 ;;Total ram usage:        8 bytes
  5889 ;; Hardware stack levels used: 1
  5890 ;; This function calls:
  5891 ;;		Nothing
  5892 ;; This function is called by:
  5893 ;;		_efgtoa
  5894 ;; This function uses a non-reentrant model
  5895 ;;
  5896                           
  5897                           	psect	text30
  5898   004B98                     __ptext30:
  5899                           	callstack 0
  5900   004B98                     _strcpy:
  5901                           	callstack 18
  5902   004B98  C003  F005         	movff	strcpy@src,strcpy@s
  5903   004B9C  C004  F006         	movff	strcpy@src+1,strcpy@s+1
  5904   004BA0  C001  F007         	movff	strcpy@dest,strcpy@d
  5905   004BA4  C002  F008         	movff	strcpy@dest+1,strcpy@d+1
  5906   004BA8                     i2l4382:
  5907   004BA8  C005  FFF6         	movff	strcpy@s,tblptrl
  5908   004BAC  C006  FFF7         	movff	strcpy@s+1,tblptrh
  5909   004BB0  4A05               	infsnz	strcpy@s^0,f,c
  5910   004BB2  2A06               	incf	(strcpy@s+1)^0,f,c
  5911   004BB4                     	if	0	;tblptru may be non-zero
  5912   004BB4                     	endif
  5913   004BB4                     	if	1	;Program memory is > 0xFFFF, there are 3 active tblptr bytes
  5914   004BB4  0E00               	movlw	low (__mediumconst shr (0+16))
  5915   004BB6  6EF8               	movwf	tblptru,c
  5916   004BB8                     	endif
  5917   004BB8  C007  FFD9         	movff	strcpy@d,fsr2l
  5918   004BBC  C008  FFDA         	movff	strcpy@d+1,fsr2h
  5919   004BC0  4A07               	infsnz	strcpy@d^0,f,c
  5920   004BC2  2A08               	incf	(strcpy@d+1)^0,f,c
  5921   004BC4  0008               	tblrd		*
  5922   004BC6  CFF5 FFDF          	movff	tablat,indf2
  5923   004BCA  50DF               	movf	indf2,w,c
  5924   004BCC  A4D8               	btfss	status,2,c
  5925   004BCE  EFEB  F025         	goto	i2u415_41
  5926   004BD2  EFED  F025         	goto	i2u415_40
  5927   004BD6                     i2u415_41:
  5928   004BD6  EFD4  F025         	goto	i2l4382
  5929   004BDA                     i2u415_40:
  5930   004BDA  0012               	return		;funcret
  5931   004BDC                     __end_of_strcpy:
  5932                           	callstack 0
  5933                           
  5934 ;; *************** function _memcpy *****************
  5935 ;; Defined at:
  5936 ;;		line 4 in file "C:\Program Files\Microchip\xc8\v2.41\pic\sources\c99\common\memcpy.c"
  5937 ;; Parameters:    Size  Location     Type
  5938 ;;  d1              2    0[COMRAM] PTR void 
  5939 ;;		 -> dbuf(80), 
  5940 ;;  s1              2    2[COMRAM] PTR const void 
  5941 ;;		 -> dbuf(80), 
  5942 ;;  n               2    4[COMRAM] unsigned int 
  5943 ;; Auto vars:     Size  Location     Type
  5944 ;;  s               2    8[COMRAM] PTR const unsigned char 
  5945 ;;		 -> dbuf(80), 
  5946 ;;  d               2    6[COMRAM] PTR unsigned char 
  5947 ;;		 -> dbuf(80), 
  5948 ;;  tmp             1   10[COMRAM] unsigned char 
  5949 ;; Return value:  Size  Location     Type
  5950 ;;                  2    0[COMRAM] PTR void 
  5951 ;; Registers used:
  5952 ;;		wreg, fsr2l, fsr2h, status,2, status,0
  5953 ;; Tracked objects:
  5954 ;;		On entry : 0/0
  5955 ;;		On exit  : 0/0
  5956 ;;		Unchanged: 0/0
  5957 ;; Data sizes:     COMRAM   BANK0   BANK1   BANK2   BANK3   BANK4   BANK5   BANK6   BANK7   BANK8   BANK9  BANK10  BANK1
      +1  BANK12  BANK13  BANK14  BANK15
  5958 ;;      Params:         6       0       0       0       0       0       0       0       0       0       0       0       
      +0       0       0       0       0
  5959 ;;      Locals:         5       0       0       0       0       0       0       0       0       0       0       0       
      +0       0       0       0       0
  5960 ;;      Temps:          0       0       0       0       0       0       0       0       0       0       0       0       
      +0       0       0       0       0
  5961 ;;      Totals:        11       0       0       0       0       0       0       0       0       0       0       0       
      +0       0       0       0       0
  5962 ;;Total ram usage:       11 bytes
  5963 ;; Hardware stack levels used: 1
  5964 ;; This function calls:
  5965 ;;		Nothing
  5966 ;; This function is called by:
  5967 ;;		_efgtoa
  5968 ;; This function uses a non-reentrant model
  5969 ;;
  5970                           
  5971                           	psect	text31
  5972   0049E0                     __ptext31:
  5973                           	callstack 0
  5974   0049E0                     _memcpy:
  5975                           	callstack 18
  5976   0049E0  C003  F009         	movff	memcpy@s1,memcpy@s
  5977   0049E4  C004  F00A         	movff	memcpy@s1+1,memcpy@s+1
  5978   0049E8  C001  F007         	movff	memcpy@d1,memcpy@d
  5979   0049EC  C002  F008         	movff	memcpy@d1+1,memcpy@d+1
  5980   0049F0  EF0A  F025         	goto	i2l4426
  5981   0049F4                     i2l4418:
  5982   0049F4  C009  FFD9         	movff	memcpy@s,fsr2l
  5983   0049F8  C00A  FFDA         	movff	memcpy@s+1,fsr2h
  5984   0049FC  50DF               	movf	indf2,w,c
  5985   0049FE  6E0B               	movwf	memcpy@tmp^0,c
  5986   004A00  4A09               	infsnz	memcpy@s^0,f,c
  5987   004A02  2A0A               	incf	(memcpy@s+1)^0,f,c
  5988   004A04  C007  FFD9         	movff	memcpy@d,fsr2l
  5989   004A08  C008  FFDA         	movff	memcpy@d+1,fsr2h
  5990   004A0C  C00B  FFDF         	movff	memcpy@tmp,indf2
  5991   004A10  4A07               	infsnz	memcpy@d^0,f,c
  5992   004A12  2A08               	incf	(memcpy@d+1)^0,f,c
  5993   004A14                     i2l4426:
  5994   004A14  0605               	decf	memcpy@n^0,f,c
  5995   004A16  A0D8               	btfss	status,0,c
  5996   004A18  0606               	decf	(memcpy@n+1)^0,f,c
  5997   004A1A  2805               	incf	memcpy@n^0,w,c
  5998   004A1C  E106               	bnz	i2u427_41
  5999   004A1E  2806               	incf	(memcpy@n+1)^0,w,c
  6000   004A20  A4D8               	btfss	status,2,c
  6001   004A22  EF15  F025         	goto	i2u427_41
  6002   004A26  EF17  F025         	goto	i2u427_40
  6003   004A2A                     i2u427_41:
  6004   004A2A  EFFA  F024         	goto	i2l4418
  6005   004A2E                     i2u427_40:
  6006   004A2E  0012               	return		;funcret
  6007   004A30                     __end_of_memcpy:
  6008                           	callstack 0
  6009                           
  6010 ;; *************** function _labs *****************
  6011 ;; Defined at:
  6012 ;;		line 1 in file "C:\Program Files\Microchip\xc8\v2.41\pic\sources\c99\common\labs.c"
  6013 ;; Parameters:    Size  Location     Type
  6014 ;;  a               4    0[COMRAM] long 
  6015 ;; Auto vars:     Size  Location     Type
  6016 ;;		None
  6017 ;; Return value:  Size  Location     Type
  6018 ;;                  4    0[COMRAM] long 
  6019 ;; Registers used:
  6020 ;;		wreg, status,2, status,0
  6021 ;; Tracked objects:
  6022 ;;		On entry : 0/0
  6023 ;;		On exit  : 0/0
  6024 ;;		Unchanged: 0/0
  6025 ;; Data sizes:     COMRAM   BANK0   BANK1   BANK2   BANK3   BANK4   BANK5   BANK6   BANK7   BANK8   BANK9  BANK10  BANK1
      +1  BANK12  BANK13  BANK14  BANK15
  6026 ;;      Params:         4       0       0       0       0       0       0       0       0       0       0       0       
      +0       0       0       0       0
  6027 ;;      Locals:         0       0       0       0       0       0       0       0       0       0       0       0       
      +0       0       0       0       0
  6028 ;;      Temps:          4       0       0       0       0       0       0       0       0       0       0       0       
      +0       0       0       0       0
  6029 ;;      Totals:         8       0       0       0       0       0       0       0       0       0       0       0       
      +0       0       0       0       0
  6030 ;;Total ram usage:        8 bytes
  6031 ;; Hardware stack levels used: 1
  6032 ;; This function calls:
  6033 ;;		Nothing
  6034 ;; This function is called by:
  6035 ;;		_efgtoa
  6036 ;; This function uses a non-reentrant model
  6037 ;;
  6038                           
  6039                           	psect	text32
  6040   0047D8                     __ptext32:
  6041                           	callstack 0
  6042   0047D8                     _labs:
  6043                           	callstack 18
  6044   0047D8  BE04               	btfsc	(labs@a+3)^0,7,c
  6045   0047DA  EFFB  F023         	goto	i2u416_40
  6046   0047DE  5004               	movf	(labs@a+3)^0,w,c
  6047   0047E0  1003               	iorwf	(labs@a+2)^0,w,c
  6048   0047E2  1002               	iorwf	(labs@a+1)^0,w,c
  6049   0047E4  E106               	bnz	i2u416_41
  6050   0047E6  0401               	decf	labs@a^0,w,c
  6051   0047E8  B0D8               	btfsc	status,0,c
  6052   0047EA  EFF9  F023         	goto	i2u416_41
  6053   0047EE  EFFB  F023         	goto	i2u416_40
  6054   0047F2                     i2u416_41:
  6055   0047F2  EF16  F024         	goto	i2l1442
  6056   0047F6                     i2u416_40:
  6057   0047F6  C001  F005         	movff	labs@a,??_labs
  6058   0047FA  C002  F006         	movff	labs@a+1,??_labs+1
  6059   0047FE  C003  F007         	movff	labs@a+2,??_labs+2
  6060   004802  C004  F008         	movff	labs@a+3,??_labs+3
  6061   004806  1E05               	comf	??_labs^0,f,c
  6062   004808  1E06               	comf	(??_labs+1)^0,f,c
  6063   00480A  1E07               	comf	(??_labs+2)^0,f,c
  6064   00480C  1E08               	comf	(??_labs+3)^0,f,c
  6065   00480E  2A05               	incf	??_labs^0,f,c
  6066   004810  0E00               	movlw	0
  6067   004812  2206               	addwfc	(??_labs+1)^0,f,c
  6068   004814  2207               	addwfc	(??_labs+2)^0,f,c
  6069   004816  2208               	addwfc	(??_labs+3)^0,f,c
  6070   004818  C005  F001         	movff	??_labs,?_labs
  6071   00481C  C006  F002         	movff	??_labs+1,?_labs+1
  6072   004820  C007  F003         	movff	??_labs+2,?_labs+2
  6073   004824  C008  F004         	movff	??_labs+3,?_labs+3
  6074   004828  EF1E  F024         	goto	i2l1445
  6075   00482C                     i2l1442:
  6076   00482C  C001  F001         	movff	labs@a,?_labs
  6077   004830  C002  F002         	movff	labs@a+1,?_labs+1
  6078   004834  C003  F003         	movff	labs@a+2,?_labs+2
  6079   004838  C004  F004         	movff	labs@a+3,?_labs+3
  6080   00483C                     i2l1445:
  6081   00483C  0012               	return		;funcret
  6082   00483E                     __end_of_labs:
  6083                           	callstack 0
  6084                           
  6085 ;; *************** function _floorf *****************
  6086 ;; Defined at:
  6087 ;;		line 3 in file "C:\Program Files\Microchip\xc8\v2.41\pic\sources\c99\common\floorf.c"
  6088 ;; Parameters:    Size  Location     Type
  6089 ;;  x               4   50[COMRAM] float 
  6090 ;; Auto vars:     Size  Location     Type
  6091 ;;  u               4   66[COMRAM] struct .
  6092 ;;  m               4   60[COMRAM] unsigned long 
  6093 ;;  e               2   64[COMRAM] int 
  6094 ;; Return value:  Size  Location     Type
  6095 ;;                  4   50[COMRAM] float 
  6096 ;; Registers used:
  6097 ;;		wreg, status,2, status,0
  6098 ;; Tracked objects:
  6099 ;;		On entry : 0/0
  6100 ;;		On exit  : 0/0
  6101 ;;		Unchanged: 0/0
  6102 ;; Data sizes:     COMRAM   BANK0   BANK1   BANK2   BANK3   BANK4   BANK5   BANK6   BANK7   BANK8   BANK9  BANK10  BANK1
      +1  BANK12  BANK13  BANK14  BANK15
  6103 ;;      Params:         4       0       0       0       0       0       0       0       0       0       0       0       
      +0       0       0       0       0
  6104 ;;      Locals:        10       0       0       0       0       0       0       0       0       0       0       0       
      +0       0       0       0       0
  6105 ;;      Temps:          6       0       0       0       0       0       0       0       0       0       0       0       
      +0       0       0       0       0
  6106 ;;      Totals:        20       0       0       0       0       0       0       0       0       0       0       0       
      +0       0       0       0       0
  6107 ;;Total ram usage:       20 bytes
  6108 ;; Hardware stack levels used: 1
  6109 ;; This function calls:
  6110 ;;		Nothing
  6111 ;; This function is called by:
  6112 ;;		_efgtoa
  6113 ;; This function uses a non-reentrant model
  6114 ;;
  6115                           
  6116                           	psect	text33
  6117   0034E0                     __ptext33:
  6118                           	callstack 0
  6119   0034E0                     _floorf:
  6120                           	callstack 18
  6121   0034E0  C0E8  F043         	movff	floorf@F526,floorf@u
  6122   0034E4  C0E9  F044         	movff	floorf@F526+1,floorf@u+1
  6123   0034E8  C0EA  F045         	movff	floorf@F526+2,floorf@u+2
  6124   0034EC  C0EB  F046         	movff	floorf@F526+3,floorf@u+3
  6125   0034F0  C033  F043         	movff	floorf@x,floorf@u
  6126   0034F4  C034  F044         	movff	floorf@x+1,floorf@u+1
  6127   0034F8  C035  F045         	movff	floorf@x+2,floorf@u+2
  6128   0034FC  C036  F046         	movff	floorf@x+3,floorf@u+3
  6129   003500  0E81               	movlw	129
  6130   003502  6E37               	movwf	??_floorf^0,c
  6131   003504  0EFF               	movlw	255
  6132   003506  6E38               	movwf	(??_floorf+1)^0,c
  6133   003508  C043  F039         	movff	floorf@u,??_floorf+2
  6134   00350C  C044  F03A         	movff	floorf@u+1,??_floorf+3
  6135   003510  C045  F03B         	movff	floorf@u+2,??_floorf+4
  6136   003514  C046  F03C         	movff	floorf@u+3,??_floorf+5
  6137   003518  0E18               	movlw	24
  6138   00351A  EF94  F01A         	goto	i2u417_40
  6139   00351E                     i2u417_45:
  6140   00351E  90D8               	bcf	status,0,c
  6141   003520  323C               	rrcf	(??_floorf+5)^0,f,c
  6142   003522  323B               	rrcf	(??_floorf+4)^0,f,c
  6143   003524  323A               	rrcf	(??_floorf+3)^0,f,c
  6144   003526  3239               	rrcf	(??_floorf+2)^0,f,c
  6145   003528                     i2u417_40:
  6146   003528  2EE8               	decfsz	wreg,f,c
  6147   00352A  EF8F  F01A         	goto	i2u417_45
  6148   00352E  5039               	movf	(??_floorf+2)^0,w,c
  6149   003530  2437               	addwf	??_floorf^0,w,c
  6150   003532  6E41               	movwf	floorf@e^0,c
  6151   003534  0E00               	movlw	0
  6152   003536  2038               	addwfc	(??_floorf+1)^0,w,c
  6153   003538  6E42               	movwf	(floorf@e+1)^0,c
  6154   00353A  BE42               	btfsc	(floorf@e+1)^0,7,c
  6155   00353C  EFA9  F01A         	goto	i2u418_41
  6156   003540  5042               	movf	(floorf@e+1)^0,w,c
  6157   003542  E109               	bnz	i2u418_40
  6158   003544  0E17               	movlw	23
  6159   003546  5C41               	subwf	floorf@e^0,w,c
  6160   003548  A0D8               	btfss	status,0,c
  6161   00354A  EFA9  F01A         	goto	i2u418_41
  6162   00354E  EFAB  F01A         	goto	i2u418_40
  6163   003552                     i2u418_41:
  6164   003552  EFB5  F01A         	goto	i2l4394
  6165   003556                     i2u418_40:
  6166   003556                     i2l4392:
  6167   003556  C033  F033         	movff	floorf@x,?_floorf
  6168   00355A  C034  F034         	movff	floorf@x+1,?_floorf+1
  6169   00355E  C035  F035         	movff	floorf@x+2,?_floorf+2
  6170   003562  C036  F036         	movff	floorf@x+3,?_floorf+3
  6171   003566  EF78  F01B         	goto	i2l1431
  6172   00356A                     i2l4394:
  6173   00356A  BE42               	btfsc	(floorf@e+1)^0,7,c
  6174   00356C  EFBA  F01A         	goto	i2u419_41
  6175   003570  EFBC  F01A         	goto	i2u419_40
  6176   003574                     i2u419_41:
  6177   003574  EF2C  F01B         	goto	i2l4404
  6178   003578                     i2u419_40:
  6179   003578  C041  F037         	movff	floorf@e,??_floorf
  6180   00357C  0EFF               	movlw	255
  6181   00357E  6E38               	movwf	(??_floorf+1)^0,c
  6182   003580  0EFF               	movlw	255
  6183   003582  6E39               	movwf	(??_floorf+2)^0,c
  6184   003584  0E7F               	movlw	127
  6185   003586  6E3A               	movwf	(??_floorf+3)^0,c
  6186   003588  0E00               	movlw	0
  6187   00358A  6E3B               	movwf	(??_floorf+4)^0,c
  6188   00358C                     i2u420_45:
  6189   00358C  6637               	tstfsz	??_floorf^0,c
  6190   00358E  EFCB  F01A         	goto	i2u420_46
  6191   003592  EFD3  F01A         	goto	i2u420_47
  6192   003596                     i2u420_46:
  6193   003596  343B               	rlcf	(??_floorf+4)^0,w,c
  6194   003598  323B               	rrcf	(??_floorf+4)^0,f,c
  6195   00359A  323A               	rrcf	(??_floorf+3)^0,f,c
  6196   00359C  3239               	rrcf	(??_floorf+2)^0,f,c
  6197   00359E  3238               	rrcf	(??_floorf+1)^0,f,c
  6198   0035A0  2E37               	decfsz	??_floorf^0,f,c
  6199   0035A2  EFC6  F01A         	goto	i2u420_45
  6200   0035A6                     i2u420_47:
  6201   0035A6  C038  F03D         	movff	??_floorf+1,floorf@m
  6202   0035AA  C039  F03E         	movff	??_floorf+2,floorf@m+1
  6203   0035AE  C03A  F03F         	movff	??_floorf+3,floorf@m+2
  6204   0035B2  C03B  F040         	movff	??_floorf+4,floorf@m+3
  6205   0035B6  503D               	movf	floorf@m^0,w,c
  6206   0035B8  1443               	andwf	floorf@u^0,w,c
  6207   0035BA  6E37               	movwf	??_floorf^0,c
  6208   0035BC  503E               	movf	(floorf@m+1)^0,w,c
  6209   0035BE  1444               	andwf	(floorf@u+1)^0,w,c
  6210   0035C0  6E38               	movwf	(??_floorf+1)^0,c
  6211   0035C2  503F               	movf	(floorf@m+2)^0,w,c
  6212   0035C4  1445               	andwf	(floorf@u+2)^0,w,c
  6213   0035C6  6E39               	movwf	(??_floorf+2)^0,c
  6214   0035C8  5040               	movf	(floorf@m+3)^0,w,c
  6215   0035CA  1446               	andwf	(floorf@u+3)^0,w,c
  6216   0035CC  6E3A               	movwf	(??_floorf+3)^0,c
  6217   0035CE  5037               	movf	??_floorf^0,w,c
  6218   0035D0  1038               	iorwf	(??_floorf+1)^0,w,c
  6219   0035D2  1039               	iorwf	(??_floorf+2)^0,w,c
  6220   0035D4  103A               	iorwf	(??_floorf+3)^0,w,c
  6221   0035D6  A4D8               	btfss	status,2,c
  6222   0035D8  EFF0  F01A         	goto	i2u421_41
  6223   0035DC  EFF2  F01A         	goto	i2u421_40
  6224   0035E0                     i2u421_41:
  6225   0035E0  EFF4  F01A         	goto	i2l4400
  6226   0035E4                     i2u421_40:
  6227   0035E4  EFAB  F01A         	goto	i2l4392
  6228   0035E8                     i2l4400:
  6229   0035E8  C043  F037         	movff	floorf@u,??_floorf
  6230   0035EC  C044  F038         	movff	floorf@u+1,??_floorf+1
  6231   0035F0  C045  F039         	movff	floorf@u+2,??_floorf+2
  6232   0035F4  C046  F03A         	movff	floorf@u+3,??_floorf+3
  6233   0035F8  0E20               	movlw	32
  6234   0035FA  EF04  F01B         	goto	i2u422_40
  6235   0035FE                     i2u422_45:
  6236   0035FE  90D8               	bcf	status,0,c
  6237   003600  323A               	rrcf	(??_floorf+3)^0,f,c
  6238   003602  3239               	rrcf	(??_floorf+2)^0,f,c
  6239   003604  3238               	rrcf	(??_floorf+1)^0,f,c
  6240   003606  3237               	rrcf	??_floorf^0,f,c
  6241   003608                     i2u422_40:
  6242   003608  2EE8               	decfsz	wreg,f,c
  6243   00360A  EFFF  F01A         	goto	i2u422_45
  6244   00360E  5037               	movf	??_floorf^0,w,c
  6245   003610  1038               	iorwf	(??_floorf+1)^0,w,c
  6246   003612  1039               	iorwf	(??_floorf+2)^0,w,c
  6247   003614  103A               	iorwf	(??_floorf+3)^0,w,c
  6248   003616  B4D8               	btfsc	status,2,c
  6249   003618  EF10  F01B         	goto	i2u423_41
  6250   00361C  EF12  F01B         	goto	i2u423_40
  6251   003620                     i2u423_41:
  6252   003620  EF1A  F01B         	goto	i2l1434
  6253   003624                     i2u423_40:
  6254   003624  503D               	movf	floorf@m^0,w,c
  6255   003626  2643               	addwf	floorf@u^0,f,c
  6256   003628  503E               	movf	(floorf@m+1)^0,w,c
  6257   00362A  2244               	addwfc	(floorf@u+1)^0,f,c
  6258   00362C  503F               	movf	(floorf@m+2)^0,w,c
  6259   00362E  2245               	addwfc	(floorf@u+2)^0,f,c
  6260   003630  5040               	movf	(floorf@m+3)^0,w,c
  6261   003632  2246               	addwfc	(floorf@u+3)^0,f,c
  6262   003634                     i2l1434:
  6263   003634  1C3D               	comf	floorf@m^0,w,c
  6264   003636  6E37               	movwf	??_floorf^0,c
  6265   003638  1C3E               	comf	(floorf@m+1)^0,w,c
  6266   00363A  6E38               	movwf	(??_floorf+1)^0,c
  6267   00363C  1C3F               	comf	(floorf@m+2)^0,w,c
  6268   00363E  6E39               	movwf	(??_floorf+2)^0,c
  6269   003640  1C40               	comf	(floorf@m+3)^0,w,c
  6270   003642  6E3A               	movwf	(??_floorf+3)^0,c
  6271   003644  5037               	movf	??_floorf^0,w,c
  6272   003646  1643               	andwf	floorf@u^0,f,c
  6273   003648  5038               	movf	(??_floorf+1)^0,w,c
  6274   00364A  1644               	andwf	(floorf@u+1)^0,f,c
  6275   00364C  5039               	movf	(??_floorf+2)^0,w,c
  6276   00364E  1645               	andwf	(floorf@u+2)^0,f,c
  6277   003650  503A               	movf	(??_floorf+3)^0,w,c
  6278   003652  1646               	andwf	(floorf@u+3)^0,f,c
  6279   003654  EF70  F01B         	goto	i2l4412
  6280   003658                     i2l4404:
  6281   003658  C043  F037         	movff	floorf@u,??_floorf
  6282   00365C  C044  F038         	movff	floorf@u+1,??_floorf+1
  6283   003660  C045  F039         	movff	floorf@u+2,??_floorf+2
  6284   003664  C046  F03A         	movff	floorf@u+3,??_floorf+3
  6285   003668  0E20               	movlw	32
  6286   00366A  EF3C  F01B         	goto	i2u424_40
  6287   00366E                     i2u424_45:
  6288   00366E  90D8               	bcf	status,0,c
  6289   003670  323A               	rrcf	(??_floorf+3)^0,f,c
  6290   003672  3239               	rrcf	(??_floorf+2)^0,f,c
  6291   003674  3238               	rrcf	(??_floorf+1)^0,f,c
  6292   003676  3237               	rrcf	??_floorf^0,f,c
  6293   003678                     i2u424_40:
  6294   003678  2EE8               	decfsz	wreg,f,c
  6295   00367A  EF37  F01B         	goto	i2u424_45
  6296   00367E  5037               	movf	??_floorf^0,w,c
  6297   003680  1038               	iorwf	(??_floorf+1)^0,w,c
  6298   003682  1039               	iorwf	(??_floorf+2)^0,w,c
  6299   003684  103A               	iorwf	(??_floorf+3)^0,w,c
  6300   003686  A4D8               	btfss	status,2,c
  6301   003688  EF48  F01B         	goto	i2u425_41
  6302   00368C  EF4A  F01B         	goto	i2u425_40
  6303   003690                     i2u425_41:
  6304   003690  EF54  F01B         	goto	i2l4408
  6305   003694                     i2u425_40:
  6306   003694  0E00               	movlw	0
  6307   003696  6E43               	movwf	floorf@u^0,c
  6308   003698  0E00               	movlw	0
  6309   00369A  6E44               	movwf	(floorf@u+1)^0,c
  6310   00369C  0E00               	movlw	0
  6311   00369E  6E45               	movwf	(floorf@u+2)^0,c
  6312   0036A0  0E00               	movlw	0
  6313   0036A2  6E46               	movwf	(floorf@u+3)^0,c
  6314   0036A4  EF70  F01B         	goto	i2l4412
  6315   0036A8                     i2l4408:
  6316   0036A8  90D8               	bcf	status,0,c
  6317   0036AA  3443               	rlcf	floorf@u^0,w,c
  6318   0036AC  6E37               	movwf	??_floorf^0,c
  6319   0036AE  3444               	rlcf	(floorf@u+1)^0,w,c
  6320   0036B0  6E38               	movwf	(??_floorf+1)^0,c
  6321   0036B2  3445               	rlcf	(floorf@u+2)^0,w,c
  6322   0036B4  6E39               	movwf	(??_floorf+2)^0,c
  6323   0036B6  3446               	rlcf	(floorf@u+3)^0,w,c
  6324   0036B8  6E3A               	movwf	(??_floorf+3)^0,c
  6325   0036BA  5037               	movf	??_floorf^0,w,c
  6326   0036BC  1038               	iorwf	(??_floorf+1)^0,w,c
  6327   0036BE  1039               	iorwf	(??_floorf+2)^0,w,c
  6328   0036C0  103A               	iorwf	(??_floorf+3)^0,w,c
  6329   0036C2  B4D8               	btfsc	status,2,c
  6330   0036C4  EF66  F01B         	goto	i2u426_41
  6331   0036C8  EF68  F01B         	goto	i2u426_40
  6332   0036CC                     i2u426_41:
  6333   0036CC  EF70  F01B         	goto	i2l4412
  6334   0036D0                     i2u426_40:
  6335   0036D0  0E00               	movlw	0
  6336   0036D2  6E43               	movwf	floorf@u^0,c
  6337   0036D4  0E00               	movlw	0
  6338   0036D6  6E44               	movwf	(floorf@u+1)^0,c
  6339   0036D8  0E80               	movlw	128
  6340   0036DA  6E45               	movwf	(floorf@u+2)^0,c
  6341   0036DC  0EBF               	movlw	191
  6342   0036DE  6E46               	movwf	(floorf@u+3)^0,c
  6343   0036E0                     i2l4412:
  6344   0036E0  C043  F033         	movff	floorf@u,?_floorf
  6345   0036E4  C044  F034         	movff	floorf@u+1,?_floorf+1
  6346   0036E8  C045  F035         	movff	floorf@u+2,?_floorf+2
  6347   0036EC  C046  F036         	movff	floorf@u+3,?_floorf+3
  6348   0036F0                     i2l1431:
  6349   0036F0  0012               	return		;funcret
  6350   0036F2                     __end_of_floorf:
  6351                           	callstack 0
  6352                           
  6353 ;; *************** function ___fpclassifyf *****************
  6354 ;; Defined at:
  6355 ;;		line 4 in file "C:\Program Files\Microchip\xc8\v2.41\pic\sources\c99\common\__fpclassifyf.c"
  6356 ;; Parameters:    Size  Location     Type
  6357 ;;  x               4    0[COMRAM] float 
  6358 ;; Auto vars:     Size  Location     Type
  6359 ;;  u               4   10[COMRAM] struct .
  6360 ;;  e               2    8[COMRAM] int 
  6361 ;; Return value:  Size  Location     Type
  6362 ;;                  2    0[COMRAM] int 
  6363 ;; Registers used:
  6364 ;;		wreg, status,2, status,0
  6365 ;; Tracked objects:
  6366 ;;		On entry : 0/0
  6367 ;;		On exit  : 0/0
  6368 ;;		Unchanged: 0/0
  6369 ;; Data sizes:     COMRAM   BANK0   BANK1   BANK2   BANK3   BANK4   BANK5   BANK6   BANK7   BANK8   BANK9  BANK10  BANK1
      +1  BANK12  BANK13  BANK14  BANK15
  6370 ;;      Params:         4       0       0       0       0       0       0       0       0       0       0       0       
      +0       0       0       0       0
  6371 ;;      Locals:         6       0       0       0       0       0       0       0       0       0       0       0       
      +0       0       0       0       0
  6372 ;;      Temps:          4       0       0       0       0       0       0       0       0       0       0       0       
      +0       0       0       0       0
  6373 ;;      Totals:        14       0       0       0       0       0       0       0       0       0       0       0       
      +0       0       0       0       0
  6374 ;;Total ram usage:       14 bytes
  6375 ;; Hardware stack levels used: 1
  6376 ;; This function calls:
  6377 ;;		Nothing
  6378 ;; This function is called by:
  6379 ;;		_efgtoa
  6380 ;; This function uses a non-reentrant model
  6381 ;;
  6382                           
  6383                           	psect	text34
  6384   003D82                     __ptext34:
  6385                           	callstack 0
  6386   003D82                     ___fpclassifyf:
  6387                           	callstack 18
  6388   003D82  C0EC  F00B         	movff	___fpclassifyf@F465,___fpclassifyf@u
  6389   003D86  C0ED  F00C         	movff	___fpclassifyf@F465+1,___fpclassifyf@u+1
  6390   003D8A  C0EE  F00D         	movff	___fpclassifyf@F465+2,___fpclassifyf@u+2
  6391   003D8E  C0EF  F00E         	movff	___fpclassifyf@F465+3,___fpclassifyf@u+3
  6392   003D92  C001  F00B         	movff	___fpclassifyf@x,___fpclassifyf@u
  6393   003D96  C002  F00C         	movff	___fpclassifyf@x+1,___fpclassifyf@u+1
  6394   003D9A  C003  F00D         	movff	___fpclassifyf@x+2,___fpclassifyf@u+2
  6395   003D9E  C004  F00E         	movff	___fpclassifyf@x+3,___fpclassifyf@u+3
  6396   003DA2  C00B  F005         	movff	___fpclassifyf@u,??___fpclassifyf
  6397   003DA6  C00C  F006         	movff	___fpclassifyf@u+1,??___fpclassifyf+1
  6398   003DAA  C00D  F007         	movff	___fpclassifyf@u+2,??___fpclassifyf+2
  6399   003DAE  C00E  F008         	movff	___fpclassifyf@u+3,??___fpclassifyf+3
  6400   003DB2  0E18               	movlw	24
  6401   003DB4  EFE1  F01E         	goto	i2u408_40
  6402   003DB8                     i2u408_45:
  6403   003DB8  90D8               	bcf	status,0,c
  6404   003DBA  3208               	rrcf	(??___fpclassifyf+3)^0,f,c
  6405   003DBC  3207               	rrcf	(??___fpclassifyf+2)^0,f,c
  6406   003DBE  3206               	rrcf	(??___fpclassifyf+1)^0,f,c
  6407   003DC0  3205               	rrcf	??___fpclassifyf^0,f,c
  6408   003DC2                     i2u408_40:
  6409   003DC2  2EE8               	decfsz	wreg,f,c
  6410   003DC4  EFDC  F01E         	goto	i2u408_45
  6411   003DC8  5005               	movf	??___fpclassifyf^0,w,c
  6412   003DCA  6E09               	movwf	___fpclassifyf@e^0,c
  6413   003DCC  6A0A               	clrf	(___fpclassifyf@e+1)^0,c
  6414   003DCE  5009               	movf	___fpclassifyf@e^0,w,c
  6415   003DD0  100A               	iorwf	(___fpclassifyf@e+1)^0,w,c
  6416   003DD2  A4D8               	btfss	status,2,c
  6417   003DD4  EFEE  F01E         	goto	i2u409_41
  6418   003DD8  EFF0  F01E         	goto	i2u409_40
  6419   003DDC                     i2u409_41:
  6420   003DDC  EF10  F01F         	goto	i2l4370
  6421   003DE0                     i2u409_40:
  6422   003DE0  90D8               	bcf	status,0,c
  6423   003DE2  340B               	rlcf	___fpclassifyf@u^0,w,c
  6424   003DE4  6E05               	movwf	??___fpclassifyf^0,c
  6425   003DE6  340C               	rlcf	(___fpclassifyf@u+1)^0,w,c
  6426   003DE8  6E06               	movwf	(??___fpclassifyf+1)^0,c
  6427   003DEA  340D               	rlcf	(___fpclassifyf@u+2)^0,w,c
  6428   003DEC  6E07               	movwf	(??___fpclassifyf+2)^0,c
  6429   003DEE  340E               	rlcf	(___fpclassifyf@u+3)^0,w,c
  6430   003DF0  6E08               	movwf	(??___fpclassifyf+3)^0,c
  6431   003DF2  5005               	movf	??___fpclassifyf^0,w,c
  6432   003DF4  1006               	iorwf	(??___fpclassifyf+1)^0,w,c
  6433   003DF6  1007               	iorwf	(??___fpclassifyf+2)^0,w,c
  6434   003DF8  1008               	iorwf	(??___fpclassifyf+3)^0,w,c
  6435   003DFA  A4D8               	btfss	status,2,c
  6436   003DFC  EF02  F01F         	goto	i2u410_41
  6437   003E00  EF04  F01F         	goto	i2u410_40
  6438   003E04                     i2u410_41:
  6439   003E04  EF0A  F01F         	goto	i2l4366
  6440   003E08                     i2u410_40:
  6441   003E08  0E00               	movlw	0
  6442   003E0A  6E02               	movwf	(?___fpclassifyf+1)^0,c
  6443   003E0C  0E02               	movlw	2
  6444   003E0E  6E01               	movwf	?___fpclassifyf^0,c
  6445   003E10  EF3F  F01F         	goto	i2l1417
  6446   003E14                     i2l4366:
  6447   003E14  0E00               	movlw	0
  6448   003E16  6E02               	movwf	(?___fpclassifyf+1)^0,c
  6449   003E18  0E03               	movlw	3
  6450   003E1A  6E01               	movwf	?___fpclassifyf^0,c
  6451   003E1C  EF3F  F01F         	goto	i2l1417
  6452   003E20                     i2l4370:
  6453   003E20  2809               	incf	___fpclassifyf@e^0,w,c
  6454   003E22  100A               	iorwf	(___fpclassifyf@e+1)^0,w,c
  6455   003E24  A4D8               	btfss	status,2,c
  6456   003E26  EF17  F01F         	goto	i2u411_41
  6457   003E2A  EF19  F01F         	goto	i2u411_40
  6458   003E2E                     i2u411_41:
  6459   003E2E  EF3B  F01F         	goto	i2l4376
  6460   003E32                     i2u411_40:
  6461   003E32  C00B  F005         	movff	___fpclassifyf@u,??___fpclassifyf
  6462   003E36  C00C  F006         	movff	___fpclassifyf@u+1,??___fpclassifyf+1
  6463   003E3A  C00D  F007         	movff	___fpclassifyf@u+2,??___fpclassifyf+2
  6464   003E3E  C00E  F008         	movff	___fpclassifyf@u+3,??___fpclassifyf+3
  6465   003E42  0E09               	movlw	9
  6466   003E44                     i2u412_45:
  6467   003E44  90D8               	bcf	status,0,c
  6468   003E46  3605               	rlcf	??___fpclassifyf^0,f,c
  6469   003E48  3606               	rlcf	(??___fpclassifyf+1)^0,f,c
  6470   003E4A  3607               	rlcf	(??___fpclassifyf+2)^0,f,c
  6471   003E4C  3608               	rlcf	(??___fpclassifyf+3)^0,f,c
  6472   003E4E  2EE8               	decfsz	wreg,f,c
  6473   003E50  EF22  F01F         	goto	i2u412_45
  6474   003E54  5005               	movf	??___fpclassifyf^0,w,c
  6475   003E56  1006               	iorwf	(??___fpclassifyf+1)^0,w,c
  6476   003E58  1007               	iorwf	(??___fpclassifyf+2)^0,w,c
  6477   003E5A  1008               	iorwf	(??___fpclassifyf+3)^0,w,c
  6478   003E5C  B4D8               	btfsc	status,2,c
  6479   003E5E  EF33  F01F         	goto	i2u413_41
  6480   003E62  EF36  F01F         	goto	i2u413_40
  6481   003E66                     i2u413_41:
  6482   003E66  0E01               	movlw	1
  6483   003E68  EF37  F01F         	goto	i2u414_40
  6484   003E6C                     i2u413_40:
  6485   003E6C  0E00               	movlw	0
  6486   003E6E                     i2u414_40:
  6487   003E6E  6E01               	movwf	?___fpclassifyf^0,c
  6488   003E70  6A02               	clrf	(?___fpclassifyf+1)^0,c
  6489   003E72  EF3F  F01F         	goto	i2l1417
  6490   003E76                     i2l4376:
  6491   003E76  0E00               	movlw	0
  6492   003E78  6E02               	movwf	(?___fpclassifyf+1)^0,c
  6493   003E7A  0E04               	movlw	4
  6494   003E7C  6E01               	movwf	?___fpclassifyf^0,c
  6495   003E7E                     i2l1417:
  6496   003E7E  0012               	return		;funcret
  6497   003E80                     __end_of___fpclassifyf:
  6498                           	callstack 0
  6499                           
  6500 ;; *************** function ___fltol *****************
  6501 ;; Defined at:
  6502 ;;		line 43 in file "C:\Program Files\Microchip\xc8\v2.41\pic\sources\c99\common\fltol.c"
  6503 ;; Parameters:    Size  Location     Type
  6504 ;;  f1              4    0[COMRAM] int 
  6505 ;; Auto vars:     Size  Location     Type
  6506 ;;  exp1            1    9[COMRAM] unsigned char 
  6507 ;;  sign1           1    8[COMRAM] unsigned char 
  6508 ;; Return value:  Size  Location     Type
  6509 ;;                  4    0[COMRAM] long 
  6510 ;; Registers used:
  6511 ;;		wreg, status,2, status,0
  6512 ;; Tracked objects:
  6513 ;;		On entry : 0/0
  6514 ;;		On exit  : 0/0
  6515 ;;		Unchanged: 0/0
  6516 ;; Data sizes:     COMRAM   BANK0   BANK1   BANK2   BANK3   BANK4   BANK5   BANK6   BANK7   BANK8   BANK9  BANK10  BANK1
      +1  BANK12  BANK13  BANK14  BANK15
  6517 ;;      Params:         4       0       0       0       0       0       0       0       0       0       0       0       
      +0       0       0       0       0
  6518 ;;      Locals:         2       0       0       0       0       0       0       0       0       0       0       0       
      +0       0       0       0       0
  6519 ;;      Temps:          4       0       0       0       0       0       0       0       0       0       0       0       
      +0       0       0       0       0
  6520 ;;      Totals:        10       0       0       0       0       0       0       0       0       0       0       0       
      +0       0       0       0       0
  6521 ;;Total ram usage:       10 bytes
  6522 ;; Hardware stack levels used: 1
  6523 ;; This function calls:
  6524 ;;		Nothing
  6525 ;; This function is called by:
  6526 ;;		_efgtoa
  6527 ;; This function uses a non-reentrant model
  6528 ;;
  6529                           
  6530                           	psect	text35
  6531   003B78                     __ptext35:
  6532                           	callstack 0
  6533   003B78                     ___fltol:
  6534                           	callstack 18
  6535   003B78  3403               	rlcf	(___fltol@f1+2)^0,w,c
  6536   003B7A  3404               	rlcf	(___fltol@f1+3)^0,w,c
  6537   003B7C  6E0A               	movwf	___fltol@exp1^0,c
  6538   003B7E  500A               	movf	___fltol@exp1^0,w,c
  6539   003B80  A4D8               	btfss	status,2,c
  6540   003B82  EFC5  F01D         	goto	i2u398_41
  6541   003B86  EFC7  F01D         	goto	i2u398_40
  6542   003B8A                     i2u398_41:
  6543   003B8A  EFD1  F01D         	goto	i2l4302
  6544   003B8E                     i2u398_40:
  6545   003B8E                     i2l4298:
  6546   003B8E  0E00               	movlw	0
  6547   003B90  6E01               	movwf	?___fltol^0,c
  6548   003B92  0E00               	movlw	0
  6549   003B94  6E02               	movwf	(?___fltol+1)^0,c
  6550   003B96  0E00               	movlw	0
  6551   003B98  6E03               	movwf	(?___fltol+2)^0,c
  6552   003B9A  0E00               	movlw	0
  6553   003B9C  6E04               	movwf	(?___fltol+3)^0,c
  6554   003B9E  EF3E  F01E         	goto	i2l851
  6555   003BA2                     i2l4302:
  6556   003BA2  C001  F005         	movff	___fltol@f1,??___fltol
  6557   003BA6  C002  F006         	movff	___fltol@f1+1,??___fltol+1
  6558   003BAA  C003  F007         	movff	___fltol@f1+2,??___fltol+2
  6559   003BAE  C004  F008         	movff	___fltol@f1+3,??___fltol+3
  6560   003BB2  0E20               	movlw	32
  6561   003BB4  EFE1  F01D         	goto	i2u399_40
  6562   003BB8                     i2u399_45:
  6563   003BB8  90D8               	bcf	status,0,c
  6564   003BBA  3208               	rrcf	(??___fltol+3)^0,f,c
  6565   003BBC  3207               	rrcf	(??___fltol+2)^0,f,c
  6566   003BBE  3206               	rrcf	(??___fltol+1)^0,f,c
  6567   003BC0  3205               	rrcf	??___fltol^0,f,c
  6568   003BC2                     i2u399_40:
  6569   003BC2  2EE8               	decfsz	wreg,f,c
  6570   003BC4  EFDC  F01D         	goto	i2u399_45
  6571   003BC8  5005               	movf	??___fltol^0,w,c
  6572   003BCA  6E09               	movwf	___fltol@sign1^0,c
  6573   003BCC  8E03               	bsf	(___fltol@f1+2)^0,7,c
  6574   003BCE  0EFF               	movlw	255
  6575   003BD0  1601               	andwf	___fltol@f1^0,f,c
  6576   003BD2  0EFF               	movlw	255
  6577   003BD4  1602               	andwf	(___fltol@f1+1)^0,f,c
  6578   003BD6  0EFF               	movlw	255
  6579   003BD8  1603               	andwf	(___fltol@f1+2)^0,f,c
  6580   003BDA  0E00               	movlw	0
  6581   003BDC  1604               	andwf	(___fltol@f1+3)^0,f,c
  6582   003BDE  0E96               	movlw	150
  6583   003BE0  5E0A               	subwf	___fltol@exp1^0,f,c
  6584   003BE2  BE0A               	btfsc	___fltol@exp1^0,7,c
  6585   003BE4  EFF8  F01D         	goto	i2u400_40
  6586   003BE8  EFF6  F01D         	goto	i2u400_41
  6587   003BEC                     i2u400_41:
  6588   003BEC  EF0E  F01E         	goto	i2l4322
  6589   003BF0                     i2u400_40:
  6590   003BF0  500A               	movf	___fltol@exp1^0,w,c
  6591   003BF2  0A80               	xorlw	128
  6592   003BF4  0F97               	addlw	151
  6593   003BF6  B0D8               	btfsc	status,0,c
  6594   003BF8  EF00  F01E         	goto	i2u401_41
  6595   003BFC  EF02  F01E         	goto	i2u401_40
  6596   003C00                     i2u401_41:
  6597   003C00  EF04  F01E         	goto	i2l4318
  6598   003C04                     i2u401_40:
  6599   003C04  EFC7  F01D         	goto	i2l4298
  6600   003C08                     i2l4318:
  6601   003C08  90D8               	bcf	status,0,c
  6602   003C0A  3204               	rrcf	(___fltol@f1+3)^0,f,c
  6603   003C0C  3203               	rrcf	(___fltol@f1+2)^0,f,c
  6604   003C0E  3202               	rrcf	(___fltol@f1+1)^0,f,c
  6605   003C10  3201               	rrcf	___fltol@f1^0,f,c
  6606   003C12  3E0A               	incfsz	___fltol@exp1^0,f,c
  6607   003C14  EF04  F01E         	goto	i2l4318
  6608   003C18  EF26  F01E         	goto	i2l4332
  6609   003C1C                     i2l4322:
  6610   003C1C  0E1F               	movlw	31
  6611   003C1E  640A               	cpfsgt	___fltol@exp1^0,c
  6612   003C20  EF14  F01E         	goto	i2u402_41
  6613   003C24  EF16  F01E         	goto	i2u402_40
  6614   003C28                     i2u402_41:
  6615   003C28  EF1E  F01E         	goto	i2l4330
  6616   003C2C                     i2u402_40:
  6617   003C2C  EFC7  F01D         	goto	i2l4298
  6618   003C30                     i2l4328:
  6619   003C30  90D8               	bcf	status,0,c
  6620   003C32  3601               	rlcf	___fltol@f1^0,f,c
  6621   003C34  3602               	rlcf	(___fltol@f1+1)^0,f,c
  6622   003C36  3603               	rlcf	(___fltol@f1+2)^0,f,c
  6623   003C38  3604               	rlcf	(___fltol@f1+3)^0,f,c
  6624   003C3A  060A               	decf	___fltol@exp1^0,f,c
  6625   003C3C                     i2l4330:
  6626   003C3C  500A               	movf	___fltol@exp1^0,w,c
  6627   003C3E  A4D8               	btfss	status,2,c
  6628   003C40  EF24  F01E         	goto	i2u403_41
  6629   003C44  EF26  F01E         	goto	i2u403_40
  6630   003C48                     i2u403_41:
  6631   003C48  EF18  F01E         	goto	i2l4328
  6632   003C4C                     i2u403_40:
  6633   003C4C                     i2l4332:
  6634   003C4C  5009               	movf	___fltol@sign1^0,w,c
  6635   003C4E  B4D8               	btfsc	status,2,c
  6636   003C50  EF2C  F01E         	goto	i2u404_41
  6637   003C54  EF2E  F01E         	goto	i2u404_40
  6638   003C58                     i2u404_41:
  6639   003C58  EF36  F01E         	goto	i2l4336
  6640   003C5C                     i2u404_40:
  6641   003C5C  1E04               	comf	(___fltol@f1+3)^0,f,c
  6642   003C5E  1E03               	comf	(___fltol@f1+2)^0,f,c
  6643   003C60  1E02               	comf	(___fltol@f1+1)^0,f,c
  6644   003C62  6C01               	negf	___fltol@f1^0,c
  6645   003C64  0E00               	movlw	0
  6646   003C66  2202               	addwfc	(___fltol@f1+1)^0,f,c
  6647   003C68  2203               	addwfc	(___fltol@f1+2)^0,f,c
  6648   003C6A  2204               	addwfc	(___fltol@f1+3)^0,f,c
  6649   003C6C                     i2l4336:
  6650   003C6C  C001  F001         	movff	___fltol@f1,?___fltol
  6651   003C70  C002  F002         	movff	___fltol@f1+1,?___fltol+1
  6652   003C74  C003  F003         	movff	___fltol@f1+2,?___fltol+2
  6653   003C78  C004  F004         	movff	___fltol@f1+3,?___fltol+3
  6654   003C7C                     i2l851:
  6655   003C7C  0012               	return		;funcret
  6656   003C7E                     __end_of___fltol:
  6657                           	callstack 0
  6658                           
  6659 ;; *************** function ___flneg *****************
  6660 ;; Defined at:
  6661 ;;		line 15 in file "C:\Program Files\Microchip\xc8\v2.41\pic\sources\c99\common\flneg.c"
  6662 ;; Parameters:    Size  Location     Type
  6663 ;;  f1              4    0[COMRAM] long 
  6664 ;; Auto vars:     Size  Location     Type
  6665 ;;		None
  6666 ;; Return value:  Size  Location     Type
  6667 ;;                  4    0[COMRAM] long 
  6668 ;; Registers used:
  6669 ;;		wreg, status,2, status,0
  6670 ;; Tracked objects:
  6671 ;;		On entry : 0/0
  6672 ;;		On exit  : 0/0
  6673 ;;		Unchanged: 0/0
  6674 ;; Data sizes:     COMRAM   BANK0   BANK1   BANK2   BANK3   BANK4   BANK5   BANK6   BANK7   BANK8   BANK9  BANK10  BANK1
      +1  BANK12  BANK13  BANK14  BANK15
  6675 ;;      Params:         4       0       0       0       0       0       0       0       0       0       0       0       
      +0       0       0       0       0
  6676 ;;      Locals:         0       0       0       0       0       0       0       0       0       0       0       0       
      +0       0       0       0       0
  6677 ;;      Temps:          0       0       0       0       0       0       0       0       0       0       0       0       
      +0       0       0       0       0
  6678 ;;      Totals:         4       0       0       0       0       0       0       0       0       0       0       0       
      +0       0       0       0       0
  6679 ;;Total ram usage:        4 bytes
  6680 ;; Hardware stack levels used: 1
  6681 ;; This function calls:
  6682 ;;		Nothing
  6683 ;; This function is called by:
  6684 ;;		_efgtoa
  6685 ;; This function uses a non-reentrant model
  6686 ;;
  6687                           
  6688                           	psect	text36
  6689   004D56                     __ptext36:
  6690                           	callstack 0
  6691   004D56                     ___flneg:
  6692                           	callstack 18
  6693   004D56  5001               	movf	___flneg@f1^0,w,c
  6694   004D58  1002               	iorwf	(___flneg@f1+1)^0,w,c
  6695   004D5A  1003               	iorwf	(___flneg@f1+2)^0,w,c
  6696   004D5C  1004               	iorwf	(___flneg@f1+3)^0,w,c
  6697   004D5E  B4D8               	btfsc	status,2,c
  6698   004D60  EFB4  F026         	goto	i2u397_41
  6699   004D64  EFB6  F026         	goto	i2u397_40
  6700   004D68                     i2u397_41:
  6701   004D68  EFBE  F026         	goto	i2l4292
  6702   004D6C                     i2u397_40:
  6703   004D6C  0E00               	movlw	0
  6704   004D6E  1A01               	xorwf	___flneg@f1^0,f,c
  6705   004D70  0E00               	movlw	0
  6706   004D72  1A02               	xorwf	(___flneg@f1+1)^0,f,c
  6707   004D74  0E00               	movlw	0
  6708   004D76  1A03               	xorwf	(___flneg@f1+2)^0,f,c
  6709   004D78  0E80               	movlw	128
  6710   004D7A  1A04               	xorwf	(___flneg@f1+3)^0,f,c
  6711   004D7C                     i2l4292:
  6712   004D7C  C001  F001         	movff	___flneg@f1,?___flneg
  6713   004D80  C002  F002         	movff	___flneg@f1+1,?___flneg+1
  6714   004D84  C003  F003         	movff	___flneg@f1+2,?___flneg+2
  6715   004D88  C004  F004         	movff	___flneg@f1+3,?___flneg+3
  6716   004D8C  0012               	return		;funcret
  6717   004D8E                     __end_of___flneg:
  6718                           	callstack 0
  6719                           
  6720 ;; *************** function ___flge *****************
  6721 ;; Defined at:
  6722 ;;		line 4 in file "C:\Program Files\Microchip\xc8\v2.41\pic\sources\c99\common\flge.c"
  6723 ;; Parameters:    Size  Location     Type
  6724 ;;  ff1             4   25[COMRAM] long 
  6725 ;;  ff2             4   29[COMRAM] long 
  6726 ;; Auto vars:     Size  Location     Type
  6727 ;;		None
  6728 ;; Return value:  Size  Location     Type
  6729 ;;		None               void
  6730 ;; Registers used:
  6731 ;;		wreg, status,2, status,0
  6732 ;; Tracked objects:
  6733 ;;		On entry : 0/0
  6734 ;;		On exit  : 0/0
  6735 ;;		Unchanged: 0/0
  6736 ;; Data sizes:     COMRAM   BANK0   BANK1   BANK2   BANK3   BANK4   BANK5   BANK6   BANK7   BANK8   BANK9  BANK10  BANK1
      +1  BANK12  BANK13  BANK14  BANK15
  6737 ;;      Params:         8       0       0       0       0       0       0       0       0       0       0       0       
      +0       0       0       0       0
  6738 ;;      Locals:         0       0       0       0       0       0       0       0       0       0       0       0       
      +0       0       0       0       0
  6739 ;;      Temps:          4       0       0       0       0       0       0       0       0       0       0       0       
      +0       0       0       0       0
  6740 ;;      Totals:        12       0       0       0       0       0       0       0       0       0       0       0       
      +0       0       0       0       0
  6741 ;;Total ram usage:       12 bytes
  6742 ;; Hardware stack levels used: 1
  6743 ;; This function calls:
  6744 ;;		Nothing
  6745 ;; This function is called by:
  6746 ;;		_efgtoa
  6747 ;; This function uses a non-reentrant model
  6748 ;;
  6749                           
  6750                           	psect	text37
  6751   003C7E                     __ptext37:
  6752                           	callstack 0
  6753   003C7E                     ___flge:
  6754                           	callstack 18
  6755   003C7E  0E00               	movlw	0
  6756   003C80  141A               	andwf	___flge@ff1^0,w,c
  6757   003C82  6E22               	movwf	??___flge^0,c
  6758   003C84  0E00               	movlw	0
  6759   003C86  141B               	andwf	(___flge@ff1+1)^0,w,c
  6760   003C88  6E23               	movwf	(??___flge+1)^0,c
  6761   003C8A  0E80               	movlw	128
  6762   003C8C  141C               	andwf	(___flge@ff1+2)^0,w,c
  6763   003C8E  6E24               	movwf	(??___flge+2)^0,c
  6764   003C90  0E7F               	movlw	127
  6765   003C92  141D               	andwf	(___flge@ff1+3)^0,w,c
  6766   003C94  6E25               	movwf	(??___flge+3)^0,c
  6767   003C96  5022               	movf	??___flge^0,w,c
  6768   003C98  1023               	iorwf	(??___flge+1)^0,w,c
  6769   003C9A  1024               	iorwf	(??___flge+2)^0,w,c
  6770   003C9C  1025               	iorwf	(??___flge+3)^0,w,c
  6771   003C9E  A4D8               	btfss	status,2,c
  6772   003CA0  EF54  F01E         	goto	i2u392_41
  6773   003CA4  EF56  F01E         	goto	i2u392_40
  6774   003CA8                     i2u392_41:
  6775   003CA8  EF5E  F01E         	goto	i2l4270
  6776   003CAC                     i2u392_40:
  6777   003CAC  0E00               	movlw	0
  6778   003CAE  6E1A               	movwf	___flge@ff1^0,c
  6779   003CB0  0E00               	movlw	0
  6780   003CB2  6E1B               	movwf	(___flge@ff1+1)^0,c
  6781   003CB4  0E00               	movlw	0
  6782   003CB6  6E1C               	movwf	(___flge@ff1+2)^0,c
  6783   003CB8  0E00               	movlw	0
  6784   003CBA  6E1D               	movwf	(___flge@ff1+3)^0,c
  6785   003CBC                     i2l4270:
  6786   003CBC  0E00               	movlw	0
  6787   003CBE  141E               	andwf	___flge@ff2^0,w,c
  6788   003CC0  6E22               	movwf	??___flge^0,c
  6789   003CC2  0E00               	movlw	0
  6790   003CC4  141F               	andwf	(___flge@ff2+1)^0,w,c
  6791   003CC6  6E23               	movwf	(??___flge+1)^0,c
  6792   003CC8  0E80               	movlw	128
  6793   003CCA  1420               	andwf	(___flge@ff2+2)^0,w,c
  6794   003CCC  6E24               	movwf	(??___flge+2)^0,c
  6795   003CCE  0E7F               	movlw	127
  6796   003CD0  1421               	andwf	(___flge@ff2+3)^0,w,c
  6797   003CD2  6E25               	movwf	(??___flge+3)^0,c
  6798   003CD4  5022               	movf	??___flge^0,w,c
  6799   003CD6  1023               	iorwf	(??___flge+1)^0,w,c
  6800   003CD8  1024               	iorwf	(??___flge+2)^0,w,c
  6801   003CDA  1025               	iorwf	(??___flge+3)^0,w,c
  6802   003CDC  A4D8               	btfss	status,2,c
  6803   003CDE  EF73  F01E         	goto	i2u393_41
  6804   003CE2  EF75  F01E         	goto	i2u393_40
  6805   003CE6                     i2u393_41:
  6806   003CE6  EF7D  F01E         	goto	i2l4274
  6807   003CEA                     i2u393_40:
  6808   003CEA  0E00               	movlw	0
  6809   003CEC  6E1E               	movwf	___flge@ff2^0,c
  6810   003CEE  0E00               	movlw	0
  6811   003CF0  6E1F               	movwf	(___flge@ff2+1)^0,c
  6812   003CF2  0E00               	movlw	0
  6813   003CF4  6E20               	movwf	(___flge@ff2+2)^0,c
  6814   003CF6  0E00               	movlw	0
  6815   003CF8  6E21               	movwf	(___flge@ff2+3)^0,c
  6816   003CFA                     i2l4274:
  6817   003CFA  AE1D               	btfss	(___flge@ff1+3)^0,7,c
  6818   003CFC  EF82  F01E         	goto	i2u394_41
  6819   003D00  EF84  F01E         	goto	i2u394_40
  6820   003D04                     i2u394_41:
  6821   003D04  EF8D  F01E         	goto	i2l4278
  6822   003D08                     i2u394_40:
  6823   003D08  6C1A               	negf	___flge@ff1^0,c
  6824   003D0A  1E1B               	comf	(___flge@ff1+1)^0,f,c
  6825   003D0C  B0D8               	btfsc	status,0,c
  6826   003D0E  2A1B               	incf	(___flge@ff1+1)^0,f,c
  6827   003D10  1E1C               	comf	(___flge@ff1+2)^0,f,c
  6828   003D12  B0D8               	btfsc	status,0,c
  6829   003D14  2A1C               	incf	(___flge@ff1+2)^0,f,c
  6830   003D16  0E80               	movlw	128
  6831   003D18  561D               	subfwb	(___flge@ff1+3)^0,f,c
  6832   003D1A                     i2l4278:
  6833   003D1A  AE21               	btfss	(___flge@ff2+3)^0,7,c
  6834   003D1C  EF92  F01E         	goto	i2u395_41
  6835   003D20  EF94  F01E         	goto	i2u395_40
  6836   003D24                     i2u395_41:
  6837   003D24  EF9D  F01E         	goto	i2l819
  6838   003D28                     i2u395_40:
  6839   003D28  6C1E               	negf	___flge@ff2^0,c
  6840   003D2A  1E1F               	comf	(___flge@ff2+1)^0,f,c
  6841   003D2C  B0D8               	btfsc	status,0,c
  6842   003D2E  2A1F               	incf	(___flge@ff2+1)^0,f,c
  6843   003D30  1E20               	comf	(___flge@ff2+2)^0,f,c
  6844   003D32  B0D8               	btfsc	status,0,c
  6845   003D34  2A20               	incf	(___flge@ff2+2)^0,f,c
  6846   003D36  0E80               	movlw	128
  6847   003D38  5621               	subfwb	(___flge@ff2+3)^0,f,c
  6848   003D3A                     i2l819:
  6849   003D3A  0E00               	movlw	0
  6850   003D3C  1A1A               	xorwf	___flge@ff1^0,f,c
  6851   003D3E  0E00               	movlw	0
  6852   003D40  1A1B               	xorwf	(___flge@ff1+1)^0,f,c
  6853   003D42  0E00               	movlw	0
  6854   003D44  1A1C               	xorwf	(___flge@ff1+2)^0,f,c
  6855   003D46  0E80               	movlw	128
  6856   003D48  1A1D               	xorwf	(___flge@ff1+3)^0,f,c
  6857   003D4A  0E00               	movlw	0
  6858   003D4C  1A1E               	xorwf	___flge@ff2^0,f,c
  6859   003D4E  0E00               	movlw	0
  6860   003D50  1A1F               	xorwf	(___flge@ff2+1)^0,f,c
  6861   003D52  0E00               	movlw	0
  6862   003D54  1A20               	xorwf	(___flge@ff2+2)^0,f,c
  6863   003D56  0E80               	movlw	128
  6864   003D58  1A21               	xorwf	(___flge@ff2+3)^0,f,c
  6865   003D5A  501E               	movf	___flge@ff2^0,w,c
  6866   003D5C  5C1A               	subwf	___flge@ff1^0,w,c
  6867   003D5E  501F               	movf	(___flge@ff2+1)^0,w,c
  6868   003D60  581B               	subwfb	(___flge@ff1+1)^0,w,c
  6869   003D62  5020               	movf	(___flge@ff2+2)^0,w,c
  6870   003D64  581C               	subwfb	(___flge@ff1+2)^0,w,c
  6871   003D66  5021               	movf	(___flge@ff2+3)^0,w,c
  6872   003D68  581D               	subwfb	(___flge@ff1+3)^0,w,c
  6873   003D6A  B0D8               	btfsc	status,0,c
  6874   003D6C  EFBA  F01E         	goto	i2u396_41
  6875   003D70  EFBC  F01E         	goto	i2u396_40
  6876   003D74                     i2u396_41:
  6877   003D74  EFBF  F01E         	goto	i2l4284
  6878   003D78                     i2u396_40:
  6879   003D78  90D8               	bcf	status,0,c
  6880   003D7A  EFC0  F01E         	goto	i2l824
  6881   003D7E                     i2l4284:
  6882   003D7E  80D8               	bsf	status,0,c
  6883   003D80                     i2l824:
  6884   003D80  0012               	return		;funcret
  6885   003D82                     __end_of___flge:
  6886                           	callstack 0
  6887                           
  6888 ;; *************** function ___fleq *****************
  6889 ;; Defined at:
  6890 ;;		line 4 in file "C:\Program Files\Microchip\xc8\v2.41\pic\sources\c99\common\fleq.c"
  6891 ;; Parameters:    Size  Location     Type
  6892 ;;  ff1             4    0[COMRAM] long 
  6893 ;;  ff2             4    4[COMRAM] long 
  6894 ;; Auto vars:     Size  Location     Type
  6895 ;;		None
  6896 ;; Return value:  Size  Location     Type
  6897 ;;		None               void
  6898 ;; Registers used:
  6899 ;;		wreg, status,2, status,0
  6900 ;; Tracked objects:
  6901 ;;		On entry : 0/0
  6902 ;;		On exit  : 0/0
  6903 ;;		Unchanged: 0/0
  6904 ;; Data sizes:     COMRAM   BANK0   BANK1   BANK2   BANK3   BANK4   BANK5   BANK6   BANK7   BANK8   BANK9  BANK10  BANK1
      +1  BANK12  BANK13  BANK14  BANK15
  6905 ;;      Params:         8       0       0       0       0       0       0       0       0       0       0       0       
      +0       0       0       0       0
  6906 ;;      Locals:         0       0       0       0       0       0       0       0       0       0       0       0       
      +0       0       0       0       0
  6907 ;;      Temps:          4       0       0       0       0       0       0       0       0       0       0       0       
      +0       0       0       0       0
  6908 ;;      Totals:        12       0       0       0       0       0       0       0       0       0       0       0       
      +0       0       0       0       0
  6909 ;;Total ram usage:       12 bytes
  6910 ;; Hardware stack levels used: 1
  6911 ;; This function calls:
  6912 ;;		Nothing
  6913 ;; This function is called by:
  6914 ;;		_efgtoa
  6915 ;; This function uses a non-reentrant model
  6916 ;;
  6917                           
  6918                           	psect	text38
  6919   0044F0                     __ptext38:
  6920                           	callstack 0
  6921   0044F0                     ___fleq:
  6922                           	callstack 18
  6923   0044F0  0E00               	movlw	0
  6924   0044F2  1401               	andwf	___fleq@ff1^0,w,c
  6925   0044F4  6E09               	movwf	??___fleq^0,c
  6926   0044F6  0E00               	movlw	0
  6927   0044F8  1402               	andwf	(___fleq@ff1+1)^0,w,c
  6928   0044FA  6E0A               	movwf	(??___fleq+1)^0,c
  6929   0044FC  0E80               	movlw	128
  6930   0044FE  1403               	andwf	(___fleq@ff1+2)^0,w,c
  6931   004500  6E0B               	movwf	(??___fleq+2)^0,c
  6932   004502  0E7F               	movlw	127
  6933   004504  1404               	andwf	(___fleq@ff1+3)^0,w,c
  6934   004506  6E0C               	movwf	(??___fleq+3)^0,c
  6935   004508  5009               	movf	??___fleq^0,w,c
  6936   00450A  100A               	iorwf	(??___fleq+1)^0,w,c
  6937   00450C  100B               	iorwf	(??___fleq+2)^0,w,c
  6938   00450E  100C               	iorwf	(??___fleq+3)^0,w,c
  6939   004510  A4D8               	btfss	status,2,c
  6940   004512  EF8D  F022         	goto	i2u389_41
  6941   004516  EF8F  F022         	goto	i2u389_40
  6942   00451A                     i2u389_41:
  6943   00451A  EF97  F022         	goto	i2l4254
  6944   00451E                     i2u389_40:
  6945   00451E  0E00               	movlw	0
  6946   004520  6E01               	movwf	___fleq@ff1^0,c
  6947   004522  0E00               	movlw	0
  6948   004524  6E02               	movwf	(___fleq@ff1+1)^0,c
  6949   004526  0E00               	movlw	0
  6950   004528  6E03               	movwf	(___fleq@ff1+2)^0,c
  6951   00452A  0E00               	movlw	0
  6952   00452C  6E04               	movwf	(___fleq@ff1+3)^0,c
  6953   00452E                     i2l4254:
  6954   00452E  0E00               	movlw	0
  6955   004530  1405               	andwf	___fleq@ff2^0,w,c
  6956   004532  6E09               	movwf	??___fleq^0,c
  6957   004534  0E00               	movlw	0
  6958   004536  1406               	andwf	(___fleq@ff2+1)^0,w,c
  6959   004538  6E0A               	movwf	(??___fleq+1)^0,c
  6960   00453A  0E80               	movlw	128
  6961   00453C  1407               	andwf	(___fleq@ff2+2)^0,w,c
  6962   00453E  6E0B               	movwf	(??___fleq+2)^0,c
  6963   004540  0E7F               	movlw	127
  6964   004542  1408               	andwf	(___fleq@ff2+3)^0,w,c
  6965   004544  6E0C               	movwf	(??___fleq+3)^0,c
  6966   004546  5009               	movf	??___fleq^0,w,c
  6967   004548  100A               	iorwf	(??___fleq+1)^0,w,c
  6968   00454A  100B               	iorwf	(??___fleq+2)^0,w,c
  6969   00454C  100C               	iorwf	(??___fleq+3)^0,w,c
  6970   00454E  A4D8               	btfss	status,2,c
  6971   004550  EFAC  F022         	goto	i2u390_41
  6972   004554  EFAE  F022         	goto	i2u390_40
  6973   004558                     i2u390_41:
  6974   004558  EFB6  F022         	goto	i2l4258
  6975   00455C                     i2u390_40:
  6976   00455C  0E00               	movlw	0
  6977   00455E  6E05               	movwf	___fleq@ff2^0,c
  6978   004560  0E00               	movlw	0
  6979   004562  6E06               	movwf	(___fleq@ff2+1)^0,c
  6980   004564  0E00               	movlw	0
  6981   004566  6E07               	movwf	(___fleq@ff2+2)^0,c
  6982   004568  0E00               	movlw	0
  6983   00456A  6E08               	movwf	(___fleq@ff2+3)^0,c
  6984   00456C                     i2l4258:
  6985   00456C  5005               	movf	___fleq@ff2^0,w,c
  6986   00456E  1801               	xorwf	___fleq@ff1^0,w,c
  6987   004570  E10F               	bnz	i2u391_40
  6988   004572  5006               	movf	(___fleq@ff2+1)^0,w,c
  6989   004574  1802               	xorwf	(___fleq@ff1+1)^0,w,c
  6990   004576  E10C               	bnz	i2u391_40
  6991   004578  5007               	movf	(___fleq@ff2+2)^0,w,c
  6992   00457A  1803               	xorwf	(___fleq@ff1+2)^0,w,c
  6993   00457C  E109               	bnz	i2u391_40
  6994   00457E  5008               	movf	(___fleq@ff2+3)^0,w,c
  6995   004580  1804               	xorwf	(___fleq@ff1+3)^0,w,c
  6996   004582  B4D8               	btfsc	status,2,c
  6997   004584  EFC6  F022         	goto	i2u391_41
  6998   004588  EFC8  F022         	goto	i2u391_40
  6999   00458C                     i2u391_41:
  7000   00458C  EFCB  F022         	goto	i2l4262
  7001   004590                     i2u391_40:
  7002   004590  90D8               	bcf	status,0,c
  7003   004592  EFCC  F022         	goto	i2l813
  7004   004596                     i2l4262:
  7005   004596  80D8               	bsf	status,0,c
  7006   004598                     i2l813:
  7007   004598  0012               	return		;funcret
  7008   00459A                     __end_of___fleq:
  7009                           	callstack 0
  7010                           
  7011 ;; *************** function _dtoa *****************
  7012 ;; Defined at:
  7013 ;;		line 470 in file "C:\Program Files\Microchip\xc8\v2.41\pic\sources\c99\common\doprnt.c"
  7014 ;; Parameters:    Size  Location     Type
  7015 ;;  fp              2   27[COMRAM] PTR struct _IO_FILE
  7016 ;;		 -> sprintf@f(12), 
  7017 ;;  d               2   29[COMRAM] int 
  7018 ;; Auto vars:     Size  Location     Type
  7019 ;;  i               2   37[COMRAM] int 
  7020 ;;  w               2   35[COMRAM] int 
  7021 ;;  p               2   33[COMRAM] int 
  7022 ;;  s               1   39[COMRAM] unsigned char 
  7023 ;; Return value:  Size  Location     Type
  7024 ;;                  1    wreg      void 
  7025 ;; Registers used:
  7026 ;;		wreg, fsr1l, fsr1h, fsr2l, fsr2h, status,2, status,0, cstack
  7027 ;; Tracked objects:
  7028 ;;		On entry : 0/0
  7029 ;;		On exit  : 0/0
  7030 ;;		Unchanged: 0/0
  7031 ;; Data sizes:     COMRAM   BANK0   BANK1   BANK2   BANK3   BANK4   BANK5   BANK6   BANK7   BANK8   BANK9  BANK10  BANK1
      +1  BANK12  BANK13  BANK14  BANK15
  7032 ;;      Params:         4       0       0       0       0       0       0       0       0       0       0       0       
      +0       0       0       0       0
  7033 ;;      Locals:         9       0       0       0       0       0       0       0       0       0       0       0       
      +0       0       0       0       0
  7034 ;;      Temps:          0       0       0       0       0       0       0       0       0       0       0       0       
      +0       0       0       0       0
  7035 ;;      Totals:        13       0       0       0       0       0       0       0       0       0       0       0       
      +0       0       0       0       0
  7036 ;;Total ram usage:       13 bytes
  7037 ;; Hardware stack levels used: 1
  7038 ;; Hardware stack levels required when called: 4
  7039 ;; This function calls:
  7040 ;;		___awdiv
  7041 ;;		___awmod
  7042 ;;		_abs
  7043 ;;		_pad
  7044 ;; This function is called by:
  7045 ;;		_vfpfcnvrt
  7046 ;; This function uses a non-reentrant model
  7047 ;;
  7048                           
  7049                           	psect	text39
  7050   0038A6                     __ptext39:
  7051                           	callstack 0
  7052   0038A6                     _dtoa:
  7053                           	callstack 15
  7054   0038A6                     
  7055                           ;C:\Program Files\Microchip\xc8\v2.41\pic\sources\c99\common\doprnt.c: 470: static void 
      +                          dtoa(FILE *fp, vfpf_sint_t d);C:\Program Files\Microchip\xc8\v2.41\pic\sources\c99\commo
      +                          n\doprnt.c: 471: {;C:\Program Files\Microchip\xc8\v2.41\pic\sources\c99\common\doprnt.c:
      +                           472:  char s;;C:\Program Files\Microchip\xc8\v2.41\pic\sources\c99\common\doprnt.c: 473
      +                          :     int i, p, w;;C:\Program Files\Microchip\xc8\v2.41\pic\sources\c99\common\doprnt.c:
      +                           476:     s = d < 0 ? 1 : 0;
  7056   0038A6  BE1F               	btfsc	(dtoa@d+1)^0,7,c
  7057   0038A8  EF58  F01C         	goto	i2u431_41
  7058   0038AC  EF5B  F01C         	goto	i2u431_40
  7059   0038B0                     i2u431_41:
  7060   0038B0  0E01               	movlw	1
  7061   0038B2  EF5C  F01C         	goto	i2u432_40
  7062   0038B6                     i2u431_40:
  7063   0038B6  0E00               	movlw	0
  7064   0038B8                     i2u432_40:
  7065   0038B8  6E28               	movwf	dtoa@s^0,c
  7066   0038BA                     
  7067                           ;C:\Program Files\Microchip\xc8\v2.41\pic\sources\c99\common\doprnt.c: 477:     if (s) {
  7068   0038BA  5028               	movf	dtoa@s^0,w,c
  7069   0038BC  B4D8               	btfsc	status,2,c
  7070   0038BE  EF63  F01C         	goto	i2u433_41
  7071   0038C2  EF65  F01C         	goto	i2u433_40
  7072   0038C6                     i2u433_41:
  7073   0038C6  EF69  F01C         	goto	i2l4498
  7074   0038CA                     i2u433_40:
  7075   0038CA                     
  7076                           ;C:\Program Files\Microchip\xc8\v2.41\pic\sources\c99\common\doprnt.c: 478:         d = 
      +                          -d;
  7077   0038CA  6C1E               	negf	dtoa@d^0,c
  7078   0038CC  1E1F               	comf	(dtoa@d+1)^0,f,c
  7079   0038CE  B0D8               	btfsc	status,0,c
  7080   0038D0  2A1F               	incf	(dtoa@d+1)^0,f,c
  7081   0038D2                     i2l4498:
  7082                           
  7083                           ;C:\Program Files\Microchip\xc8\v2.41\pic\sources\c99\common\doprnt.c: 487:     p = (0 <
      +                          = prec) ? prec : 1;
  7084   0038D2  0100               	movlb	0	; () banked
  7085   0038D4  BFF7               	btfsc	(_prec+1)& (0+255),7,b
  7086   0038D6  EF71  F01C         	goto	i2u434_40
  7087   0038DA  EF6F  F01C         	goto	i2u434_41
  7088   0038DE                     i2u434_41:
  7089   0038DE  EF77  F01C         	goto	i2l1303
  7090   0038E2                     i2u434_40:
  7091   0038E2                     
  7092                           ; BSR set to: 0
  7093   0038E2  0E00               	movlw	0
  7094   0038E4  6E23               	movwf	(dtoa@p+1)^0,c
  7095   0038E6  0E01               	movlw	1
  7096   0038E8  6E22               	movwf	dtoa@p^0,c
  7097   0038EA  EF7B  F01C         	goto	i2l1305
  7098   0038EE                     i2l1303:
  7099                           
  7100                           ; BSR set to: 0
  7101   0038EE  C0F6  F022         	movff	_prec,dtoa@p
  7102   0038F2  C0F7  F023         	movff	_prec+1,dtoa@p+1
  7103   0038F6                     i2l1305:
  7104                           
  7105                           ; BSR set to: 0
  7106                           ;C:\Program Files\Microchip\xc8\v2.41\pic\sources\c99\common\doprnt.c: 488:     w = widt
      +                          h;
  7107   0038F6  C0F4  F024         	movff	_width,dtoa@w
  7108   0038FA  C0F5  F025         	movff	_width+1,dtoa@w+1
  7109   0038FE                     
  7110                           ; BSR set to: 0
  7111                           ;C:\Program Files\Microchip\xc8\v2.41\pic\sources\c99\common\doprnt.c: 489:     if (s
  7112   0038FE  5028               	movf	dtoa@s^0,w,c
  7113   003900  B4D8               	btfsc	status,2,c
  7114   003902  EF85  F01C         	goto	i2u435_41
  7115   003906  EF87  F01C         	goto	i2u435_40
  7116   00390A                     i2u435_41:
  7117   00390A  EF9E  F01C         	goto	i2l1306
  7118   00390E                     i2u435_40:
  7119   00390E                     
  7120                           ; BSR set to: 0
  7121                           ;C:\Program Files\Microchip\xc8\v2.41\pic\sources\c99\common\doprnt.c: 493:     ) {;C:\P
      +                          rogram Files\Microchip\xc8\v2.41\pic\sources\c99\common\doprnt.c: 494:         --w;
  7122   00390E  0624               	decf	dtoa@w^0,f,c
  7123   003910  A0D8               	btfss	status,0,c
  7124   003912  0625               	decf	(dtoa@w+1)^0,f,c
  7125   003914                     
  7126                           ; BSR set to: 0
  7127                           ;C:\Program Files\Microchip\xc8\v2.41\pic\sources\c99\common\doprnt.c: 495:   s = s ? '-
      +                          ' : '+';
  7128   003914  5028               	movf	dtoa@s^0,w,c
  7129   003916  A4D8               	btfss	status,2,c
  7130   003918  EF90  F01C         	goto	i2u436_41
  7131   00391C  EF92  F01C         	goto	i2u436_40
  7132   003920                     i2u436_41:
  7133   003920  EF98  F01C         	goto	i2l4510
  7134   003924                     i2u436_40:
  7135   003924                     
  7136                           ; BSR set to: 0
  7137   003924  0E00               	movlw	0
  7138   003926  6E21               	movwf	(_dtoa$2099+1)^0,c
  7139   003928  0E2B               	movlw	43
  7140   00392A  6E20               	movwf	_dtoa$2099^0,c
  7141   00392C  EF9C  F01C         	goto	i2l4512
  7142   003930                     i2l4510:
  7143                           
  7144                           ; BSR set to: 0
  7145   003930  0E00               	movlw	0
  7146   003932  6E21               	movwf	(_dtoa$2099+1)^0,c
  7147   003934  0E2D               	movlw	45
  7148   003936  6E20               	movwf	_dtoa$2099^0,c
  7149   003938                     i2l4512:
  7150                           
  7151                           ; BSR set to: 0
  7152   003938  C020  F028         	movff	_dtoa$2099,dtoa@s
  7153   00393C                     i2l1306:
  7154                           
  7155                           ; BSR set to: 0
  7156                           ;C:\Program Files\Microchip\xc8\v2.41\pic\sources\c99\common\doprnt.c: 505:     i = size
      +                          of(dbuf) - 1;
  7157   00393C  0E00               	movlw	0
  7158   00393E  6E27               	movwf	(dtoa@i+1)^0,c
  7159   003940  0E4F               	movlw	79
  7160   003942  6E26               	movwf	dtoa@i^0,c
  7161   003944                     
  7162                           ; BSR set to: 0
  7163                           ;C:\Program Files\Microchip\xc8\v2.41\pic\sources\c99\common\doprnt.c: 506:     dbuf[i] 
      +                          = '\0';
  7164   003944  0E00               	movlw	0
  7165   003946  0101               	movlb	1	; () banked
  7166   003948  6F69               	movwf	(_dbuf+79)& (0+255),b
  7167                           
  7168                           ;C:\Program Files\Microchip\xc8\v2.41\pic\sources\c99\common\doprnt.c: 507:     while (!
      +                          (i < 1) && (d || (0 < p)
  7169   00394A  EFD7  F01C         	goto	i2l4526
  7170   00394E                     i2l4516:
  7171                           
  7172                           ;C:\Program Files\Microchip\xc8\v2.41\pic\sources\c99\common\doprnt.c: 511:     )) {;C:\
      +                          Program Files\Microchip\xc8\v2.41\pic\sources\c99\common\doprnt.c: 512:         --i;
  7173   00394E  0626               	decf	dtoa@i^0,f,c
  7174   003950  A0D8               	btfss	status,0,c
  7175   003952  0627               	decf	(dtoa@i+1)^0,f,c
  7176   003954                     
  7177                           ;C:\Program Files\Microchip\xc8\v2.41\pic\sources\c99\common\doprnt.c: 513:         dbuf
      +                          [i] = (char)((int)'0' + abs(d % 10));
  7178   003954  0E1A               	movlw	low _dbuf
  7179   003956  2426               	addwf	dtoa@i^0,w,c
  7180   003958  6ED9               	movwf	fsr2l,c
  7181   00395A  0E01               	movlw	high _dbuf
  7182   00395C  2027               	addwfc	(dtoa@i+1)^0,w,c
  7183   00395E  6EDA               	movwf	fsr2h,c
  7184   003960  C01E  F001         	movff	dtoa@d,___awmod@dividend
  7185   003964  C01F  F002         	movff	dtoa@d+1,___awmod@dividend+1
  7186   003968  0E00               	movlw	0
  7187   00396A  6E04               	movwf	(___awmod@divisor+1)^0,c
  7188   00396C  0E0A               	movlw	10
  7189   00396E  6E03               	movwf	___awmod@divisor^0,c
  7190   003970  EC20  F022         	call	___awmod	;wreg free
  7191   003974  C001  F007         	movff	?___awmod,abs@a
  7192   003978  C002  F008         	movff	?___awmod+1,abs@a+1
  7193   00397C  EC31  F026         	call	_abs	;wreg free
  7194   003980  5007               	movf	?_abs^0,w,c
  7195   003982  0F30               	addlw	48
  7196   003984  6EDF               	movwf	indf2,c
  7197   003986                     
  7198                           ;C:\Program Files\Microchip\xc8\v2.41\pic\sources\c99\common\doprnt.c: 514:         --p;
  7199   003986  0622               	decf	dtoa@p^0,f,c
  7200   003988  A0D8               	btfss	status,0,c
  7201   00398A  0623               	decf	(dtoa@p+1)^0,f,c
  7202   00398C                     
  7203                           ;C:\Program Files\Microchip\xc8\v2.41\pic\sources\c99\common\doprnt.c: 515:         --w;
  7204   00398C  0624               	decf	dtoa@w^0,f,c
  7205   00398E  A0D8               	btfss	status,0,c
  7206   003990  0625               	decf	(dtoa@w+1)^0,f,c
  7207   003992                     
  7208                           ;C:\Program Files\Microchip\xc8\v2.41\pic\sources\c99\common\doprnt.c: 516:         d = 
      +                          d / 10;
  7209   003992  C01E  F001         	movff	dtoa@d,___awdiv@dividend
  7210   003996  C01F  F002         	movff	dtoa@d+1,___awdiv@dividend+1
  7211   00399A  0E00               	movlw	0
  7212   00399C  6E04               	movwf	(___awdiv@divisor+1)^0,c
  7213   00399E  0E0A               	movlw	10
  7214   0039A0  6E03               	movwf	___awdiv@divisor^0,c
  7215   0039A2  EC5E  F021         	call	___awdiv	;wreg free
  7216   0039A6  C001  F01E         	movff	?___awdiv,dtoa@d
  7217   0039AA  C002  F01F         	movff	?___awdiv+1,dtoa@d+1
  7218   0039AE                     i2l4526:
  7219                           
  7220                           ;C:\Program Files\Microchip\xc8\v2.41\pic\sources\c99\common\doprnt.c: 507:     while (!
      +                          (i < 1) && (d || (0 < p)
  7221   0039AE  BE27               	btfsc	(dtoa@i+1)^0,7,c
  7222   0039B0  EFE2  F01C         	goto	i2u437_41
  7223   0039B4  5027               	movf	(dtoa@i+1)^0,w,c
  7224   0039B6  E108               	bnz	i2u437_40
  7225   0039B8  0426               	decf	dtoa@i^0,w,c
  7226   0039BA  A0D8               	btfss	status,0,c
  7227   0039BC  EFE2  F01C         	goto	i2u437_41
  7228   0039C0  EFE4  F01C         	goto	i2u437_40
  7229   0039C4                     i2u437_41:
  7230   0039C4  EFFA  F01C         	goto	i2l4532
  7231   0039C8                     i2u437_40:
  7232   0039C8  501E               	movf	dtoa@d^0,w,c
  7233   0039CA  101F               	iorwf	(dtoa@d+1)^0,w,c
  7234   0039CC  A4D8               	btfss	status,2,c
  7235   0039CE  EFEB  F01C         	goto	i2u438_41
  7236   0039D2  EFED  F01C         	goto	i2u438_40
  7237   0039D6                     i2u438_41:
  7238   0039D6  EFA7  F01C         	goto	i2l4516
  7239   0039DA                     i2u438_40:
  7240   0039DA  BE23               	btfsc	(dtoa@p+1)^0,7,c
  7241   0039DC  EFFA  F01C         	goto	i2u439_40
  7242   0039E0  5023               	movf	(dtoa@p+1)^0,w,c
  7243   0039E2  E106               	bnz	i2u439_41
  7244   0039E4  0422               	decf	dtoa@p^0,w,c
  7245   0039E6  B0D8               	btfsc	status,0,c
  7246   0039E8  EFF8  F01C         	goto	i2u439_41
  7247   0039EC  EFFA  F01C         	goto	i2u439_40
  7248   0039F0                     i2u439_41:
  7249   0039F0  EFA7  F01C         	goto	i2l4516
  7250   0039F4                     i2u439_40:
  7251   0039F4                     i2l4532:
  7252                           
  7253                           ;C:\Program Files\Microchip\xc8\v2.41\pic\sources\c99\common\doprnt.c: 520:     if (s !=
      +                           0) {
  7254   0039F4  5028               	movf	dtoa@s^0,w,c
  7255   0039F6  B4D8               	btfsc	status,2,c
  7256   0039F8  EF00  F01D         	goto	i2u440_41
  7257   0039FC  EF02  F01D         	goto	i2u440_40
  7258   003A00                     i2u440_41:
  7259   003A00  EF0D  F01D         	goto	i2l4538
  7260   003A04                     i2u440_40:
  7261   003A04                     
  7262                           ;C:\Program Files\Microchip\xc8\v2.41\pic\sources\c99\common\doprnt.c: 521:         --i;
  7263   003A04  0626               	decf	dtoa@i^0,f,c
  7264   003A06  A0D8               	btfss	status,0,c
  7265   003A08  0627               	decf	(dtoa@i+1)^0,f,c
  7266   003A0A                     
  7267                           ;C:\Program Files\Microchip\xc8\v2.41\pic\sources\c99\common\doprnt.c: 522:         dbuf
      +                          [i] = s;
  7268   003A0A  0E1A               	movlw	low _dbuf
  7269   003A0C  2426               	addwf	dtoa@i^0,w,c
  7270   003A0E  6ED9               	movwf	fsr2l,c
  7271   003A10  0E01               	movlw	high _dbuf
  7272   003A12  2027               	addwfc	(dtoa@i+1)^0,w,c
  7273   003A14  6EDA               	movwf	fsr2h,c
  7274   003A16  C028  FFDF         	movff	dtoa@s,indf2
  7275   003A1A                     i2l4538:
  7276                           
  7277                           ;C:\Program Files\Microchip\xc8\v2.41\pic\sources\c99\common\doprnt.c: 526:     return (
      +                          void) pad(fp, &dbuf[i], w);
  7278   003A1A  C01C  F011         	movff	dtoa@fp,pad@fp
  7279   003A1E  C01D  F012         	movff	dtoa@fp+1,pad@fp+1
  7280   003A22  0E1A               	movlw	low _dbuf
  7281   003A24  2426               	addwf	dtoa@i^0,w,c
  7282   003A26  6E13               	movwf	pad@buf^0,c
  7283   003A28  0E01               	movlw	high _dbuf
  7284   003A2A  2027               	addwfc	(dtoa@i+1)^0,w,c
  7285   003A2C  6E14               	movwf	(pad@buf+1)^0,c
  7286   003A2E  C024  F015         	movff	dtoa@w,pad@p
  7287   003A32  C025  F016         	movff	dtoa@w+1,pad@p+1
  7288   003A36  ECCD  F022         	call	_pad	;wreg free
  7289   003A3A  0012               	return		;funcret
  7290   003A3C                     __end_of_dtoa:
  7291                           	callstack 0
  7292                           
  7293 ;; *************** function _pad *****************
  7294 ;; Defined at:
  7295 ;;		line 152 in file "C:\Program Files\Microchip\xc8\v2.41\pic\sources\c99\common\doprnt.c"
  7296 ;; Parameters:    Size  Location     Type
  7297 ;;  fp              2   16[COMRAM] PTR struct _IO_FILE
  7298 ;;		 -> sprintf@f(12), 
  7299 ;;  buf             2   18[COMRAM] PTR unsigned char 
  7300 ;;		 -> dbuf(80), 
  7301 ;;  p               2   20[COMRAM] int 
  7302 ;; Auto vars:     Size  Location     Type
  7303 ;;  w               2   25[COMRAM] int 
  7304 ;;  i               2   23[COMRAM] int 
  7305 ;; Return value:  Size  Location     Type
  7306 ;;                  1    wreg      void 
  7307 ;; Registers used:
  7308 ;;		wreg, fsr1l, fsr1h, fsr2l, fsr2h, status,2, status,0, cstack
  7309 ;; Tracked objects:
  7310 ;;		On entry : 0/0
  7311 ;;		On exit  : 0/0
  7312 ;;		Unchanged: 0/0
  7313 ;; Data sizes:     COMRAM   BANK0   BANK1   BANK2   BANK3   BANK4   BANK5   BANK6   BANK7   BANK8   BANK9  BANK10  BANK1
      +1  BANK12  BANK13  BANK14  BANK15
  7314 ;;      Params:         6       0       0       0       0       0       0       0       0       0       0       0       
      +0       0       0       0       0
  7315 ;;      Locals:         4       0       0       0       0       0       0       0       0       0       0       0       
      +0       0       0       0       0
  7316 ;;      Temps:          1       0       0       0       0       0       0       0       0       0       0       0       
      +0       0       0       0       0
  7317 ;;      Totals:        11       0       0       0       0       0       0       0       0       0       0       0       
      +0       0       0       0       0
  7318 ;;Total ram usage:       11 bytes
  7319 ;; Hardware stack levels used: 1
  7320 ;; Hardware stack levels required when called: 3
  7321 ;; This function calls:
  7322 ;;		_fputc
  7323 ;;		_fputs
  7324 ;; This function is called by:
  7325 ;;		_dtoa
  7326 ;;		_efgtoa
  7327 ;; This function uses a non-reentrant model
  7328 ;;
  7329                           
  7330                           	psect	text40
  7331   00459A                     __ptext40:
  7332                           	callstack 0
  7333   00459A                     _pad:
  7334                           	callstack 15
  7335   00459A                     
  7336                           ;C:\Program Files\Microchip\xc8\v2.41\pic\sources\c99\common\doprnt.c: 152: static void 
      +                          pad(FILE *fp, char *buf, int p);C:\Program Files\Microchip\xc8\v2.41\pic\sources\c99\com
      +                          mon\doprnt.c: 153: {;C:\Program Files\Microchip\xc8\v2.41\pic\sources\c99\common\doprnt.
      +                          c: 154:     int i, w;;C:\Program Files\Microchip\xc8\v2.41\pic\sources\c99\common\doprnt
      +                          .c: 164:     w = (p < 0) ? 0 : p;
  7337   00459A  BE16               	btfsc	(pad@p+1)^0,7,c
  7338   00459C  EFD2  F022         	goto	i2u405_41
  7339   0045A0  EFD4  F022         	goto	i2u405_40
  7340   0045A4                     i2u405_41:
  7341   0045A4  EFDA  F022         	goto	i2l4344
  7342   0045A8                     i2u405_40:
  7343   0045A8  C015  F01A         	movff	pad@p,pad@w
  7344   0045AC  C016  F01B         	movff	pad@p+1,pad@w+1
  7345   0045B0  EFDE  F022         	goto	i2l1294
  7346   0045B4                     i2l4344:
  7347   0045B4  0E00               	movlw	0
  7348   0045B6  6E1B               	movwf	(pad@w+1)^0,c
  7349   0045B8  0E00               	movlw	0
  7350   0045BA  6E1A               	movwf	pad@w^0,c
  7351   0045BC                     i2l1294:
  7352                           
  7353                           ;C:\Program Files\Microchip\xc8\v2.41\pic\sources\c99\common\doprnt.c: 165:     i = 0;
  7354   0045BC  0E00               	movlw	0
  7355   0045BE  6E19               	movwf	(pad@i+1)^0,c
  7356   0045C0  0E00               	movlw	0
  7357   0045C2  6E18               	movwf	pad@i^0,c
  7358                           
  7359                           ;C:\Program Files\Microchip\xc8\v2.41\pic\sources\c99\common\doprnt.c: 166:     while (i
      +                           < w) {
  7360   0045C4  EFF0  F022         	goto	i2l4350
  7361   0045C8                     i2l4346:
  7362                           
  7363                           ;C:\Program Files\Microchip\xc8\v2.41\pic\sources\c99\common\doprnt.c: 167:         fput
      +                          c(' ', fp);
  7364   0045C8  0E00               	movlw	0
  7365   0045CA  6E02               	movwf	(fputc@c+1)^0,c
  7366   0045CC  0E20               	movlw	32
  7367   0045CE  6E01               	movwf	fputc@c^0,c
  7368   0045D0  C011  F003         	movff	pad@fp,fputc@fp
  7369   0045D4  C012  F004         	movff	pad@fp+1,fputc@fp+1
  7370   0045D8  ECF9  F020         	call	_fputc	;wreg free
  7371   0045DC                     
  7372                           ;C:\Program Files\Microchip\xc8\v2.41\pic\sources\c99\common\doprnt.c: 168:         ++i;
  7373   0045DC  4A18               	infsnz	pad@i^0,f,c
  7374   0045DE  2A19               	incf	(pad@i+1)^0,f,c
  7375   0045E0                     i2l4350:
  7376                           
  7377                           ;C:\Program Files\Microchip\xc8\v2.41\pic\sources\c99\common\doprnt.c: 166:     while (i
      +                           < w) {
  7378   0045E0  501A               	movf	pad@w^0,w,c
  7379   0045E2  5C18               	subwf	pad@i^0,w,c
  7380   0045E4  5019               	movf	(pad@i+1)^0,w,c
  7381   0045E6  0A80               	xorlw	128
  7382   0045E8  6E17               	movwf	??_pad^0,c
  7383   0045EA  501B               	movf	(pad@w+1)^0,w,c
  7384   0045EC  0A80               	xorlw	128
  7385   0045EE  5817               	subwfb	??_pad^0,w,c
  7386   0045F0  A0D8               	btfss	status,0,c
  7387   0045F2  EFFD  F022         	goto	i2u406_41
  7388   0045F6  EFFF  F022         	goto	i2u406_40
  7389   0045FA                     i2u406_41:
  7390   0045FA  EFE4  F022         	goto	i2l4346
  7391   0045FE                     i2u406_40:
  7392   0045FE                     
  7393                           ;C:\Program Files\Microchip\xc8\v2.41\pic\sources\c99\common\doprnt.c: 175:         fput
      +                          s((const char *)buf, fp);
  7394   0045FE  C013  F00A         	movff	pad@buf,fputs@s
  7395   004602  C014  F00B         	movff	pad@buf+1,fputs@s+1
  7396   004606  C011  F00C         	movff	pad@fp,fputs@fp
  7397   00460A  C012  F00D         	movff	pad@fp+1,fputs@fp+1
  7398   00460E  ECEE  F025         	call	_fputs	;wreg free
  7399   004612  0012               	return		;funcret
  7400   004614                     __end_of_pad:
  7401                           	callstack 0
  7402                           
  7403 ;; *************** function _fputs *****************
  7404 ;; Defined at:
  7405 ;;		line 8 in file "C:\Program Files\Microchip\xc8\v2.41\pic\sources\c99\common\nf_fputs.c"
  7406 ;; Parameters:    Size  Location     Type
  7407 ;;  s               2    9[COMRAM] PTR const unsigned char 
  7408 ;;		 -> dbuf(80), 
  7409 ;;  fp              2   11[COMRAM] PTR struct _IO_FILE
  7410 ;;		 -> sprintf@f(12), 
  7411 ;; Auto vars:     Size  Location     Type
  7412 ;;  i               2   14[COMRAM] int 
  7413 ;;  c               1   13[COMRAM] unsigned char 
  7414 ;; Return value:  Size  Location     Type
  7415 ;;                  2    9[COMRAM] int 
  7416 ;; Registers used:
  7417 ;;		wreg, fsr1l, fsr1h, fsr2l, fsr2h, status,2, status,0, cstack
  7418 ;; Tracked objects:
  7419 ;;		On entry : 0/0
  7420 ;;		On exit  : 0/0
  7421 ;;		Unchanged: 0/0
  7422 ;; Data sizes:     COMRAM   BANK0   BANK1   BANK2   BANK3   BANK4   BANK5   BANK6   BANK7   BANK8   BANK9  BANK10  BANK1
      +1  BANK12  BANK13  BANK14  BANK15
  7423 ;;      Params:         4       0       0       0       0       0       0       0       0       0       0       0       
      +0       0       0       0       0
  7424 ;;      Locals:         3       0       0       0       0       0       0       0       0       0       0       0       
      +0       0       0       0       0
  7425 ;;      Temps:          0       0       0       0       0       0       0       0       0       0       0       0       
      +0       0       0       0       0
  7426 ;;      Totals:         7       0       0       0       0       0       0       0       0       0       0       0       
      +0       0       0       0       0
  7427 ;;Total ram usage:        7 bytes
  7428 ;; Hardware stack levels used: 1
  7429 ;; Hardware stack levels required when called: 2
  7430 ;; This function calls:
  7431 ;;		_fputc
  7432 ;; This function is called by:
  7433 ;;		_pad
  7434 ;; This function uses a non-reentrant model
  7435 ;;
  7436                           
  7437                           	psect	text41
  7438   004BDC                     __ptext41:
  7439                           	callstack 0
  7440   004BDC                     _fputs:
  7441                           	callstack 15
  7442   004BDC  0E00               	movlw	0
  7443   004BDE  6E10               	movwf	(fputs@i+1)^0,c
  7444   004BE0  0E00               	movlw	0
  7445   004BE2  6E0F               	movwf	fputs@i^0,c
  7446   004BE4  EFFF  F025         	goto	i2l3872
  7447   004BE8                     i2l3868:
  7448   004BE8  C00E  F001         	movff	fputs@c,fputc@c
  7449   004BEC  6A02               	clrf	(fputc@c+1)^0,c
  7450   004BEE  C00C  F003         	movff	fputs@fp,fputc@fp
  7451   004BF2  C00D  F004         	movff	fputs@fp+1,fputc@fp+1
  7452   004BF6  ECF9  F020         	call	_fputc	;wreg free
  7453   004BFA  4A0F               	infsnz	fputs@i^0,f,c
  7454   004BFC  2A10               	incf	(fputs@i+1)^0,f,c
  7455   004BFE                     i2l3872:
  7456   004BFE  500F               	movf	fputs@i^0,w,c
  7457   004C00  240A               	addwf	fputs@s^0,w,c
  7458   004C02  6ED9               	movwf	fsr2l,c
  7459   004C04  5010               	movf	(fputs@i+1)^0,w,c
  7460   004C06  200B               	addwfc	(fputs@s+1)^0,w,c
  7461   004C08  6EDA               	movwf	fsr2h,c
  7462   004C0A  50DF               	movf	indf2,w,c
  7463   004C0C  6E0E               	movwf	fputs@c^0,c
  7464   004C0E  500E               	movf	fputs@c^0,w,c
  7465   004C10  A4D8               	btfss	status,2,c
  7466   004C12  EF0D  F026         	goto	i2u332_41
  7467   004C16  EF0F  F026         	goto	i2u332_40
  7468   004C1A                     i2u332_41:
  7469   004C1A  EFF4  F025         	goto	i2l3868
  7470   004C1E                     i2u332_40:
  7471   004C1E  0012               	return		;funcret
  7472   004C20                     __end_of_fputs:
  7473                           	callstack 0
  7474                           
  7475 ;; *************** function _fputc *****************
  7476 ;; Defined at:
  7477 ;;		line 8 in file "C:\Program Files\Microchip\xc8\v2.41\pic\sources\c99\common\nf_fputc.c"
  7478 ;; Parameters:    Size  Location     Type
  7479 ;;  c               2    0[COMRAM] int 
  7480 ;;  fp              2    2[COMRAM] PTR struct _IO_FILE
  7481 ;;		 -> sprintf@f(12), 
  7482 ;; Auto vars:     Size  Location     Type
  7483 ;;		None
  7484 ;; Return value:  Size  Location     Type
  7485 ;;                  2    0[COMRAM] int 
  7486 ;; Registers used:
  7487 ;;		wreg, fsr1l, fsr1h, fsr2l, fsr2h, status,2, status,0, cstack
  7488 ;; Tracked objects:
  7489 ;;		On entry : 0/0
  7490 ;;		On exit  : 0/0
  7491 ;;		Unchanged: 0/0
  7492 ;; Data sizes:     COMRAM   BANK0   BANK1   BANK2   BANK3   BANK4   BANK5   BANK6   BANK7   BANK8   BANK9  BANK10  BANK1
      +1  BANK12  BANK13  BANK14  BANK15
  7493 ;;      Params:         4       0       0       0       0       0       0       0       0       0       0       0       
      +0       0       0       0       0
  7494 ;;      Locals:         0       0       0       0       0       0       0       0       0       0       0       0       
      +0       0       0       0       0
  7495 ;;      Temps:          5       0       0       0       0       0       0       0       0       0       0       0       
      +0       0       0       0       0
  7496 ;;      Totals:         9       0       0       0       0       0       0       0       0       0       0       0       
      +0       0       0       0       0
  7497 ;;Total ram usage:        9 bytes
  7498 ;; Hardware stack levels used: 1
  7499 ;; Hardware stack levels required when called: 1
  7500 ;; This function calls:
  7501 ;;		_putch
  7502 ;; This function is called by:
  7503 ;;		_pad
  7504 ;;		_vfpfcnvrt
  7505 ;;		_fputs
  7506 ;; This function uses a non-reentrant model
  7507 ;;
  7508                           
  7509                           	psect	text42
  7510   0041F2                     __ptext42:
  7511                           	callstack 0
  7512   0041F2                     _fputc:
  7513                           	callstack 18
  7514   0041F2  5003               	movf	fputc@fp^0,w,c
  7515   0041F4  1004               	iorwf	(fputc@fp+1)^0,w,c
  7516   0041F6  B4D8               	btfsc	status,2,c
  7517   0041F8  EF00  F021         	goto	i2u286_41
  7518   0041FC  EF02  F021         	goto	i2u286_40
  7519   004200                     i2u286_41:
  7520   004200  EF0B  F021         	goto	i2l3594
  7521   004204                     i2u286_40:
  7522   004204  5003               	movf	fputc@fp^0,w,c
  7523   004206  1004               	iorwf	(fputc@fp+1)^0,w,c
  7524   004208  A4D8               	btfss	status,2,c
  7525   00420A  EF09  F021         	goto	i2u287_41
  7526   00420E  EF0B  F021         	goto	i2u287_40
  7527   004212                     i2u287_41:
  7528   004212  EF10  F021         	goto	i2l3596
  7529   004216                     i2u287_40:
  7530   004216                     i2l3594:
  7531   004216  5001               	movf	fputc@c^0,w,c
  7532   004218  EC09  F028         	call	_putch
  7533   00421C  EF5D  F021         	goto	i2l1463
  7534   004220                     i2l3596:
  7535   004220  EE20 F00A          	lfsr	2,10
  7536   004224  5003               	movf	fputc@fp^0,w,c
  7537   004226  26D9               	addwf	fsr2l,f,c
  7538   004228  5004               	movf	(fputc@fp+1)^0,w,c
  7539   00422A  22DA               	addwfc	fsr2h,f,c
  7540   00422C  50DE               	movf	postinc2,w,c
  7541   00422E  10DE               	iorwf	postinc2,w,c
  7542   004230  B4D8               	btfsc	status,2,c
  7543   004232  EF1D  F021         	goto	i2u288_41
  7544   004236  EF1F  F021         	goto	i2u288_40
  7545   00423A                     i2u288_41:
  7546   00423A  EF3A  F021         	goto	i2l3600
  7547   00423E                     i2u288_40:
  7548   00423E  EE20 F00A          	lfsr	2,10
  7549   004242  5003               	movf	fputc@fp^0,w,c
  7550   004244  26D9               	addwf	fsr2l,f,c
  7551   004246  5004               	movf	(fputc@fp+1)^0,w,c
  7552   004248  22DA               	addwfc	fsr2h,f,c
  7553   00424A  EE10 F003          	lfsr	1,3
  7554   00424E  5003               	movf	fputc@fp^0,w,c
  7555   004250  26E1               	addwf	fsr1l,f,c
  7556   004252  5004               	movf	(fputc@fp+1)^0,w,c
  7557   004254  22E2               	addwfc	fsr1h,f,c
  7558   004256  50DE               	movf	postinc2,w,c
  7559   004258  5CE6               	subwf	postinc1,w,c
  7560   00425A  50E6               	movf	postinc1,w,c
  7561   00425C  0A80               	xorlw	128
  7562   00425E  6E09               	movwf	(??_fputc+4)^0,c
  7563   004260  50DE               	movf	postinc2,w,c
  7564   004262  0A80               	xorlw	128
  7565   004264  5809               	subwfb	(??_fputc+4)^0,w,c
  7566   004266  B0D8               	btfsc	status,0,c
  7567   004268  EF38  F021         	goto	i2u289_41
  7568   00426C  EF3A  F021         	goto	i2u289_40
  7569   004270                     i2u289_41:
  7570   004270  EF5D  F021         	goto	i2l1463
  7571   004274                     i2u289_40:
  7572   004274                     i2l3600:
  7573   004274  EE20 F003          	lfsr	2,3
  7574   004278  5003               	movf	fputc@fp^0,w,c
  7575   00427A  26D9               	addwf	fsr2l,f,c
  7576   00427C  5004               	movf	(fputc@fp+1)^0,w,c
  7577   00427E  22DA               	addwfc	fsr2h,f,c
  7578   004280  CFDE F005          	movff	postinc2,??_fputc
  7579   004284  CFDD F006          	movff	postdec2,??_fputc+1
  7580   004288  C003  FFD9         	movff	fputc@fp,fsr2l
  7581   00428C  C004  FFDA         	movff	fputc@fp+1,fsr2h
  7582   004290  CFDE F007          	movff	postinc2,??_fputc+2
  7583   004294  CFDD F008          	movff	postdec2,??_fputc+3
  7584   004298  5005               	movf	??_fputc^0,w,c
  7585   00429A  2407               	addwf	(??_fputc+2)^0,w,c
  7586   00429C  6ED9               	movwf	fsr2l,c
  7587   00429E  5006               	movf	(??_fputc+1)^0,w,c
  7588   0042A0  2008               	addwfc	(??_fputc+3)^0,w,c
  7589   0042A2  6EDA               	movwf	fsr2h,c
  7590   0042A4  C001  FFDF         	movff	fputc@c,indf2
  7591   0042A8  EE20 F003          	lfsr	2,3
  7592   0042AC  5003               	movf	fputc@fp^0,w,c
  7593   0042AE  26D9               	addwf	fsr2l,f,c
  7594   0042B0  5004               	movf	(fputc@fp+1)^0,w,c
  7595   0042B2  22DA               	addwfc	fsr2h,f,c
  7596   0042B4  2ADE               	incf	postinc2,f,c
  7597   0042B6  0E00               	movlw	0
  7598   0042B8  22DD               	addwfc	postdec2,f,c
  7599   0042BA                     i2l1463:
  7600   0042BA  0012               	return		;funcret
  7601   0042BC                     __end_of_fputc:
  7602                           	callstack 0
  7603                           
  7604 ;; *************** function _putch *****************
  7605 ;; Defined at:
  7606 ;;		line 7 in file "C:\Program Files\Microchip\xc8\v2.41\pic\sources\c99\common\putch.c"
  7607 ;; Parameters:    Size  Location     Type
  7608 ;;  c               1    wreg     unsigned char 
  7609 ;; Auto vars:     Size  Location     Type
  7610 ;;  c               1    0[COMRAM] unsigned char 
  7611 ;; Return value:  Size  Location     Type
  7612 ;;                  1    wreg      void 
  7613 ;; Registers used:
  7614 ;;		wreg
  7615 ;; Tracked objects:
  7616 ;;		On entry : 0/0
  7617 ;;		On exit  : 0/0
  7618 ;;		Unchanged: 0/0
  7619 ;; Data sizes:     COMRAM   BANK0   BANK1   BANK2   BANK3   BANK4   BANK5   BANK6   BANK7   BANK8   BANK9  BANK10  BANK1
      +1  BANK12  BANK13  BANK14  BANK15
  7620 ;;      Params:         0       0       0       0       0       0       0       0       0       0       0       0       
      +0       0       0       0       0
  7621 ;;      Locals:         0       0       0       0       0       0       0       0       0       0       0       0       
      +0       0       0       0       0
  7622 ;;      Temps:          0       0       0       0       0       0       0       0       0       0       0       0       
      +0       0       0       0       0
  7623 ;;      Totals:         0       0       0       0       0       0       0       0       0       0       0       0       
      +0       0       0       0       0
  7624 ;;Total ram usage:        0 bytes
  7625 ;; Hardware stack levels used: 1
  7626 ;; This function calls:
  7627 ;;		Nothing
  7628 ;; This function is called by:
  7629 ;;		_fputc
  7630 ;; This function uses a non-reentrant model
  7631 ;;
  7632                           
  7633                           	psect	text43
  7634   005012                     __ptext43:
  7635                           	callstack 0
  7636   005012                     _putch:
  7637                           	callstack 18
  7638   005012  0012               	return		;funcret
  7639   005014                     __end_of_putch:
  7640                           	callstack 0
  7641                           
  7642 ;; *************** function _abs *****************
  7643 ;; Defined at:
  7644 ;;		line 1 in file "C:\Program Files\Microchip\xc8\v2.41\pic\sources\c99\common\abs.c"
  7645 ;; Parameters:    Size  Location     Type
  7646 ;;  a               2    6[COMRAM] int 
  7647 ;; Auto vars:     Size  Location     Type
  7648 ;;		None
  7649 ;; Return value:  Size  Location     Type
  7650 ;;                  2    6[COMRAM] int 
  7651 ;; Registers used:
  7652 ;;		wreg, status,2, status,0
  7653 ;; Tracked objects:
  7654 ;;		On entry : 0/0
  7655 ;;		On exit  : 0/0
  7656 ;;		Unchanged: 0/0
  7657 ;; Data sizes:     COMRAM   BANK0   BANK1   BANK2   BANK3   BANK4   BANK5   BANK6   BANK7   BANK8   BANK9  BANK10  BANK1
      +1  BANK12  BANK13  BANK14  BANK15
  7658 ;;      Params:         2       0       0       0       0       0       0       0       0       0       0       0       
      +0       0       0       0       0
  7659 ;;      Locals:         0       0       0       0       0       0       0       0       0       0       0       0       
      +0       0       0       0       0
  7660 ;;      Temps:          2       0       0       0       0       0       0       0       0       0       0       0       
      +0       0       0       0       0
  7661 ;;      Totals:         4       0       0       0       0       0       0       0       0       0       0       0       
      +0       0       0       0       0
  7662 ;;Total ram usage:        4 bytes
  7663 ;; Hardware stack levels used: 1
  7664 ;; This function calls:
  7665 ;;		Nothing
  7666 ;; This function is called by:
  7667 ;;		_dtoa
  7668 ;; This function uses a non-reentrant model
  7669 ;;
  7670                           
  7671                           	psect	text44
  7672   004C62                     __ptext44:
  7673                           	callstack 0
  7674   004C62                     _abs:
  7675                           	callstack 18
  7676   004C62  BE08               	btfsc	(abs@a+1)^0,7,c
  7677   004C64  EF3E  F026         	goto	i2u407_40
  7678   004C68  5008               	movf	(abs@a+1)^0,w,c
  7679   004C6A  E106               	bnz	i2u407_41
  7680   004C6C  0407               	decf	abs@a^0,w,c
  7681   004C6E  B0D8               	btfsc	status,0,c
  7682   004C70  EF3C  F026         	goto	i2u407_41
  7683   004C74  EF3E  F026         	goto	i2u407_40
  7684   004C78                     i2u407_41:
  7685   004C78  EF4C  F026         	goto	i2l1422
  7686   004C7C                     i2u407_40:
  7687   004C7C  C007  F009         	movff	abs@a,??_abs
  7688   004C80  C008  F00A         	movff	abs@a+1,??_abs+1
  7689   004C84  1E09               	comf	??_abs^0,f,c
  7690   004C86  1E0A               	comf	(??_abs+1)^0,f,c
  7691   004C88  4A09               	infsnz	??_abs^0,f,c
  7692   004C8A  2A0A               	incf	(??_abs+1)^0,f,c
  7693   004C8C  C009  F007         	movff	??_abs,?_abs
  7694   004C90  C00A  F008         	movff	??_abs+1,?_abs+1
  7695   004C94  EF50  F026         	goto	i2l1425
  7696   004C98                     i2l1422:
  7697   004C98  C007  F007         	movff	abs@a,?_abs
  7698   004C9C  C008  F008         	movff	abs@a+1,?_abs+1
  7699   004CA0                     i2l1425:
  7700   004CA0  0012               	return		;funcret
  7701   004CA2                     __end_of_abs:
  7702                           	callstack 0
  7703                           
  7704 ;; *************** function ___awmod *****************
  7705 ;; Defined at:
  7706 ;;		line 7 in file "C:\Program Files\Microchip\xc8\v2.41\pic\sources\c99\common\awmod.c"
  7707 ;; Parameters:    Size  Location     Type
  7708 ;;  dividend        2    0[COMRAM] int 
  7709 ;;  divisor         2    2[COMRAM] int 
  7710 ;; Auto vars:     Size  Location     Type
  7711 ;;  sign            1    5[COMRAM] unsigned char 
  7712 ;;  counter         1    4[COMRAM] unsigned char 
  7713 ;; Return value:  Size  Location     Type
  7714 ;;                  2    0[COMRAM] int 
  7715 ;; Registers used:
  7716 ;;		wreg, status,2, status,0
  7717 ;; Tracked objects:
  7718 ;;		On entry : 0/0
  7719 ;;		On exit  : 0/0
  7720 ;;		Unchanged: 0/0
  7721 ;; Data sizes:     COMRAM   BANK0   BANK1   BANK2   BANK3   BANK4   BANK5   BANK6   BANK7   BANK8   BANK9  BANK10  BANK1
      +1  BANK12  BANK13  BANK14  BANK15
  7722 ;;      Params:         4       0       0       0       0       0       0       0       0       0       0       0       
      +0       0       0       0       0
  7723 ;;      Locals:         2       0       0       0       0       0       0       0       0       0       0       0       
      +0       0       0       0       0
  7724 ;;      Temps:          0       0       0       0       0       0       0       0       0       0       0       0       
      +0       0       0       0       0
  7725 ;;      Totals:         6       0       0       0       0       0       0       0       0       0       0       0       
      +0       0       0       0       0
  7726 ;;Total ram usage:        6 bytes
  7727 ;; Hardware stack levels used: 1
  7728 ;; This function calls:
  7729 ;;		Nothing
  7730 ;; This function is called by:
  7731 ;;		_dtoa
  7732 ;; This function uses a non-reentrant model
  7733 ;;
  7734                           
  7735                           	psect	text45
  7736   004440                     __ptext45:
  7737                           	callstack 0
  7738   004440                     ___awmod:
  7739                           	callstack 18
  7740   004440  0E00               	movlw	0
  7741   004442  6E06               	movwf	___awmod@sign^0,c
  7742   004444  BE02               	btfsc	(___awmod@dividend+1)^0,7,c
  7743   004446  EF29  F022         	goto	i2u383_40
  7744   00444A  EF27  F022         	goto	i2u383_41
  7745   00444E                     i2u383_41:
  7746   00444E  EF2F  F022         	goto	i2l4222
  7747   004452                     i2u383_40:
  7748   004452  6C01               	negf	___awmod@dividend^0,c
  7749   004454  1E02               	comf	(___awmod@dividend+1)^0,f,c
  7750   004456  B0D8               	btfsc	status,0,c
  7751   004458  2A02               	incf	(___awmod@dividend+1)^0,f,c
  7752   00445A  0E01               	movlw	1
  7753   00445C  6E06               	movwf	___awmod@sign^0,c
  7754   00445E                     i2l4222:
  7755   00445E  BE04               	btfsc	(___awmod@divisor+1)^0,7,c
  7756   004460  EF36  F022         	goto	i2u384_40
  7757   004464  EF34  F022         	goto	i2u384_41
  7758   004468                     i2u384_41:
  7759   004468  EF3A  F022         	goto	i2l4226
  7760   00446C                     i2u384_40:
  7761   00446C  6C03               	negf	___awmod@divisor^0,c
  7762   00446E  1E04               	comf	(___awmod@divisor+1)^0,f,c
  7763   004470  B0D8               	btfsc	status,0,c
  7764   004472  2A04               	incf	(___awmod@divisor+1)^0,f,c
  7765   004474                     i2l4226:
  7766   004474  5003               	movf	___awmod@divisor^0,w,c
  7767   004476  1004               	iorwf	(___awmod@divisor+1)^0,w,c
  7768   004478  B4D8               	btfsc	status,2,c
  7769   00447A  EF41  F022         	goto	i2u385_41
  7770   00447E  EF43  F022         	goto	i2u385_40
  7771   004482                     i2u385_41:
  7772   004482  EF67  F022         	goto	i2l4242
  7773   004486                     i2u385_40:
  7774   004486  0E01               	movlw	1
  7775   004488  6E05               	movwf	___awmod@counter^0,c
  7776   00448A  EF4B  F022         	goto	i2l4232
  7777   00448E                     i2l4230:
  7778   00448E  90D8               	bcf	status,0,c
  7779   004490  3603               	rlcf	___awmod@divisor^0,f,c
  7780   004492  3604               	rlcf	(___awmod@divisor+1)^0,f,c
  7781   004494  2A05               	incf	___awmod@counter^0,f,c
  7782   004496                     i2l4232:
  7783   004496  AE04               	btfss	(___awmod@divisor+1)^0,7,c
  7784   004498  EF50  F022         	goto	i2u386_41
  7785   00449C  EF52  F022         	goto	i2u386_40
  7786   0044A0                     i2u386_41:
  7787   0044A0  EF47  F022         	goto	i2l4230
  7788   0044A4                     i2u386_40:
  7789   0044A4                     i2l4234:
  7790   0044A4  5003               	movf	___awmod@divisor^0,w,c
  7791   0044A6  5C01               	subwf	___awmod@dividend^0,w,c
  7792   0044A8  5004               	movf	(___awmod@divisor+1)^0,w,c
  7793   0044AA  5802               	subwfb	(___awmod@dividend+1)^0,w,c
  7794   0044AC  A0D8               	btfss	status,0,c
  7795   0044AE  EF5B  F022         	goto	i2u387_41
  7796   0044B2  EF5D  F022         	goto	i2u387_40
  7797   0044B6                     i2u387_41:
  7798   0044B6  EF61  F022         	goto	i2l4238
  7799   0044BA                     i2u387_40:
  7800   0044BA  5003               	movf	___awmod@divisor^0,w,c
  7801   0044BC  5E01               	subwf	___awmod@dividend^0,f,c
  7802   0044BE  5004               	movf	(___awmod@divisor+1)^0,w,c
  7803   0044C0  5A02               	subwfb	(___awmod@dividend+1)^0,f,c
  7804   0044C2                     i2l4238:
  7805   0044C2  90D8               	bcf	status,0,c
  7806   0044C4  3204               	rrcf	(___awmod@divisor+1)^0,f,c
  7807   0044C6  3203               	rrcf	___awmod@divisor^0,f,c
  7808   0044C8  2E05               	decfsz	___awmod@counter^0,f,c
  7809   0044CA  EF52  F022         	goto	i2l4234
  7810   0044CE                     i2l4242:
  7811   0044CE  5006               	movf	___awmod@sign^0,w,c
  7812   0044D0  B4D8               	btfsc	status,2,c
  7813   0044D2  EF6D  F022         	goto	i2u388_41
  7814   0044D6  EF6F  F022         	goto	i2u388_40
  7815   0044DA                     i2u388_41:
  7816   0044DA  EF73  F022         	goto	i2l4246
  7817   0044DE                     i2u388_40:
  7818   0044DE  6C01               	negf	___awmod@dividend^0,c
  7819   0044E0  1E02               	comf	(___awmod@dividend+1)^0,f,c
  7820   0044E2  B0D8               	btfsc	status,0,c
  7821   0044E4  2A02               	incf	(___awmod@dividend+1)^0,f,c
  7822   0044E6                     i2l4246:
  7823   0044E6  C001  F001         	movff	___awmod@dividend,?___awmod
  7824   0044EA  C002  F002         	movff	___awmod@dividend+1,?___awmod+1
  7825   0044EE  0012               	return		;funcret
  7826   0044F0                     __end_of___awmod:
  7827                           	callstack 0
  7828                           
  7829 ;; *************** function ___awdiv *****************
  7830 ;; Defined at:
  7831 ;;		line 7 in file "C:\Program Files\Microchip\xc8\v2.41\pic\sources\c99\common\awdiv.c"
  7832 ;; Parameters:    Size  Location     Type
  7833 ;;  dividend        2    0[COMRAM] int 
  7834 ;;  divisor         2    2[COMRAM] int 
  7835 ;; Auto vars:     Size  Location     Type
  7836 ;;  quotient        2    6[COMRAM] int 
  7837 ;;  sign            1    5[COMRAM] unsigned char 
  7838 ;;  counter         1    4[COMRAM] unsigned char 
  7839 ;; Return value:  Size  Location     Type
  7840 ;;                  2    0[COMRAM] int 
  7841 ;; Registers used:
  7842 ;;		wreg, status,2, status,0
  7843 ;; Tracked objects:
  7844 ;;		On entry : 0/0
  7845 ;;		On exit  : 0/0
  7846 ;;		Unchanged: 0/0
  7847 ;; Data sizes:     COMRAM   BANK0   BANK1   BANK2   BANK3   BANK4   BANK5   BANK6   BANK7   BANK8   BANK9  BANK10  BANK1
      +1  BANK12  BANK13  BANK14  BANK15
  7848 ;;      Params:         4       0       0       0       0       0       0       0       0       0       0       0       
      +0       0       0       0       0
  7849 ;;      Locals:         4       0       0       0       0       0       0       0       0       0       0       0       
      +0       0       0       0       0
  7850 ;;      Temps:          0       0       0       0       0       0       0       0       0       0       0       0       
      +0       0       0       0       0
  7851 ;;      Totals:         8       0       0       0       0       0       0       0       0       0       0       0       
      +0       0       0       0       0
  7852 ;;Total ram usage:        8 bytes
  7853 ;; Hardware stack levels used: 1
  7854 ;; This function calls:
  7855 ;;		Nothing
  7856 ;; This function is called by:
  7857 ;;		_dtoa
  7858 ;; This function uses a non-reentrant model
  7859 ;;
  7860                           
  7861                           	psect	text46
  7862   0042BC                     __ptext46:
  7863                           	callstack 0
  7864   0042BC                     ___awdiv:
  7865                           	callstack 18
  7866   0042BC  0E00               	movlw	0
  7867   0042BE  6E06               	movwf	___awdiv@sign^0,c
  7868   0042C0  BE04               	btfsc	(___awdiv@divisor+1)^0,7,c
  7869   0042C2  EF67  F021         	goto	i2u377_40
  7870   0042C6  EF65  F021         	goto	i2u377_41
  7871   0042CA                     i2u377_41:
  7872   0042CA  EF6D  F021         	goto	i2l4178
  7873   0042CE                     i2u377_40:
  7874   0042CE  6C03               	negf	___awdiv@divisor^0,c
  7875   0042D0  1E04               	comf	(___awdiv@divisor+1)^0,f,c
  7876   0042D2  B0D8               	btfsc	status,0,c
  7877   0042D4  2A04               	incf	(___awdiv@divisor+1)^0,f,c
  7878   0042D6  0E01               	movlw	1
  7879   0042D8  6E06               	movwf	___awdiv@sign^0,c
  7880   0042DA                     i2l4178:
  7881   0042DA  BE02               	btfsc	(___awdiv@dividend+1)^0,7,c
  7882   0042DC  EF74  F021         	goto	i2u378_40
  7883   0042E0  EF72  F021         	goto	i2u378_41
  7884   0042E4                     i2u378_41:
  7885   0042E4  EF7A  F021         	goto	i2l4184
  7886   0042E8                     i2u378_40:
  7887   0042E8  6C01               	negf	___awdiv@dividend^0,c
  7888   0042EA  1E02               	comf	(___awdiv@dividend+1)^0,f,c
  7889   0042EC  B0D8               	btfsc	status,0,c
  7890   0042EE  2A02               	incf	(___awdiv@dividend+1)^0,f,c
  7891   0042F0  0E01               	movlw	1
  7892   0042F2  1A06               	xorwf	___awdiv@sign^0,f,c
  7893   0042F4                     i2l4184:
  7894   0042F4  0E00               	movlw	0
  7895   0042F6  6E08               	movwf	(___awdiv@quotient+1)^0,c
  7896   0042F8  0E00               	movlw	0
  7897   0042FA  6E07               	movwf	___awdiv@quotient^0,c
  7898   0042FC  5003               	movf	___awdiv@divisor^0,w,c
  7899   0042FE  1004               	iorwf	(___awdiv@divisor+1)^0,w,c
  7900   004300  B4D8               	btfsc	status,2,c
  7901   004302  EF85  F021         	goto	i2u379_41
  7902   004306  EF87  F021         	goto	i2u379_40
  7903   00430A                     i2u379_41:
  7904   00430A  EFAF  F021         	goto	i2l4206
  7905   00430E                     i2u379_40:
  7906   00430E  0E01               	movlw	1
  7907   004310  6E05               	movwf	___awdiv@counter^0,c
  7908   004312  EF8F  F021         	goto	i2l4192
  7909   004316                     i2l4190:
  7910   004316  90D8               	bcf	status,0,c
  7911   004318  3603               	rlcf	___awdiv@divisor^0,f,c
  7912   00431A  3604               	rlcf	(___awdiv@divisor+1)^0,f,c
  7913   00431C  2A05               	incf	___awdiv@counter^0,f,c
  7914   00431E                     i2l4192:
  7915   00431E  AE04               	btfss	(___awdiv@divisor+1)^0,7,c
  7916   004320  EF94  F021         	goto	i2u380_41
  7917   004324  EF96  F021         	goto	i2u380_40
  7918   004328                     i2u380_41:
  7919   004328  EF8B  F021         	goto	i2l4190
  7920   00432C                     i2u380_40:
  7921   00432C                     i2l4194:
  7922   00432C  90D8               	bcf	status,0,c
  7923   00432E  3607               	rlcf	___awdiv@quotient^0,f,c
  7924   004330  3608               	rlcf	(___awdiv@quotient+1)^0,f,c
  7925   004332  5003               	movf	___awdiv@divisor^0,w,c
  7926   004334  5C01               	subwf	___awdiv@dividend^0,w,c
  7927   004336  5004               	movf	(___awdiv@divisor+1)^0,w,c
  7928   004338  5802               	subwfb	(___awdiv@dividend+1)^0,w,c
  7929   00433A  A0D8               	btfss	status,0,c
  7930   00433C  EFA2  F021         	goto	i2u381_41
  7931   004340  EFA4  F021         	goto	i2u381_40
  7932   004344                     i2u381_41:
  7933   004344  EFA9  F021         	goto	i2l4202
  7934   004348                     i2u381_40:
  7935   004348  5003               	movf	___awdiv@divisor^0,w,c
  7936   00434A  5E01               	subwf	___awdiv@dividend^0,f,c
  7937   00434C  5004               	movf	(___awdiv@divisor+1)^0,w,c
  7938   00434E  5A02               	subwfb	(___awdiv@dividend+1)^0,f,c
  7939   004350  8007               	bsf	___awdiv@quotient^0,0,c
  7940   004352                     i2l4202:
  7941   004352  90D8               	bcf	status,0,c
  7942   004354  3204               	rrcf	(___awdiv@divisor+1)^0,f,c
  7943   004356  3203               	rrcf	___awdiv@divisor^0,f,c
  7944   004358  2E05               	decfsz	___awdiv@counter^0,f,c
  7945   00435A  EF96  F021         	goto	i2l4194
  7946   00435E                     i2l4206:
  7947   00435E  5006               	movf	___awdiv@sign^0,w,c
  7948   004360  B4D8               	btfsc	status,2,c
  7949   004362  EFB5  F021         	goto	i2u382_41
  7950   004366  EFB7  F021         	goto	i2u382_40
  7951   00436A                     i2u382_41:
  7952   00436A  EFBB  F021         	goto	i2l4210
  7953   00436E                     i2u382_40:
  7954   00436E  6C07               	negf	___awdiv@quotient^0,c
  7955   004370  1E08               	comf	(___awdiv@quotient+1)^0,f,c
  7956   004372  B0D8               	btfsc	status,0,c
  7957   004374  2A08               	incf	(___awdiv@quotient+1)^0,f,c
  7958   004376                     i2l4210:
  7959   004376  C007  F001         	movff	___awdiv@quotient,?___awdiv
  7960   00437A  C008  F002         	movff	___awdiv@quotient+1,?___awdiv+1
  7961   00437E  0012               	return		;funcret
  7962   004380                     __end_of___awdiv:
  7963                           	callstack 0
  7964                           
  7965 ;; *************** function _logf *****************
  7966 ;; Defined at:
  7967 ;;		line 29 in file "C:\Program Files\Microchip\xc8\v2.41\pic\sources\c99\common\logf.c"
  7968 ;; Parameters:    Size  Location     Type
  7969 ;;  x               4   74[COMRAM] float 
  7970 ;; Auto vars:     Size  Location     Type
  7971 ;;  ix              4   62[BANK0 ] unsigned long 
  7972 ;;  f               4   58[BANK0 ] float 
  7973 ;;  u               4   54[BANK0 ] struct .
  7974 ;;  w               4   46[BANK0 ] float 
  7975 ;;  z               4   42[BANK0 ] float 
  7976 ;;  s               4   38[BANK0 ] float 
  7977 ;;  dk              4   34[BANK0 ] float 
  7978 ;;  hfsq            4   30[BANK0 ] float 
  7979 ;;  t2              4    8[BANK0 ] float 
  7980 ;;  t1              4    4[BANK0 ] float 
  7981 ;;  R               4    0[BANK0 ] float 
  7982 ;;  k               2   28[BANK0 ] int 
  7983 ;; Return value:  Size  Location     Type
  7984 ;;                  4   74[COMRAM] float 
  7985 ;; Registers used:
  7986 ;;		wreg, status,2, status,0, prodl, prodh, cstack
  7987 ;; Tracked objects:
  7988 ;;		On entry : 0/0
  7989 ;;		On exit  : 0/0
  7990 ;;		Unchanged: 0/0
  7991 ;; Data sizes:     COMRAM   BANK0   BANK1   BANK2   BANK3   BANK4   BANK5   BANK6   BANK7   BANK8   BANK9  BANK10  BANK1
      +1  BANK12  BANK13  BANK14  BANK15
  7992 ;;      Params:         4       0       0       0       0       0       0       0       0       0       0       0       
      +0       0       0       0       0
  7993 ;;      Locals:         0      66       0       0       0       0       0       0       0       0       0       0       
      +0       0       0       0       0
  7994 ;;      Temps:          6       0       0       0       0       0       0       0       0       0       0       0       
      +0       0       0       0       0
  7995 ;;      Totals:        10      66       0       0       0       0       0       0       0       0       0       0       
      +0       0       0       0       0
  7996 ;;Total ram usage:       76 bytes
  7997 ;; Hardware stack levels used: 1
  7998 ;; Hardware stack levels required when called: 2
  7999 ;; This function calls:
  8000 ;;		___fladd
  8001 ;;		___fldiv
  8002 ;;		___flmul
  8003 ;;		___flsub
  8004 ;;		___xxtofl
  8005 ;; This function is called by:
  8006 ;;		_HandleInterrupt
  8007 ;; This function uses a non-reentrant model
  8008 ;;
  8009                           
  8010                           	psect	text47
  8011   001A22                     __ptext47:
  8012                           	callstack 0
  8013   001A22                     _logf:
  8014                           	callstack 20
  8015   001A22  C0F0  F096         	movff	logf@F472,logf@u
  8016   001A26  C0F1  F097         	movff	logf@F472+1,logf@u+1
  8017   001A2A  C0F2  F098         	movff	logf@F472+2,logf@u+2
  8018   001A2E  C0F3  F099         	movff	logf@F472+3,logf@u+3
  8019   001A32  C04B  F096         	movff	logf@x,logf@u
  8020   001A36  C04C  F097         	movff	logf@x+1,logf@u+1
  8021   001A3A  C04D  F098         	movff	logf@x+2,logf@u+2
  8022   001A3E  C04E  F099         	movff	logf@x+3,logf@u+3
  8023   001A42  C096  F09E         	movff	logf@u,logf@ix
  8024   001A46  C097  F09F         	movff	logf@u+1,logf@ix+1
  8025   001A4A  C098  F0A0         	movff	logf@u+2,logf@ix+2
  8026   001A4E  C099  F0A1         	movff	logf@u+3,logf@ix+3
  8027   001A52  0E00               	movlw	0
  8028   001A54  0100               	movlb	0	; () banked
  8029   001A56  6F7D               	movwf	(logf@k+1)& (0+255),b
  8030   001A58  0E00               	movlw	0
  8031   001A5A  6F7C               	movwf	logf@k& (0+255),b
  8032   001A5C                     
  8033                           ; BSR set to: 0
  8034   001A5C  51A1               	movf	(logf@ix+3)& (0+255),w,b
  8035   001A5E  E109               	bnz	i2u523_40
  8036   001A60  0E80               	movlw	128
  8037   001A62  5DA0               	subwf	(logf@ix+2)& (0+255),w,b
  8038   001A64  A0D8               	btfss	status,0,c
  8039   001A66  EF37  F00D         	goto	i2u523_41
  8040   001A6A  EF39  F00D         	goto	i2u523_40
  8041   001A6E                     i2u523_41:
  8042   001A6E  EF57  F00D         	goto	i2l5200
  8043   001A72                     i2u523_40:
  8044   001A72                     
  8045                           ; BSR set to: 0
  8046   001A72  C09E  F04F         	movff	logf@ix,??_logf
  8047   001A76  C09F  F050         	movff	logf@ix+1,??_logf+1
  8048   001A7A  C0A0  F051         	movff	logf@ix+2,??_logf+2
  8049   001A7E  C0A1  F052         	movff	logf@ix+3,??_logf+3
  8050   001A82  0E20               	movlw	32
  8051   001A84  EF49  F00D         	goto	i2u524_40
  8052   001A88                     i2u524_45:
  8053   001A88  90D8               	bcf	status,0,c
  8054   001A8A  3252               	rrcf	(??_logf+3)^0,f,c
  8055   001A8C  3251               	rrcf	(??_logf+2)^0,f,c
  8056   001A8E  3250               	rrcf	(??_logf+1)^0,f,c
  8057   001A90  324F               	rrcf	??_logf^0,f,c
  8058   001A92                     i2u524_40:
  8059   001A92  2EE8               	decfsz	wreg,f,c
  8060   001A94  EF44  F00D         	goto	i2u524_45
  8061   001A98  504F               	movf	??_logf^0,w,c
  8062   001A9A  1050               	iorwf	(??_logf+1)^0,w,c
  8063   001A9C  1051               	iorwf	(??_logf+2)^0,w,c
  8064   001A9E  1052               	iorwf	(??_logf+3)^0,w,c
  8065   001AA0  B4D8               	btfsc	status,2,c
  8066   001AA2  EF55  F00D         	goto	i2u525_41
  8067   001AA6  EF57  F00D         	goto	i2u525_40
  8068   001AAA                     i2u525_41:
  8069   001AAA  EF19  F00E         	goto	i2l5222
  8070   001AAE                     i2u525_40:
  8071   001AAE                     i2l5200:
  8072                           
  8073                           ; BSR set to: 0
  8074   001AAE  90D8               	bcf	status,0,c
  8075   001AB0  359E               	rlcf	logf@ix& (0+255),w,b
  8076   001AB2  6E4F               	movwf	??_logf^0,c
  8077   001AB4  359F               	rlcf	(logf@ix+1)& (0+255),w,b
  8078   001AB6  6E50               	movwf	(??_logf+1)^0,c
  8079   001AB8  35A0               	rlcf	(logf@ix+2)& (0+255),w,b
  8080   001ABA  6E51               	movwf	(??_logf+2)^0,c
  8081   001ABC  35A1               	rlcf	(logf@ix+3)& (0+255),w,b
  8082   001ABE  6E52               	movwf	(??_logf+3)^0,c
  8083   001AC0  504F               	movf	??_logf^0,w,c
  8084   001AC2  1050               	iorwf	(??_logf+1)^0,w,c
  8085   001AC4  1051               	iorwf	(??_logf+2)^0,w,c
  8086   001AC6  1052               	iorwf	(??_logf+3)^0,w,c
  8087   001AC8  A4D8               	btfss	status,2,c
  8088   001ACA  EF69  F00D         	goto	i2u526_41
  8089   001ACE  EF6B  F00D         	goto	i2u526_40
  8090   001AD2                     i2u526_41:
  8091   001AD2  EF99  F00D         	goto	i2l5206
  8092   001AD6                     i2u526_40:
  8093   001AD6                     
  8094                           ; BSR set to: 0
  8095   001AD6  0E00               	movlw	0
  8096   001AD8  6E1A               	movwf	___fldiv@b^0,c
  8097   001ADA  0E00               	movlw	0
  8098   001ADC  6E1B               	movwf	(___fldiv@b+1)^0,c
  8099   001ADE  0E80               	movlw	128
  8100   001AE0  6E1C               	movwf	(___fldiv@b+2)^0,c
  8101   001AE2  0EBF               	movlw	191
  8102   001AE4  6E1D               	movwf	(___fldiv@b+3)^0,c
  8103   001AE6  C04B  F005         	movff	logf@x,___flmul@a
  8104   001AEA  C04C  F006         	movff	logf@x+1,___flmul@a+1
  8105   001AEE  C04D  F007         	movff	logf@x+2,___flmul@a+2
  8106   001AF2  C04E  F008         	movff	logf@x+3,___flmul@a+3
  8107   001AF6  C04B  F001         	movff	logf@x,___flmul@b
  8108   001AFA  C04C  F002         	movff	logf@x+1,___flmul@b+1
  8109   001AFE  C04D  F003         	movff	logf@x+2,___flmul@b+2
  8110   001B02  C04E  F004         	movff	logf@x+3,___flmul@b+3
  8111   001B06  EC15  F013         	call	___flmul	;wreg free
  8112   001B0A  C001  F01E         	movff	?___flmul,___fldiv@a
  8113   001B0E  C002  F01F         	movff	?___flmul+1,___fldiv@a+1
  8114   001B12  C003  F020         	movff	?___flmul+2,___fldiv@a+2
  8115   001B16  C004  F021         	movff	?___flmul+3,___fldiv@a+3
  8116   001B1A  EC0A  F017         	call	___fldiv	;wreg free
  8117   001B1E  C01A  F04B         	movff	?___fldiv,?_logf
  8118   001B22  C01B  F04C         	movff	?___fldiv+1,?_logf+1
  8119   001B26  C01C  F04D         	movff	?___fldiv+2,?_logf+2
  8120   001B2A  C01D  F04E         	movff	?___fldiv+3,?_logf+3
  8121   001B2E  EFB4  F010         	goto	i2l1248
  8122   001B32                     i2l5206:
  8123                           
  8124                           ; BSR set to: 0
  8125   001B32  C09E  F04F         	movff	logf@ix,??_logf
  8126   001B36  C09F  F050         	movff	logf@ix+1,??_logf+1
  8127   001B3A  C0A0  F051         	movff	logf@ix+2,??_logf+2
  8128   001B3E  C0A1  F052         	movff	logf@ix+3,??_logf+3
  8129   001B42  0E20               	movlw	32
  8130   001B44  EFA9  F00D         	goto	i2u527_40
  8131   001B48                     i2u527_45:
  8132   001B48  90D8               	bcf	status,0,c
  8133   001B4A  3252               	rrcf	(??_logf+3)^0,f,c
  8134   001B4C  3251               	rrcf	(??_logf+2)^0,f,c
  8135   001B4E  3250               	rrcf	(??_logf+1)^0,f,c
  8136   001B50  324F               	rrcf	??_logf^0,f,c
  8137   001B52                     i2u527_40:
  8138   001B52  2EE8               	decfsz	wreg,f,c
  8139   001B54  EFA4  F00D         	goto	i2u527_45
  8140   001B58  504F               	movf	??_logf^0,w,c
  8141   001B5A  1050               	iorwf	(??_logf+1)^0,w,c
  8142   001B5C  1051               	iorwf	(??_logf+2)^0,w,c
  8143   001B5E  1052               	iorwf	(??_logf+3)^0,w,c
  8144   001B60  B4D8               	btfsc	status,2,c
  8145   001B62  EFB5  F00D         	goto	i2u528_41
  8146   001B66  EFB7  F00D         	goto	i2u528_40
  8147   001B6A                     i2u528_41:
  8148   001B6A  EFE9  F00D         	goto	i2l5214
  8149   001B6E                     i2u528_40:
  8150   001B6E                     
  8151                           ; BSR set to: 0
  8152   001B6E  0E00               	movlw	0
  8153   001B70  6FF9               	movwf	(_errno+1)& (0+255),b
  8154   001B72  0E21               	movlw	33
  8155   001B74  6FF8               	movwf	_errno& (0+255),b
  8156   001B76                     
  8157                           ; BSR set to: 0
  8158   001B76  C04B  F047         	movff	logf@x,___flsub@a
  8159   001B7A  C04C  F048         	movff	logf@x+1,___flsub@a+1
  8160   001B7E  C04D  F049         	movff	logf@x+2,___flsub@a+2
  8161   001B82  C04E  F04A         	movff	logf@x+3,___flsub@a+3
  8162   001B86  C04B  F043         	movff	logf@x,___flsub@b
  8163   001B8A  C04C  F044         	movff	logf@x+1,___flsub@b+1
  8164   001B8E  C04D  F045         	movff	logf@x+2,___flsub@b+2
  8165   001B92  C04E  F046         	movff	logf@x+3,___flsub@b+3
  8166   001B96  EC86  F025         	call	___flsub	;wreg free
  8167   001B9A  C043  F01A         	movff	?___flsub,___fldiv@b
  8168   001B9E  C044  F01B         	movff	?___flsub+1,___fldiv@b+1
  8169   001BA2  C045  F01C         	movff	?___flsub+2,___fldiv@b+2
  8170   001BA6  C046  F01D         	movff	?___flsub+3,___fldiv@b+3
  8171   001BAA  0E00               	movlw	0
  8172   001BAC  6E1E               	movwf	___fldiv@a^0,c
  8173   001BAE  0E00               	movlw	0
  8174   001BB0  6E1F               	movwf	(___fldiv@a+1)^0,c
  8175   001BB2  0E00               	movlw	0
  8176   001BB4  6E20               	movwf	(___fldiv@a+2)^0,c
  8177   001BB6  0E00               	movlw	0
  8178   001BB8  6E21               	movwf	(___fldiv@a+3)^0,c
  8179   001BBA  EC0A  F017         	call	___fldiv	;wreg free
  8180   001BBE  C01A  F04B         	movff	?___fldiv,?_logf
  8181   001BC2  C01B  F04C         	movff	?___fldiv+1,?_logf+1
  8182   001BC6  C01C  F04D         	movff	?___fldiv+2,?_logf+2
  8183   001BCA  C01D  F04E         	movff	?___fldiv+3,?_logf+3
  8184   001BCE  EFB4  F010         	goto	i2l1248
  8185   001BD2                     i2l5214:
  8186                           
  8187                           ; BSR set to: 0
  8188   001BD2  0EE7               	movlw	231
  8189   001BD4  277C               	addwf	logf@k& (0+255),f,b
  8190   001BD6  0EFF               	movlw	255
  8191   001BD8  237D               	addwfc	(logf@k+1)& (0+255),f,b
  8192   001BDA                     
  8193                           ; BSR set to: 0
  8194   001BDA  C04B  F001         	movff	logf@x,___flmul@b
  8195   001BDE  C04C  F002         	movff	logf@x+1,___flmul@b+1
  8196   001BE2  C04D  F003         	movff	logf@x+2,___flmul@b+2
  8197   001BE6  C04E  F004         	movff	logf@x+3,___flmul@b+3
  8198   001BEA  0E00               	movlw	0
  8199   001BEC  6E05               	movwf	___flmul@a^0,c
  8200   001BEE  0E00               	movlw	0
  8201   001BF0  6E06               	movwf	(___flmul@a+1)^0,c
  8202   001BF2  0E00               	movlw	0
  8203   001BF4  6E07               	movwf	(___flmul@a+2)^0,c
  8204   001BF6  0E4C               	movlw	76
  8205   001BF8  6E08               	movwf	(___flmul@a+3)^0,c
  8206   001BFA  EC15  F013         	call	___flmul	;wreg free
  8207   001BFE  C001  F04B         	movff	?___flmul,logf@x
  8208   001C02  C002  F04C         	movff	?___flmul+1,logf@x+1
  8209   001C06  C003  F04D         	movff	?___flmul+2,logf@x+2
  8210   001C0A  C004  F04E         	movff	?___flmul+3,logf@x+3
  8211   001C0E  C04B  F096         	movff	logf@x,logf@u
  8212   001C12  C04C  F097         	movff	logf@x+1,logf@u+1
  8213   001C16  C04D  F098         	movff	logf@x+2,logf@u+2
  8214   001C1A  C04E  F099         	movff	logf@x+3,logf@u+3
  8215   001C1E  C096  F09E         	movff	logf@u,logf@ix
  8216   001C22  C097  F09F         	movff	logf@u+1,logf@ix+1
  8217   001C26  C098  F0A0         	movff	logf@u+2,logf@ix+2
  8218   001C2A  C099  F0A1         	movff	logf@u+3,logf@ix+3
  8219   001C2E  EF46  F00E         	goto	i2l5234
  8220   001C32                     i2l5222:
  8221                           
  8222                           ; BSR set to: 0
  8223   001C32  0E80               	movlw	128
  8224   001C34  5DA0               	subwf	(logf@ix+2)& (0+255),w,b
  8225   001C36  0E7F               	movlw	127
  8226   001C38  59A1               	subwfb	(logf@ix+3)& (0+255),w,b
  8227   001C3A  A0D8               	btfss	status,0,c
  8228   001C3C  EF22  F00E         	goto	i2u529_41
  8229   001C40  EF24  F00E         	goto	i2u529_40
  8230   001C44                     i2u529_41:
  8231   001C44  EF2E  F00E         	goto	i2l5228
  8232   001C48                     i2u529_40:
  8233   001C48                     
  8234                           ; BSR set to: 0
  8235   001C48  C04B  F04B         	movff	logf@x,?_logf
  8236   001C4C  C04C  F04C         	movff	logf@x+1,?_logf+1
  8237   001C50  C04D  F04D         	movff	logf@x+2,?_logf+2
  8238   001C54  C04E  F04E         	movff	logf@x+3,?_logf+3
  8239   001C58  EFB4  F010         	goto	i2l1248
  8240   001C5C                     i2l5228:
  8241                           
  8242                           ; BSR set to: 0
  8243   001C5C  0E80               	movlw	128
  8244   001C5E  19A0               	xorwf	(logf@ix+2)& (0+255),w,b
  8245   001C60  E109               	bnz	i2u530_41
  8246   001C62  0E3F               	movlw	63
  8247   001C64  19A1               	xorwf	(logf@ix+3)& (0+255),w,b
  8248   001C66  119E               	iorwf	logf@ix& (0+255),w,b
  8249   001C68  119F               	iorwf	(logf@ix+1)& (0+255),w,b
  8250   001C6A  A4D8               	btfss	status,2,c
  8251   001C6C  EF3A  F00E         	goto	i2u530_41
  8252   001C70  EF3C  F00E         	goto	i2u530_40
  8253   001C74                     i2u530_41:
  8254   001C74  EF46  F00E         	goto	i2l5234
  8255   001C78                     i2u530_40:
  8256   001C78                     
  8257                           ; BSR set to: 0
  8258   001C78  0E00               	movlw	0
  8259   001C7A  6E4B               	movwf	?_logf^0,c
  8260   001C7C  0E00               	movlw	0
  8261   001C7E  6E4C               	movwf	(?_logf+1)^0,c
  8262   001C80  0E00               	movlw	0
  8263   001C82  6E4D               	movwf	(?_logf+2)^0,c
  8264   001C84  0E00               	movlw	0
  8265   001C86  6E4E               	movwf	(?_logf+3)^0,c
  8266   001C88  EFB4  F010         	goto	i2l1248
  8267   001C8C                     i2l5234:
  8268   001C8C  0E0D               	movlw	13
  8269   001C8E  0100               	movlb	0	; () banked
  8270   001C90  279E               	addwf	logf@ix& (0+255),f,b
  8271   001C92  0EFB               	movlw	251
  8272   001C94  239F               	addwfc	(logf@ix+1)& (0+255),f,b
  8273   001C96  0E4A               	movlw	74
  8274   001C98  23A0               	addwfc	(logf@ix+2)& (0+255),f,b
  8275   001C9A  0E00               	movlw	0
  8276   001C9C  23A1               	addwfc	(logf@ix+3)& (0+255),f,b
  8277   001C9E  C09E  F04F         	movff	logf@ix,??_logf
  8278   001CA2  C09F  F050         	movff	logf@ix+1,??_logf+1
  8279   001CA6  C0A0  F051         	movff	logf@ix+2,??_logf+2
  8280   001CAA  C0A1  F052         	movff	logf@ix+3,??_logf+3
  8281   001CAE  0E18               	movlw	24
  8282   001CB0  EF5F  F00E         	goto	i2u531_40
  8283   001CB4                     i2u531_45:
  8284   001CB4  90D8               	bcf	status,0,c
  8285   001CB6  3252               	rrcf	(??_logf+3)^0,f,c
  8286   001CB8  3251               	rrcf	(??_logf+2)^0,f,c
  8287   001CBA  3250               	rrcf	(??_logf+1)^0,f,c
  8288   001CBC  324F               	rrcf	??_logf^0,f,c
  8289   001CBE                     i2u531_40:
  8290   001CBE  2EE8               	decfsz	wreg,f,c
  8291   001CC0  EF5A  F00E         	goto	i2u531_45
  8292   001CC4  0E81               	movlw	129
  8293   001CC6  244F               	addwf	??_logf^0,w,c
  8294   001CC8  6E53               	movwf	(??_logf+4)^0,c
  8295   001CCA  0EFF               	movlw	255
  8296   001CCC  2050               	addwfc	(??_logf+1)^0,w,c
  8297   001CCE  6E54               	movwf	(??_logf+5)^0,c
  8298   001CD0  5053               	movf	(??_logf+4)^0,w,c
  8299   001CD2  277C               	addwf	logf@k& (0+255),f,b
  8300   001CD4  5054               	movf	(??_logf+5)^0,w,c
  8301   001CD6  237D               	addwfc	(logf@k+1)& (0+255),f,b
  8302   001CD8  0EFF               	movlw	255
  8303   001CDA  159E               	andwf	logf@ix& (0+255),w,b
  8304   001CDC  6E4F               	movwf	??_logf^0,c
  8305   001CDE  0EFF               	movlw	255
  8306   001CE0  159F               	andwf	(logf@ix+1)& (0+255),w,b
  8307   001CE2  6E50               	movwf	(??_logf+1)^0,c
  8308   001CE4  0E7F               	movlw	127
  8309   001CE6  15A0               	andwf	(logf@ix+2)& (0+255),w,b
  8310   001CE8  6E51               	movwf	(??_logf+2)^0,c
  8311   001CEA  0E00               	movlw	0
  8312   001CEC  15A1               	andwf	(logf@ix+3)& (0+255),w,b
  8313   001CEE  6E52               	movwf	(??_logf+3)^0,c
  8314   001CF0  0EF3               	movlw	243
  8315   001CF2  244F               	addwf	??_logf^0,w,c
  8316   001CF4  6F9E               	movwf	logf@ix& (0+255),b
  8317   001CF6  0E04               	movlw	4
  8318   001CF8  2050               	addwfc	(??_logf+1)^0,w,c
  8319   001CFA  6F9F               	movwf	(logf@ix+1)& (0+255),b
  8320   001CFC  0E35               	movlw	53
  8321   001CFE  2051               	addwfc	(??_logf+2)^0,w,c
  8322   001D00  6FA0               	movwf	(logf@ix+2)& (0+255),b
  8323   001D02  0E3F               	movlw	63
  8324   001D04  2052               	addwfc	(??_logf+3)^0,w,c
  8325   001D06  6FA1               	movwf	(logf@ix+3)& (0+255),b
  8326   001D08                     
  8327                           ; BSR set to: 0
  8328   001D08  C09E  F096         	movff	logf@ix,logf@u
  8329   001D0C  C09F  F097         	movff	logf@ix+1,logf@u+1
  8330   001D10  C0A0  F098         	movff	logf@ix+2,logf@u+2
  8331   001D14  C0A1  F099         	movff	logf@ix+3,logf@u+3
  8332   001D18                     
  8333                           ; BSR set to: 0
  8334   001D18  C096  F04B         	movff	logf@u,logf@x
  8335   001D1C  C097  F04C         	movff	logf@u+1,logf@x+1
  8336   001D20  C098  F04D         	movff	logf@u+2,logf@x+2
  8337   001D24  C099  F04E         	movff	logf@u+3,logf@x+3
  8338   001D28                     
  8339                           ; BSR set to: 0
  8340   001D28  C04B  F033         	movff	logf@x,___fladd@b
  8341   001D2C  C04C  F034         	movff	logf@x+1,___fladd@b+1
  8342   001D30  C04D  F035         	movff	logf@x+2,___fladd@b+2
  8343   001D34  C04E  F036         	movff	logf@x+3,___fladd@b+3
  8344   001D38  0E00               	movlw	0
  8345   001D3A  6E37               	movwf	___fladd@a^0,c
  8346   001D3C  0E00               	movlw	0
  8347   001D3E  6E38               	movwf	(___fladd@a+1)^0,c
  8348   001D40  0E80               	movlw	128
  8349   001D42  6E39               	movwf	(___fladd@a+2)^0,c
  8350   001D44  0EBF               	movlw	191
  8351   001D46  6E3A               	movwf	(___fladd@a+3)^0,c
  8352   001D48  ECB5  F010         	call	___fladd	;wreg free
  8353   001D4C  C033  F09A         	movff	?___fladd,logf@f
  8354   001D50  C034  F09B         	movff	?___fladd+1,logf@f+1
  8355   001D54  C035  F09C         	movff	?___fladd+2,logf@f+2
  8356   001D58  C036  F09D         	movff	?___fladd+3,logf@f+3
  8357   001D5C  C09A  F01A         	movff	logf@f,___fldiv@b
  8358   001D60  C09B  F01B         	movff	logf@f+1,___fldiv@b+1
  8359   001D64  C09C  F01C         	movff	logf@f+2,___fldiv@b+2
  8360   001D68  C09D  F01D         	movff	logf@f+3,___fldiv@b+3
  8361   001D6C  0E00               	movlw	0
  8362   001D6E  6E37               	movwf	___fladd@a^0,c
  8363   001D70  0E00               	movlw	0
  8364   001D72  6E38               	movwf	(___fladd@a+1)^0,c
  8365   001D74  0E00               	movlw	0
  8366   001D76  6E39               	movwf	(___fladd@a+2)^0,c
  8367   001D78  0E40               	movlw	64
  8368   001D7A  6E3A               	movwf	(___fladd@a+3)^0,c
  8369   001D7C  C09A  F033         	movff	logf@f,___fladd@b
  8370   001D80  C09B  F034         	movff	logf@f+1,___fladd@b+1
  8371   001D84  C09C  F035         	movff	logf@f+2,___fladd@b+2
  8372   001D88  C09D  F036         	movff	logf@f+3,___fladd@b+3
  8373   001D8C  ECB5  F010         	call	___fladd	;wreg free
  8374   001D90  C033  F01E         	movff	?___fladd,___fldiv@a
  8375   001D94  C034  F01F         	movff	?___fladd+1,___fldiv@a+1
  8376   001D98  C035  F020         	movff	?___fladd+2,___fldiv@a+2
  8377   001D9C  C036  F021         	movff	?___fladd+3,___fldiv@a+3
  8378   001DA0  EC0A  F017         	call	___fldiv	;wreg free
  8379   001DA4  C01A  F086         	movff	?___fldiv,logf@s
  8380   001DA8  C01B  F087         	movff	?___fldiv+1,logf@s+1
  8381   001DAC  C01C  F088         	movff	?___fldiv+2,logf@s+2
  8382   001DB0  C01D  F089         	movff	?___fldiv+3,logf@s+3
  8383   001DB4  C086  F001         	movff	logf@s,___flmul@b
  8384   001DB8  C087  F002         	movff	logf@s+1,___flmul@b+1
  8385   001DBC  C088  F003         	movff	logf@s+2,___flmul@b+2
  8386   001DC0  C089  F004         	movff	logf@s+3,___flmul@b+3
  8387   001DC4  C086  F005         	movff	logf@s,___flmul@a
  8388   001DC8  C087  F006         	movff	logf@s+1,___flmul@a+1
  8389   001DCC  C088  F007         	movff	logf@s+2,___flmul@a+2
  8390   001DD0  C089  F008         	movff	logf@s+3,___flmul@a+3
  8391   001DD4  EC15  F013         	call	___flmul	;wreg free
  8392   001DD8  C001  F08A         	movff	?___flmul,logf@z
  8393   001DDC  C002  F08B         	movff	?___flmul+1,logf@z+1
  8394   001DE0  C003  F08C         	movff	?___flmul+2,logf@z+2
  8395   001DE4  C004  F08D         	movff	?___flmul+3,logf@z+3
  8396   001DE8  C08A  F001         	movff	logf@z,___flmul@b
  8397   001DEC  C08B  F002         	movff	logf@z+1,___flmul@b+1
  8398   001DF0  C08C  F003         	movff	logf@z+2,___flmul@b+2
  8399   001DF4  C08D  F004         	movff	logf@z+3,___flmul@b+3
  8400   001DF8  C08A  F005         	movff	logf@z,___flmul@a
  8401   001DFC  C08B  F006         	movff	logf@z+1,___flmul@a+1
  8402   001E00  C08C  F007         	movff	logf@z+2,___flmul@a+2
  8403   001E04  C08D  F008         	movff	logf@z+3,___flmul@a+3
  8404   001E08  EC15  F013         	call	___flmul	;wreg free
  8405   001E0C  C001  F08E         	movff	?___flmul,logf@w
  8406   001E10  C002  F08F         	movff	?___flmul+1,logf@w+1
  8407   001E14  C003  F090         	movff	?___flmul+2,logf@w+2
  8408   001E18  C004  F091         	movff	?___flmul+3,logf@w+3
  8409   001E1C  0E13               	movlw	19
  8410   001E1E  6E37               	movwf	___fladd@a^0,c
  8411   001E20  0ECE               	movlw	206
  8412   001E22  6E38               	movwf	(___fladd@a+1)^0,c
  8413   001E24  0ECC               	movlw	204
  8414   001E26  6E39               	movwf	(___fladd@a+2)^0,c
  8415   001E28  0E3E               	movlw	62
  8416   001E2A  6E3A               	movwf	(___fladd@a+3)^0,c
  8417   001E2C  0E26               	movlw	38
  8418   001E2E  6E05               	movwf	___flmul@a^0,c
  8419   001E30  0E9E               	movlw	158
  8420   001E32  6E06               	movwf	(___flmul@a+1)^0,c
  8421   001E34  0E78               	movlw	120
  8422   001E36  6E07               	movwf	(___flmul@a+2)^0,c
  8423   001E38  0E3E               	movlw	62
  8424   001E3A  6E08               	movwf	(___flmul@a+3)^0,c
  8425   001E3C  C08E  F001         	movff	logf@w,___flmul@b
  8426   001E40  C08F  F002         	movff	logf@w+1,___flmul@b+1
  8427   001E44  C090  F003         	movff	logf@w+2,___flmul@b+2
  8428   001E48  C091  F004         	movff	logf@w+3,___flmul@b+3
  8429   001E4C  EC15  F013         	call	___flmul	;wreg free
  8430   001E50  C001  F033         	movff	?___flmul,___fladd@b
  8431   001E54  C002  F034         	movff	?___flmul+1,___fladd@b+1
  8432   001E58  C003  F035         	movff	?___flmul+2,___fladd@b+2
  8433   001E5C  C004  F036         	movff	?___flmul+3,___fladd@b+3
  8434   001E60  ECB5  F010         	call	___fladd	;wreg free
  8435   001E64  C033  F092         	movff	?___fladd,_logf$2534
  8436   001E68  C034  F093         	movff	?___fladd+1,_logf$2534+1
  8437   001E6C  C035  F094         	movff	?___fladd+2,_logf$2534+2
  8438   001E70  C036  F095         	movff	?___fladd+3,_logf$2534+3
  8439   001E74  C092  F001         	movff	_logf$2534,___flmul@b
  8440   001E78  C093  F002         	movff	_logf$2534+1,___flmul@b+1
  8441   001E7C  C094  F003         	movff	_logf$2534+2,___flmul@b+2
  8442   001E80  C095  F004         	movff	_logf$2534+3,___flmul@b+3
  8443   001E84  C08E  F005         	movff	logf@w,___flmul@a
  8444   001E88  C08F  F006         	movff	logf@w+1,___flmul@a+1
  8445   001E8C  C090  F007         	movff	logf@w+2,___flmul@a+2
  8446   001E90  C091  F008         	movff	logf@w+3,___flmul@a+3
  8447   001E94  EC15  F013         	call	___flmul	;wreg free
  8448   001E98  C001  F064         	movff	?___flmul,logf@t1
  8449   001E9C  C002  F065         	movff	?___flmul+1,logf@t1+1
  8450   001EA0  C003  F066         	movff	?___flmul+2,logf@t1+2
  8451   001EA4  C004  F067         	movff	?___flmul+3,logf@t1+3
  8452   001EA8  0EAA               	movlw	170
  8453   001EAA  6E37               	movwf	___fladd@a^0,c
  8454   001EAC  0EAA               	movlw	170
  8455   001EAE  6E38               	movwf	(___fladd@a+1)^0,c
  8456   001EB0  0E2A               	movlw	42
  8457   001EB2  6E39               	movwf	(___fladd@a+2)^0,c
  8458   001EB4  0E3F               	movlw	63
  8459   001EB6  6E3A               	movwf	(___fladd@a+3)^0,c
  8460   001EB8  0EEE               	movlw	238
  8461   001EBA  6E05               	movwf	___flmul@a^0,c
  8462   001EBC  0EE9               	movlw	233
  8463   001EBE  6E06               	movwf	(___flmul@a+1)^0,c
  8464   001EC0  0E91               	movlw	145
  8465   001EC2  6E07               	movwf	(___flmul@a+2)^0,c
  8466   001EC4  0E3E               	movlw	62
  8467   001EC6  6E08               	movwf	(___flmul@a+3)^0,c
  8468   001EC8  C08E  F001         	movff	logf@w,___flmul@b
  8469   001ECC  C08F  F002         	movff	logf@w+1,___flmul@b+1
  8470   001ED0  C090  F003         	movff	logf@w+2,___flmul@b+2
  8471   001ED4  C091  F004         	movff	logf@w+3,___flmul@b+3
  8472   001ED8  EC15  F013         	call	___flmul	;wreg free
  8473   001EDC  C001  F033         	movff	?___flmul,___fladd@b
  8474   001EE0  C002  F034         	movff	?___flmul+1,___fladd@b+1
  8475   001EE4  C003  F035         	movff	?___flmul+2,___fladd@b+2
  8476   001EE8  C004  F036         	movff	?___flmul+3,___fladd@b+3
  8477   001EEC  ECB5  F010         	call	___fladd	;wreg free
  8478   001EF0  C033  F092         	movff	?___fladd,_logf$2534
  8479   001EF4  C034  F093         	movff	?___fladd+1,_logf$2534+1
  8480   001EF8  C035  F094         	movff	?___fladd+2,_logf$2534+2
  8481   001EFC  C036  F095         	movff	?___fladd+3,_logf$2534+3
  8482   001F00  C092  F001         	movff	_logf$2534,___flmul@b
  8483   001F04  C093  F002         	movff	_logf$2534+1,___flmul@b+1
  8484   001F08  C094  F003         	movff	_logf$2534+2,___flmul@b+2
  8485   001F0C  C095  F004         	movff	_logf$2534+3,___flmul@b+3
  8486   001F10  C08A  F005         	movff	logf@z,___flmul@a
  8487   001F14  C08B  F006         	movff	logf@z+1,___flmul@a+1
  8488   001F18  C08C  F007         	movff	logf@z+2,___flmul@a+2
  8489   001F1C  C08D  F008         	movff	logf@z+3,___flmul@a+3
  8490   001F20  EC15  F013         	call	___flmul	;wreg free
  8491   001F24  C001  F068         	movff	?___flmul,logf@t2
  8492   001F28  C002  F069         	movff	?___flmul+1,logf@t2+1
  8493   001F2C  C003  F06A         	movff	?___flmul+2,logf@t2+2
  8494   001F30  C004  F06B         	movff	?___flmul+3,logf@t2+3
  8495   001F34  C068  F033         	movff	logf@t2,___fladd@b
  8496   001F38  C069  F034         	movff	logf@t2+1,___fladd@b+1
  8497   001F3C  C06A  F035         	movff	logf@t2+2,___fladd@b+2
  8498   001F40  C06B  F036         	movff	logf@t2+3,___fladd@b+3
  8499   001F44  C064  F037         	movff	logf@t1,___fladd@a
  8500   001F48  C065  F038         	movff	logf@t1+1,___fladd@a+1
  8501   001F4C  C066  F039         	movff	logf@t1+2,___fladd@a+2
  8502   001F50  C067  F03A         	movff	logf@t1+3,___fladd@a+3
  8503   001F54  ECB5  F010         	call	___fladd	;wreg free
  8504   001F58  C033  F060         	movff	?___fladd,logf@R
  8505   001F5C  C034  F061         	movff	?___fladd+1,logf@R+1
  8506   001F60  C035  F062         	movff	?___fladd+2,logf@R+2
  8507   001F64  C036  F063         	movff	?___fladd+3,logf@R+3
  8508   001F68  0E00               	movlw	0
  8509   001F6A  6E05               	movwf	___flmul@a^0,c
  8510   001F6C  0E00               	movlw	0
  8511   001F6E  6E06               	movwf	(___flmul@a+1)^0,c
  8512   001F70  0E00               	movlw	0
  8513   001F72  6E07               	movwf	(___flmul@a+2)^0,c
  8514   001F74  0E3F               	movlw	63
  8515   001F76  6E08               	movwf	(___flmul@a+3)^0,c
  8516   001F78  C09A  F001         	movff	logf@f,___flmul@b
  8517   001F7C  C09B  F002         	movff	logf@f+1,___flmul@b+1
  8518   001F80  C09C  F003         	movff	logf@f+2,___flmul@b+2
  8519   001F84  C09D  F004         	movff	logf@f+3,___flmul@b+3
  8520   001F88  EC15  F013         	call	___flmul	;wreg free
  8521   001F8C  C001  F092         	movff	?___flmul,_logf$2534
  8522   001F90  C002  F093         	movff	?___flmul+1,_logf$2534+1
  8523   001F94  C003  F094         	movff	?___flmul+2,_logf$2534+2
  8524   001F98  C004  F095         	movff	?___flmul+3,_logf$2534+3
  8525   001F9C  C092  F001         	movff	_logf$2534,___flmul@b
  8526   001FA0  C093  F002         	movff	_logf$2534+1,___flmul@b+1
  8527   001FA4  C094  F003         	movff	_logf$2534+2,___flmul@b+2
  8528   001FA8  C095  F004         	movff	_logf$2534+3,___flmul@b+3
  8529   001FAC  C09A  F005         	movff	logf@f,___flmul@a
  8530   001FB0  C09B  F006         	movff	logf@f+1,___flmul@a+1
  8531   001FB4  C09C  F007         	movff	logf@f+2,___flmul@a+2
  8532   001FB8  C09D  F008         	movff	logf@f+3,___flmul@a+3
  8533   001FBC  EC15  F013         	call	___flmul	;wreg free
  8534   001FC0  C001  F07E         	movff	?___flmul,logf@hfsq
  8535   001FC4  C002  F07F         	movff	?___flmul+1,logf@hfsq+1
  8536   001FC8  C003  F080         	movff	?___flmul+2,logf@hfsq+2
  8537   001FCC  C004  F081         	movff	?___flmul+3,logf@hfsq+3
  8538   001FD0  C07C  F006         	movff	logf@k,___xxtofl@val
  8539   001FD4  C07D  F007         	movff	logf@k+1,___xxtofl@val+1
  8540   001FD8  0E00               	movlw	0
  8541   001FDA  BE07               	btfsc	(___xxtofl@val+1)^0,7,c
  8542   001FDC  0EFF               	movlw	-1
  8543   001FDE  6E08               	movwf	(___xxtofl@val+2)^0,c
  8544   001FE0  6E09               	movwf	(___xxtofl@val+3)^0,c
  8545   001FE2  0E01               	movlw	1
  8546   001FE4  EC79  F01B         	call	___xxtofl
  8547   001FE8  C006  F082         	movff	?___xxtofl,logf@dk
  8548   001FEC  C007  F083         	movff	?___xxtofl+1,logf@dk+1
  8549   001FF0  C008  F084         	movff	?___xxtofl+2,logf@dk+2
  8550   001FF4  C009  F085         	movff	?___xxtofl+3,logf@dk+3
  8551   001FF8  C086  F005         	movff	logf@s,___flmul@a
  8552   001FFC  C087  F006         	movff	logf@s+1,___flmul@a+1
  8553   002000  C088  F007         	movff	logf@s+2,___flmul@a+2
  8554   002004  C089  F008         	movff	logf@s+3,___flmul@a+3
  8555   002008  C060  F037         	movff	logf@R,___fladd@a
  8556   00200C  C061  F038         	movff	logf@R+1,___fladd@a+1
  8557   002010  C062  F039         	movff	logf@R+2,___fladd@a+2
  8558   002014  C063  F03A         	movff	logf@R+3,___fladd@a+3
  8559   002018  C07E  F033         	movff	logf@hfsq,___fladd@b
  8560   00201C  C07F  F034         	movff	logf@hfsq+1,___fladd@b+1
  8561   002020  C080  F035         	movff	logf@hfsq+2,___fladd@b+2
  8562   002024  C081  F036         	movff	logf@hfsq+3,___fladd@b+3
  8563   002028  ECB5  F010         	call	___fladd	;wreg free
  8564   00202C  C033  F001         	movff	?___fladd,___flmul@b
  8565   002030  C034  F002         	movff	?___fladd+1,___flmul@b+1
  8566   002034  C035  F003         	movff	?___fladd+2,___flmul@b+2
  8567   002038  C036  F004         	movff	?___fladd+3,___flmul@b+3
  8568   00203C  EC15  F013         	call	___flmul	;wreg free
  8569   002040  C001  F06C         	movff	?___flmul,_logf$2535
  8570   002044  C002  F06D         	movff	?___flmul+1,_logf$2535+1
  8571   002048  C003  F06E         	movff	?___flmul+2,_logf$2535+2
  8572   00204C  C004  F06F         	movff	?___flmul+3,_logf$2535+3
  8573   002050  0ED1               	movlw	209
  8574   002052  6E05               	movwf	___flmul@a^0,c
  8575   002054  0EF7               	movlw	247
  8576   002056  6E06               	movwf	(___flmul@a+1)^0,c
  8577   002058  0E17               	movlw	23
  8578   00205A  6E07               	movwf	(___flmul@a+2)^0,c
  8579   00205C  0E37               	movlw	55
  8580   00205E  6E08               	movwf	(___flmul@a+3)^0,c
  8581   002060  C082  F001         	movff	logf@dk,___flmul@b
  8582   002064  C083  F002         	movff	logf@dk+1,___flmul@b+1
  8583   002068  C084  F003         	movff	logf@dk+2,___flmul@b+2
  8584   00206C  C085  F004         	movff	logf@dk+3,___flmul@b+3
  8585   002070  EC15  F013         	call	___flmul	;wreg free
  8586   002074  C001  F037         	movff	?___flmul,___fladd@a
  8587   002078  C002  F038         	movff	?___flmul+1,___fladd@a+1
  8588   00207C  C003  F039         	movff	?___flmul+2,___fladd@a+2
  8589   002080  C004  F03A         	movff	?___flmul+3,___fladd@a+3
  8590   002084  C06C  F033         	movff	_logf$2535,___fladd@b
  8591   002088  C06D  F034         	movff	_logf$2535+1,___fladd@b+1
  8592   00208C  C06E  F035         	movff	_logf$2535+2,___fladd@b+2
  8593   002090  C06F  F036         	movff	_logf$2535+3,___fladd@b+3
  8594   002094  ECB5  F010         	call	___fladd	;wreg free
  8595   002098  C033  F070         	movff	?___fladd,_logf$2536
  8596   00209C  C034  F071         	movff	?___fladd+1,_logf$2536+1
  8597   0020A0  C035  F072         	movff	?___fladd+2,_logf$2536+2
  8598   0020A4  C036  F073         	movff	?___fladd+3,_logf$2536+3
  8599   0020A8  C07E  F047         	movff	logf@hfsq,___flsub@a
  8600   0020AC  C07F  F048         	movff	logf@hfsq+1,___flsub@a+1
  8601   0020B0  C080  F049         	movff	logf@hfsq+2,___flsub@a+2
  8602   0020B4  C081  F04A         	movff	logf@hfsq+3,___flsub@a+3
  8603   0020B8  C070  F043         	movff	_logf$2536,___flsub@b
  8604   0020BC  C071  F044         	movff	_logf$2536+1,___flsub@b+1
  8605   0020C0  C072  F045         	movff	_logf$2536+2,___flsub@b+2
  8606   0020C4  C073  F046         	movff	_logf$2536+3,___flsub@b+3
  8607   0020C8  EC86  F025         	call	___flsub	;wreg free
  8608   0020CC  C043  F074         	movff	?___flsub,_logf$2537
  8609   0020D0  C044  F075         	movff	?___flsub+1,_logf$2537+1
  8610   0020D4  C045  F076         	movff	?___flsub+2,_logf$2537+2
  8611   0020D8  C046  F077         	movff	?___flsub+3,_logf$2537+3
  8612   0020DC  C09A  F037         	movff	logf@f,___fladd@a
  8613   0020E0  C09B  F038         	movff	logf@f+1,___fladd@a+1
  8614   0020E4  C09C  F039         	movff	logf@f+2,___fladd@a+2
  8615   0020E8  C09D  F03A         	movff	logf@f+3,___fladd@a+3
  8616   0020EC  C074  F033         	movff	_logf$2537,___fladd@b
  8617   0020F0  C075  F034         	movff	_logf$2537+1,___fladd@b+1
  8618   0020F4  C076  F035         	movff	_logf$2537+2,___fladd@b+2
  8619   0020F8  C077  F036         	movff	_logf$2537+3,___fladd@b+3
  8620   0020FC  ECB5  F010         	call	___fladd	;wreg free
  8621   002100  C033  F078         	movff	?___fladd,_logf$2538
  8622   002104  C034  F079         	movff	?___fladd+1,_logf$2538+1
  8623   002108  C035  F07A         	movff	?___fladd+2,_logf$2538+2
  8624   00210C  C036  F07B         	movff	?___fladd+3,_logf$2538+3
  8625   002110  C078  F033         	movff	_logf$2538,___fladd@b
  8626   002114  C079  F034         	movff	_logf$2538+1,___fladd@b+1
  8627   002118  C07A  F035         	movff	_logf$2538+2,___fladd@b+2
  8628   00211C  C07B  F036         	movff	_logf$2538+3,___fladd@b+3
  8629   002120  0E80               	movlw	128
  8630   002122  6E05               	movwf	___flmul@a^0,c
  8631   002124  0E71               	movlw	113
  8632   002126  6E06               	movwf	(___flmul@a+1)^0,c
  8633   002128  0E31               	movlw	49
  8634   00212A  6E07               	movwf	(___flmul@a+2)^0,c
  8635   00212C  0E3F               	movlw	63
  8636   00212E  6E08               	movwf	(___flmul@a+3)^0,c
  8637   002130  C082  F001         	movff	logf@dk,___flmul@b
  8638   002134  C083  F002         	movff	logf@dk+1,___flmul@b+1
  8639   002138  C084  F003         	movff	logf@dk+2,___flmul@b+2
  8640   00213C  C085  F004         	movff	logf@dk+3,___flmul@b+3
  8641   002140  EC15  F013         	call	___flmul	;wreg free
  8642   002144  C001  F037         	movff	?___flmul,___fladd@a
  8643   002148  C002  F038         	movff	?___flmul+1,___fladd@a+1
  8644   00214C  C003  F039         	movff	?___flmul+2,___fladd@a+2
  8645   002150  C004  F03A         	movff	?___flmul+3,___fladd@a+3
  8646   002154  ECB5  F010         	call	___fladd	;wreg free
  8647   002158  C033  F04B         	movff	?___fladd,?_logf
  8648   00215C  C034  F04C         	movff	?___fladd+1,?_logf+1
  8649   002160  C035  F04D         	movff	?___fladd+2,?_logf+2
  8650   002164  C036  F04E         	movff	?___fladd+3,?_logf+3
  8651   002168                     i2l1248:
  8652   002168  0012               	return		;funcret
  8653   00216A                     __end_of_logf:
  8654                           	callstack 0
  8655                           
  8656 ;; *************** function ___xxtofl *****************
  8657 ;; Defined at:
  8658 ;;		line 10 in file "C:\Program Files\Microchip\xc8\v2.41\pic\sources\c99\common\xxtofl.c"
  8659 ;; Parameters:    Size  Location     Type
  8660 ;;  sign            1    wreg     unsigned char 
  8661 ;;  val             4    5[COMRAM] long 
  8662 ;; Auto vars:     Size  Location     Type
  8663 ;;  sign            1   13[COMRAM] unsigned char 
  8664 ;;  arg             4   15[COMRAM] unsigned long 
  8665 ;;  exp             1   14[COMRAM] unsigned char 
  8666 ;; Return value:  Size  Location     Type
  8667 ;;                  4    5[COMRAM] unsigned char 
  8668 ;; Registers used:
  8669 ;;		wreg, status,2, status,0
  8670 ;; Tracked objects:
  8671 ;;		On entry : 0/0
  8672 ;;		On exit  : 0/0
  8673 ;;		Unchanged: 0/0
  8674 ;; Data sizes:     COMRAM   BANK0   BANK1   BANK2   BANK3   BANK4   BANK5   BANK6   BANK7   BANK8   BANK9  BANK10  BANK1
      +1  BANK12  BANK13  BANK14  BANK15
  8675 ;;      Params:         4       0       0       0       0       0       0       0       0       0       0       0       
      +0       0       0       0       0
  8676 ;;      Locals:         6       0       0       0       0       0       0       0       0       0       0       0       
      +0       0       0       0       0
  8677 ;;      Temps:          4       0       0       0       0       0       0       0       0       0       0       0       
      +0       0       0       0       0
  8678 ;;      Totals:        14       0       0       0       0       0       0       0       0       0       0       0       
      +0       0       0       0       0
  8679 ;;Total ram usage:       14 bytes
  8680 ;; Hardware stack levels used: 1
  8681 ;; This function calls:
  8682 ;;		Nothing
  8683 ;; This function is called by:
  8684 ;;		_HandleInterrupt
  8685 ;;		_logf
  8686 ;; This function uses a non-reentrant model
  8687 ;;
  8688                           
  8689                           	psect	text48
  8690   0036F2                     __ptext48:
  8691                           	callstack 0
  8692   0036F2                     ___xxtofl:
  8693                           	callstack 21
  8694                           
  8695                           ;incstack = 0
  8696                           ;___xxtofl@sign stored from wreg
  8697   0036F2  6E0E               	movwf	___xxtofl@sign^0,c
  8698   0036F4  500E               	movf	___xxtofl@sign^0,w,c
  8699   0036F6  B4D8               	btfsc	status,2,c
  8700   0036F8  EF80  F01B         	goto	i2u491_41
  8701   0036FC  EF82  F01B         	goto	i2u491_40
  8702   003700                     i2u491_41:
  8703   003700  EFA4  F01B         	goto	i2l1209
  8704   003704                     i2u491_40:
  8705   003704  BE09               	btfsc	(___xxtofl@val+3)^0,7,c
  8706   003706  EF89  F01B         	goto	i2u492_40
  8707   00370A  EF87  F01B         	goto	i2u492_41
  8708   00370E                     i2u492_41:
  8709   00370E  EFA4  F01B         	goto	i2l1209
  8710   003712                     i2u492_40:
  8711   003712  C006  F00A         	movff	___xxtofl@val,??___xxtofl
  8712   003716  C007  F00B         	movff	___xxtofl@val+1,??___xxtofl+1
  8713   00371A  C008  F00C         	movff	___xxtofl@val+2,??___xxtofl+2
  8714   00371E  C009  F00D         	movff	___xxtofl@val+3,??___xxtofl+3
  8715   003722  1E0A               	comf	??___xxtofl^0,f,c
  8716   003724  1E0B               	comf	(??___xxtofl+1)^0,f,c
  8717   003726  1E0C               	comf	(??___xxtofl+2)^0,f,c
  8718   003728  1E0D               	comf	(??___xxtofl+3)^0,f,c
  8719   00372A  2A0A               	incf	??___xxtofl^0,f,c
  8720   00372C  0E00               	movlw	0
  8721   00372E  220B               	addwfc	(??___xxtofl+1)^0,f,c
  8722   003730  220C               	addwfc	(??___xxtofl+2)^0,f,c
  8723   003732  220D               	addwfc	(??___xxtofl+3)^0,f,c
  8724   003734  C00A  F010         	movff	??___xxtofl,___xxtofl@arg
  8725   003738  C00B  F011         	movff	??___xxtofl+1,___xxtofl@arg+1
  8726   00373C  C00C  F012         	movff	??___xxtofl+2,___xxtofl@arg+2
  8727   003740  C00D  F013         	movff	??___xxtofl+3,___xxtofl@arg+3
  8728   003744  EFAC  F01B         	goto	i2l4962
  8729   003748                     i2l1209:
  8730   003748  C006  F010         	movff	___xxtofl@val,___xxtofl@arg
  8731   00374C  C007  F011         	movff	___xxtofl@val+1,___xxtofl@arg+1
  8732   003750  C008  F012         	movff	___xxtofl@val+2,___xxtofl@arg+2
  8733   003754  C009  F013         	movff	___xxtofl@val+3,___xxtofl@arg+3
  8734   003758                     i2l4962:
  8735   003758  5006               	movf	___xxtofl@val^0,w,c
  8736   00375A  1007               	iorwf	(___xxtofl@val+1)^0,w,c
  8737   00375C  1008               	iorwf	(___xxtofl@val+2)^0,w,c
  8738   00375E  1009               	iorwf	(___xxtofl@val+3)^0,w,c
  8739   003760  A4D8               	btfss	status,2,c
  8740   003762  EFB5  F01B         	goto	i2u493_41
  8741   003766  EFB7  F01B         	goto	i2u493_40
  8742   00376A                     i2u493_41:
  8743   00376A  EFC1  F01B         	goto	i2l4968
  8744   00376E                     i2u493_40:
  8745   00376E  0E00               	movlw	0
  8746   003770  6E06               	movwf	?___xxtofl^0,c
  8747   003772  0E00               	movlw	0
  8748   003774  6E07               	movwf	(?___xxtofl+1)^0,c
  8749   003776  0E00               	movlw	0
  8750   003778  6E08               	movwf	(?___xxtofl+2)^0,c
  8751   00377A  0E00               	movlw	0
  8752   00377C  6E09               	movwf	(?___xxtofl+3)^0,c
  8753   00377E  EF52  F01C         	goto	i2l1212
  8754   003782                     i2l4968:
  8755   003782  0E96               	movlw	150
  8756   003784  6E0F               	movwf	___xxtofl@exp^0,c
  8757   003786  EFCB  F01B         	goto	i2l4972
  8758   00378A                     i2l4970:
  8759   00378A  2A0F               	incf	___xxtofl@exp^0,f,c
  8760   00378C  90D8               	bcf	status,0,c
  8761   00378E  3213               	rrcf	(___xxtofl@arg+3)^0,f,c
  8762   003790  3212               	rrcf	(___xxtofl@arg+2)^0,f,c
  8763   003792  3211               	rrcf	(___xxtofl@arg+1)^0,f,c
  8764   003794  3210               	rrcf	___xxtofl@arg^0,f,c
  8765   003796                     i2l4972:
  8766   003796  0E00               	movlw	0
  8767   003798  1410               	andwf	___xxtofl@arg^0,w,c
  8768   00379A  6E0A               	movwf	??___xxtofl^0,c
  8769   00379C  0E00               	movlw	0
  8770   00379E  1411               	andwf	(___xxtofl@arg+1)^0,w,c
  8771   0037A0  6E0B               	movwf	(??___xxtofl+1)^0,c
  8772   0037A2  0E00               	movlw	0
  8773   0037A4  1412               	andwf	(___xxtofl@arg+2)^0,w,c
  8774   0037A6  6E0C               	movwf	(??___xxtofl+2)^0,c
  8775   0037A8  0EFE               	movlw	254
  8776   0037AA  1413               	andwf	(___xxtofl@arg+3)^0,w,c
  8777   0037AC  6E0D               	movwf	(??___xxtofl+3)^0,c
  8778   0037AE  500A               	movf	??___xxtofl^0,w,c
  8779   0037B0  100B               	iorwf	(??___xxtofl+1)^0,w,c
  8780   0037B2  100C               	iorwf	(??___xxtofl+2)^0,w,c
  8781   0037B4  100D               	iorwf	(??___xxtofl+3)^0,w,c
  8782   0037B6  A4D8               	btfss	status,2,c
  8783   0037B8  EFE0  F01B         	goto	i2u494_41
  8784   0037BC  EFE2  F01B         	goto	i2u494_40
  8785   0037C0                     i2u494_41:
  8786   0037C0  EFC5  F01B         	goto	i2l4970
  8787   0037C4                     i2u494_40:
  8788   0037C4  EFF0  F01B         	goto	i2l1216
  8789   0037C8                     i2l4974:
  8790   0037C8  2A0F               	incf	___xxtofl@exp^0,f,c
  8791   0037CA  0E01               	movlw	1
  8792   0037CC  2610               	addwf	___xxtofl@arg^0,f,c
  8793   0037CE  0E00               	movlw	0
  8794   0037D0  2211               	addwfc	(___xxtofl@arg+1)^0,f,c
  8795   0037D2  2212               	addwfc	(___xxtofl@arg+2)^0,f,c
  8796   0037D4  2213               	addwfc	(___xxtofl@arg+3)^0,f,c
  8797   0037D6  90D8               	bcf	status,0,c
  8798   0037D8  3213               	rrcf	(___xxtofl@arg+3)^0,f,c
  8799   0037DA  3212               	rrcf	(___xxtofl@arg+2)^0,f,c
  8800   0037DC  3211               	rrcf	(___xxtofl@arg+1)^0,f,c
  8801   0037DE  3210               	rrcf	___xxtofl@arg^0,f,c
  8802   0037E0                     i2l1216:
  8803   0037E0  0E00               	movlw	0
  8804   0037E2  1410               	andwf	___xxtofl@arg^0,w,c
  8805   0037E4  6E0A               	movwf	??___xxtofl^0,c
  8806   0037E6  0E00               	movlw	0
  8807   0037E8  1411               	andwf	(___xxtofl@arg+1)^0,w,c
  8808   0037EA  6E0B               	movwf	(??___xxtofl+1)^0,c
  8809   0037EC  0E00               	movlw	0
  8810   0037EE  1412               	andwf	(___xxtofl@arg+2)^0,w,c
  8811   0037F0  6E0C               	movwf	(??___xxtofl+2)^0,c
  8812   0037F2  0EFF               	movlw	255
  8813   0037F4  1413               	andwf	(___xxtofl@arg+3)^0,w,c
  8814   0037F6  6E0D               	movwf	(??___xxtofl+3)^0,c
  8815   0037F8  500A               	movf	??___xxtofl^0,w,c
  8816   0037FA  100B               	iorwf	(??___xxtofl+1)^0,w,c
  8817   0037FC  100C               	iorwf	(??___xxtofl+2)^0,w,c
  8818   0037FE  100D               	iorwf	(??___xxtofl+3)^0,w,c
  8819   003800  A4D8               	btfss	status,2,c
  8820   003802  EF05  F01C         	goto	i2u495_41
  8821   003806  EF07  F01C         	goto	i2u495_40
  8822   00380A                     i2u495_41:
  8823   00380A  EFE4  F01B         	goto	i2l4974
  8824   00380E                     i2u495_40:
  8825   00380E  EF0F  F01C         	goto	i2l4982
  8826   003812                     i2l4980:
  8827   003812  060F               	decf	___xxtofl@exp^0,f,c
  8828   003814  90D8               	bcf	status,0,c
  8829   003816  3610               	rlcf	___xxtofl@arg^0,f,c
  8830   003818  3611               	rlcf	(___xxtofl@arg+1)^0,f,c
  8831   00381A  3612               	rlcf	(___xxtofl@arg+2)^0,f,c
  8832   00381C  3613               	rlcf	(___xxtofl@arg+3)^0,f,c
  8833   00381E                     i2l4982:
  8834   00381E  BE12               	btfsc	(___xxtofl@arg+2)^0,7,c
  8835   003820  EF14  F01C         	goto	i2u496_41
  8836   003824  EF16  F01C         	goto	i2u496_40
  8837   003828                     i2u496_41:
  8838   003828  EF1E  F01C         	goto	i2l1223
  8839   00382C                     i2u496_40:
  8840   00382C  0E02               	movlw	2
  8841   00382E  600F               	cpfslt	___xxtofl@exp^0,c
  8842   003830  EF1C  F01C         	goto	i2u497_41
  8843   003834  EF1E  F01C         	goto	i2u497_40
  8844   003838                     i2u497_41:
  8845   003838  EF09  F01C         	goto	i2l4980
  8846   00383C                     i2u497_40:
  8847   00383C                     i2l1223:
  8848   00383C  B00F               	btfsc	___xxtofl@exp^0,0,c
  8849   00383E  EF23  F01C         	goto	i2u498_41
  8850   003842  EF25  F01C         	goto	i2u498_40
  8851   003846                     i2u498_41:
  8852   003846  EF26  F01C         	goto	i2l4988
  8853   00384A                     i2u498_40:
  8854   00384A  9E12               	bcf	(___xxtofl@arg+2)^0,7,c
  8855   00384C                     i2l4988:
  8856   00384C  90D8               	bcf	status,0,c
  8857   00384E  320F               	rrcf	___xxtofl@exp^0,f,c
  8858   003850  C00F  F00A         	movff	___xxtofl@exp,??___xxtofl
  8859   003854  6A0B               	clrf	(??___xxtofl+1)^0,c
  8860   003856  6A0C               	clrf	(??___xxtofl+2)^0,c
  8861   003858  6A0D               	clrf	(??___xxtofl+3)^0,c
  8862   00385A  C00A  F00D         	movff	??___xxtofl,??___xxtofl+3
  8863   00385E  6A0C               	clrf	(??___xxtofl+2)^0,c
  8864   003860  6A0B               	clrf	(??___xxtofl+1)^0,c
  8865   003862  6A0A               	clrf	??___xxtofl^0,c
  8866   003864  500A               	movf	??___xxtofl^0,w,c
  8867   003866  1210               	iorwf	___xxtofl@arg^0,f,c
  8868   003868  500B               	movf	(??___xxtofl+1)^0,w,c
  8869   00386A  1211               	iorwf	(___xxtofl@arg+1)^0,f,c
  8870   00386C  500C               	movf	(??___xxtofl+2)^0,w,c
  8871   00386E  1212               	iorwf	(___xxtofl@arg+2)^0,f,c
  8872   003870  500D               	movf	(??___xxtofl+3)^0,w,c
  8873   003872  1213               	iorwf	(___xxtofl@arg+3)^0,f,c
  8874   003874  500E               	movf	___xxtofl@sign^0,w,c
  8875   003876  B4D8               	btfsc	status,2,c
  8876   003878  EF40  F01C         	goto	i2u499_41
  8877   00387C  EF42  F01C         	goto	i2u499_40
  8878   003880                     i2u499_41:
  8879   003880  EF4A  F01C         	goto	i2l4998
  8880   003884                     i2u499_40:
  8881   003884  BE09               	btfsc	(___xxtofl@val+3)^0,7,c
  8882   003886  EF49  F01C         	goto	i2u500_40
  8883   00388A  EF47  F01C         	goto	i2u500_41
  8884   00388E                     i2u500_41:
  8885   00388E  EF4A  F01C         	goto	i2l4998
  8886   003892                     i2u500_40:
  8887   003892  8E13               	bsf	(___xxtofl@arg+3)^0,7,c
  8888   003894                     i2l4998:
  8889   003894  C010  F006         	movff	___xxtofl@arg,?___xxtofl
  8890   003898  C011  F007         	movff	___xxtofl@arg+1,?___xxtofl+1
  8891   00389C  C012  F008         	movff	___xxtofl@arg+2,?___xxtofl+2
  8892   0038A0  C013  F009         	movff	___xxtofl@arg+3,?___xxtofl+3
  8893   0038A4                     i2l1212:
  8894   0038A4  0012               	return		;funcret
  8895   0038A6                     __end_of___xxtofl:
  8896                           	callstack 0
  8897                           
  8898 ;; *************** function ___flsub *****************
  8899 ;; Defined at:
  8900 ;;		line 245 in file "C:\Program Files\Microchip\xc8\v2.41\pic\sources\c99\common\sprcadd.c"
  8901 ;; Parameters:    Size  Location     Type
  8902 ;;  b               4   66[COMRAM] unsigned char 
  8903 ;;  a               4   70[COMRAM] unsigned char 
  8904 ;; Auto vars:     Size  Location     Type
  8905 ;;		None
  8906 ;; Return value:  Size  Location     Type
  8907 ;;                  4   66[COMRAM] unsigned char 
  8908 ;; Registers used:
  8909 ;;		wreg, status,2, status,0, cstack
  8910 ;; Tracked objects:
  8911 ;;		On entry : 0/0
  8912 ;;		On exit  : 0/0
  8913 ;;		Unchanged: 0/0
  8914 ;; Data sizes:     COMRAM   BANK0   BANK1   BANK2   BANK3   BANK4   BANK5   BANK6   BANK7   BANK8   BANK9  BANK10  BANK1
      +1  BANK12  BANK13  BANK14  BANK15
  8915 ;;      Params:         8       0       0       0       0       0       0       0       0       0       0       0       
      +0       0       0       0       0
  8916 ;;      Locals:         0       0       0       0       0       0       0       0       0       0       0       0       
      +0       0       0       0       0
  8917 ;;      Temps:          0       0       0       0       0       0       0       0       0       0       0       0       
      +0       0       0       0       0
  8918 ;;      Totals:         8       0       0       0       0       0       0       0       0       0       0       0       
      +0       0       0       0       0
  8919 ;;Total ram usage:        8 bytes
  8920 ;; Hardware stack levels used: 1
  8921 ;; Hardware stack levels required when called: 1
  8922 ;; This function calls:
  8923 ;;		___fladd
  8924 ;; This function is called by:
  8925 ;;		_logf
  8926 ;;		_efgtoa
  8927 ;; This function uses a non-reentrant model
  8928 ;;
  8929                           
  8930                           	psect	text49
  8931   004B0C                     __ptext49:
  8932                           	callstack 0
  8933   004B0C                     ___flsub:
  8934                           	callstack 17
  8935   004B0C  0E00               	movlw	0
  8936   004B0E  1A47               	xorwf	___flsub@a^0,f,c
  8937   004B10  0E00               	movlw	0
  8938   004B12  1A48               	xorwf	(___flsub@a+1)^0,f,c
  8939   004B14  0E00               	movlw	0
  8940   004B16  1A49               	xorwf	(___flsub@a+2)^0,f,c
  8941   004B18  0E80               	movlw	128
  8942   004B1A  1A4A               	xorwf	(___flsub@a+3)^0,f,c
  8943   004B1C  C043  F033         	movff	___flsub@b,___fladd@b
  8944   004B20  C044  F034         	movff	___flsub@b+1,___fladd@b+1
  8945   004B24  C045  F035         	movff	___flsub@b+2,___fladd@b+2
  8946   004B28  C046  F036         	movff	___flsub@b+3,___fladd@b+3
  8947   004B2C  C047  F037         	movff	___flsub@a,___fladd@a
  8948   004B30  C048  F038         	movff	___flsub@a+1,___fladd@a+1
  8949   004B34  C049  F039         	movff	___flsub@a+2,___fladd@a+2
  8950   004B38  C04A  F03A         	movff	___flsub@a+3,___fladd@a+3
  8951   004B3C  ECB5  F010         	call	___fladd	;wreg free
  8952   004B40  C033  F043         	movff	?___fladd,?___flsub
  8953   004B44  C034  F044         	movff	?___fladd+1,?___flsub+1
  8954   004B48  C035  F045         	movff	?___fladd+2,?___flsub+2
  8955   004B4C  C036  F046         	movff	?___fladd+3,?___flsub+3
  8956   004B50  0012               	return		;funcret
  8957   004B52                     __end_of___flsub:
  8958                           	callstack 0
  8959                           
  8960 ;; *************** function ___fladd *****************
  8961 ;; Defined at:
  8962 ;;		line 10 in file "C:\Program Files\Microchip\xc8\v2.41\pic\sources\c99\common\sprcadd.c"
  8963 ;; Parameters:    Size  Location     Type
  8964 ;;  b               4   50[COMRAM] unsigned char 
  8965 ;;  a               4   54[COMRAM] unsigned char 
  8966 ;; Auto vars:     Size  Location     Type
  8967 ;;  grs             1   65[COMRAM] unsigned char 
  8968 ;;  bexp            1   64[COMRAM] unsigned char 
  8969 ;;  aexp            1   63[COMRAM] unsigned char 
  8970 ;;  signs           1   62[COMRAM] unsigned char 
  8971 ;; Return value:  Size  Location     Type
  8972 ;;                  4   50[COMRAM] unsigned char 
  8973 ;; Registers used:
  8974 ;;		wreg, status,2, status,0
  8975 ;; Tracked objects:
  8976 ;;		On entry : 0/0
  8977 ;;		On exit  : 0/0
  8978 ;;		Unchanged: 0/0
  8979 ;; Data sizes:     COMRAM   BANK0   BANK1   BANK2   BANK3   BANK4   BANK5   BANK6   BANK7   BANK8   BANK9  BANK10  BANK1
      +1  BANK12  BANK13  BANK14  BANK15
  8980 ;;      Params:         8       0       0       0       0       0       0       0       0       0       0       0       
      +0       0       0       0       0
  8981 ;;      Locals:         4       0       0       0       0       0       0       0       0       0       0       0       
      +0       0       0       0       0
  8982 ;;      Temps:          4       0       0       0       0       0       0       0       0       0       0       0       
      +0       0       0       0       0
  8983 ;;      Totals:        16       0       0       0       0       0       0       0       0       0       0       0       
      +0       0       0       0       0
  8984 ;;Total ram usage:       16 bytes
  8985 ;; Hardware stack levels used: 1
  8986 ;; This function calls:
  8987 ;;		Nothing
  8988 ;; This function is called by:
  8989 ;;		_HandleInterrupt
  8990 ;;		___flsub
  8991 ;;		_logf
  8992 ;;		_efgtoa
  8993 ;; This function uses a non-reentrant model
  8994 ;;
  8995                           
  8996                           	psect	text50
  8997   00216A                     __ptext50:
  8998                           	callstack 0
  8999   00216A                     ___fladd:
  9000                           	callstack 17
  9001   00216A  5036               	movf	(___fladd@b+3)^0,w,c
  9002   00216C  0B80               	andlw	128
  9003   00216E  6E3F               	movwf	___fladd@signs^0,c
  9004   002170  5036               	movf	(___fladd@b+3)^0,w,c
  9005   002172  2436               	addwf	(___fladd@b+3)^0,w,c
  9006   002174  6E41               	movwf	___fladd@bexp^0,c
  9007   002176  AE35               	btfss	(___fladd@b+2)^0,7,c
  9008   002178  EFC0  F010         	goto	i2u293_41
  9009   00217C  EFC2  F010         	goto	i2u293_40
  9010   002180                     i2u293_41:
  9011   002180  EFC3  F010         	goto	i2l3670
  9012   002184                     i2u293_40:
  9013   002184  8041               	bsf	___fladd@bexp^0,0,c
  9014   002186                     i2l3670:
  9015   002186  5041               	movf	___fladd@bexp^0,w,c
  9016   002188  B4D8               	btfsc	status,2,c
  9017   00218A  EFC9  F010         	goto	i2u294_41
  9018   00218E  EFCB  F010         	goto	i2u294_40
  9019   002192                     i2u294_41:
  9020   002192  EFE0  F010         	goto	i2l3680
  9021   002196                     i2u294_40:
  9022   002196  2841               	incf	___fladd@bexp^0,w,c
  9023   002198  A4D8               	btfss	status,2,c
  9024   00219A  EFD1  F010         	goto	i2u295_41
  9025   00219E  EFD3  F010         	goto	i2u295_40
  9026   0021A2                     i2u295_41:
  9027   0021A2  EFDB  F010         	goto	i2l3676
  9028   0021A6                     i2u295_40:
  9029   0021A6  0E00               	movlw	0
  9030   0021A8  6E33               	movwf	___fladd@b^0,c
  9031   0021AA  0E00               	movlw	0
  9032   0021AC  6E34               	movwf	(___fladd@b+1)^0,c
  9033   0021AE  0E00               	movlw	0
  9034   0021B0  6E35               	movwf	(___fladd@b+2)^0,c
  9035   0021B2  0E00               	movlw	0
  9036   0021B4  6E36               	movwf	(___fladd@b+3)^0,c
  9037   0021B6                     i2l3676:
  9038   0021B6  8E35               	bsf	(___fladd@b+2)^0,7,c
  9039   0021B8  0E00               	movlw	0
  9040   0021BA  6E36               	movwf	(___fladd@b+3)^0,c
  9041   0021BC  EFE8  F010         	goto	i2l3682
  9042   0021C0                     i2l3680:
  9043   0021C0  0E00               	movlw	0
  9044   0021C2  6E33               	movwf	___fladd@b^0,c
  9045   0021C4  0E00               	movlw	0
  9046   0021C6  6E34               	movwf	(___fladd@b+1)^0,c
  9047   0021C8  0E00               	movlw	0
  9048   0021CA  6E35               	movwf	(___fladd@b+2)^0,c
  9049   0021CC  0E00               	movlw	0
  9050   0021CE  6E36               	movwf	(___fladd@b+3)^0,c
  9051   0021D0                     i2l3682:
  9052   0021D0  503A               	movf	(___fladd@a+3)^0,w,c
  9053   0021D2  0B80               	andlw	128
  9054   0021D4  6E40               	movwf	___fladd@aexp^0,c
  9055   0021D6  503F               	movf	___fladd@signs^0,w,c
  9056   0021D8  1840               	xorwf	___fladd@aexp^0,w,c
  9057   0021DA  B4D8               	btfsc	status,2,c
  9058   0021DC  EFF2  F010         	goto	i2u296_41
  9059   0021E0  EFF4  F010         	goto	i2u296_40
  9060   0021E4                     i2u296_41:
  9061   0021E4  EFF5  F010         	goto	i2l3688
  9062   0021E8                     i2u296_40:
  9063   0021E8  8C3F               	bsf	___fladd@signs^0,6,c
  9064   0021EA                     i2l3688:
  9065   0021EA  503A               	movf	(___fladd@a+3)^0,w,c
  9066   0021EC  243A               	addwf	(___fladd@a+3)^0,w,c
  9067   0021EE  6E40               	movwf	___fladd@aexp^0,c
  9068   0021F0  AE39               	btfss	(___fladd@a+2)^0,7,c
  9069   0021F2  EFFD  F010         	goto	i2u297_41
  9070   0021F6  EFFF  F010         	goto	i2u297_40
  9071   0021FA                     i2u297_41:
  9072   0021FA  EF00  F011         	goto	i2l3694
  9073   0021FE                     i2u297_40:
  9074   0021FE  8040               	bsf	___fladd@aexp^0,0,c
  9075   002200                     i2l3694:
  9076   002200  5040               	movf	___fladd@aexp^0,w,c
  9077   002202  B4D8               	btfsc	status,2,c
  9078   002204  EF06  F011         	goto	i2u298_41
  9079   002208  EF08  F011         	goto	i2u298_40
  9080   00220C                     i2u298_41:
  9081   00220C  EF1D  F011         	goto	i2l3704
  9082   002210                     i2u298_40:
  9083   002210  2840               	incf	___fladd@aexp^0,w,c
  9084   002212  A4D8               	btfss	status,2,c
  9085   002214  EF0E  F011         	goto	i2u299_41
  9086   002218  EF10  F011         	goto	i2u299_40
  9087   00221C                     i2u299_41:
  9088   00221C  EF18  F011         	goto	i2l3700
  9089   002220                     i2u299_40:
  9090   002220  0E00               	movlw	0
  9091   002222  6E37               	movwf	___fladd@a^0,c
  9092   002224  0E00               	movlw	0
  9093   002226  6E38               	movwf	(___fladd@a+1)^0,c
  9094   002228  0E00               	movlw	0
  9095   00222A  6E39               	movwf	(___fladd@a+2)^0,c
  9096   00222C  0E00               	movlw	0
  9097   00222E  6E3A               	movwf	(___fladd@a+3)^0,c
  9098   002230                     i2l3700:
  9099   002230  8E39               	bsf	(___fladd@a+2)^0,7,c
  9100   002232  0E00               	movlw	0
  9101   002234  6E3A               	movwf	(___fladd@a+3)^0,c
  9102   002236  EF25  F011         	goto	i2l3706
  9103   00223A                     i2l3704:
  9104   00223A  0E00               	movlw	0
  9105   00223C  6E37               	movwf	___fladd@a^0,c
  9106   00223E  0E00               	movlw	0
  9107   002240  6E38               	movwf	(___fladd@a+1)^0,c
  9108   002242  0E00               	movlw	0
  9109   002244  6E39               	movwf	(___fladd@a+2)^0,c
  9110   002246  0E00               	movlw	0
  9111   002248  6E3A               	movwf	(___fladd@a+3)^0,c
  9112   00224A                     i2l3706:
  9113   00224A  5041               	movf	___fladd@bexp^0,w,c
  9114   00224C  5C40               	subwf	___fladd@aexp^0,w,c
  9115   00224E  B0D8               	btfsc	status,0,c
  9116   002250  EF2C  F011         	goto	i2u300_41
  9117   002254  EF2E  F011         	goto	i2u300_40
  9118   002258                     i2u300_41:
  9119   002258  EF55  F011         	goto	i2l3742
  9120   00225C                     i2u300_40:
  9121   00225C  AC3F               	btfss	___fladd@signs^0,6,c
  9122   00225E  EF33  F011         	goto	i2u301_41
  9123   002262  EF35  F011         	goto	i2u301_40
  9124   002266                     i2u301_41:
  9125   002266  EF37  F011         	goto	i2l3712
  9126   00226A                     i2u301_40:
  9127   00226A  0E80               	movlw	128
  9128   00226C  1A3F               	xorwf	___fladd@signs^0,f,c
  9129   00226E                     i2l3712:
  9130   00226E  C041  F042         	movff	___fladd@bexp,___fladd@grs
  9131   002272  C040  F041         	movff	___fladd@aexp,___fladd@bexp
  9132   002276  C042  F040         	movff	___fladd@grs,___fladd@aexp
  9133   00227A  C033  F042         	movff	___fladd@b,___fladd@grs
  9134   00227E  C037  F033         	movff	___fladd@a,___fladd@b
  9135   002282  C042  F037         	movff	___fladd@grs,___fladd@a
  9136   002286  C034  F042         	movff	___fladd@b+1,___fladd@grs
  9137   00228A  C038  F034         	movff	___fladd@a+1,___fladd@b+1
  9138   00228E  C042  F038         	movff	___fladd@grs,___fladd@a+1
  9139   002292  C035  F042         	movff	___fladd@b+2,___fladd@grs
  9140   002296  C039  F035         	movff	___fladd@a+2,___fladd@b+2
  9141   00229A  C042  F039         	movff	___fladd@grs,___fladd@a+2
  9142   00229E  C036  F042         	movff	___fladd@b+3,___fladd@grs
  9143   0022A2  C03A  F036         	movff	___fladd@a+3,___fladd@b+3
  9144   0022A6  C042  F03A         	movff	___fladd@grs,___fladd@a+3
  9145   0022AA                     i2l3742:
  9146   0022AA  0E00               	movlw	0
  9147   0022AC  6E42               	movwf	___fladd@grs^0,c
  9148   0022AE  5041               	movf	___fladd@bexp^0,w,c
  9149   0022B0  C040  F03B         	movff	___fladd@aexp,??___fladd
  9150   0022B4  6A3C               	clrf	(??___fladd+1)^0,c
  9151   0022B6  5E3B               	subwf	??___fladd^0,f,c
  9152   0022B8  0E00               	movlw	0
  9153   0022BA  5A3C               	subwfb	(??___fladd+1)^0,f,c
  9154   0022BC  BE3C               	btfsc	(??___fladd+1)^0,7,c
  9155   0022BE  EF6A  F011         	goto	i2u302_41
  9156   0022C2  503C               	movf	(??___fladd+1)^0,w,c
  9157   0022C4  E109               	bnz	i2u302_40
  9158   0022C6  0E1A               	movlw	26
  9159   0022C8  5C3B               	subwf	??___fladd^0,w,c
  9160   0022CA  A0D8               	btfss	status,0,c
  9161   0022CC  EF6A  F011         	goto	i2u302_41
  9162   0022D0  EF6C  F011         	goto	i2u302_40
  9163   0022D4                     i2u302_41:
  9164   0022D4  EFA3  F011         	goto	i2l1083
  9165   0022D8                     i2u302_40:
  9166   0022D8  5033               	movf	___fladd@b^0,w,c
  9167   0022DA  1034               	iorwf	(___fladd@b+1)^0,w,c
  9168   0022DC  1035               	iorwf	(___fladd@b+2)^0,w,c
  9169   0022DE  1036               	iorwf	(___fladd@b+3)^0,w,c
  9170   0022E0  A4D8               	btfss	status,2,c
  9171   0022E2  EF75  F011         	goto	i2u303_41
  9172   0022E6  EF78  F011         	goto	i2u303_40
  9173   0022EA                     i2u303_41:
  9174   0022EA  0E01               	movlw	1
  9175   0022EC  EF79  F011         	goto	i2u304_40
  9176   0022F0                     i2u303_40:
  9177   0022F0  0E00               	movlw	0
  9178   0022F2                     i2u304_40:
  9179   0022F2  6E42               	movwf	___fladd@grs^0,c
  9180   0022F4  0E00               	movlw	0
  9181   0022F6  6E33               	movwf	___fladd@b^0,c
  9182   0022F8  0E00               	movlw	0
  9183   0022FA  6E34               	movwf	(___fladd@b+1)^0,c
  9184   0022FC  0E00               	movlw	0
  9185   0022FE  6E35               	movwf	(___fladd@b+2)^0,c
  9186   002300  0E00               	movlw	0
  9187   002302  6E36               	movwf	(___fladd@b+3)^0,c
  9188   002304  C040  F041         	movff	___fladd@aexp,___fladd@bexp
  9189   002308  EFAC  F011         	goto	i2l1082
  9190   00230C                     i2l1084:
  9191   00230C  A042               	btfss	___fladd@grs^0,0,c
  9192   00230E  EF8B  F011         	goto	i2u305_41
  9193   002312  EF8D  F011         	goto	i2u305_40
  9194   002316                     i2u305_41:
  9195   002316  EF93  F011         	goto	i2l3754
  9196   00231A                     i2u305_40:
  9197   00231A  90D8               	bcf	status,0,c
  9198   00231C  3042               	rrcf	___fladd@grs^0,w,c
  9199   00231E  0901               	iorlw	1
  9200   002320  6E42               	movwf	___fladd@grs^0,c
  9201   002322  EF95  F011         	goto	i2l3756
  9202   002326                     i2l3754:
  9203   002326  90D8               	bcf	status,0,c
  9204   002328  3242               	rrcf	___fladd@grs^0,f,c
  9205   00232A                     i2l3756:
  9206   00232A  A033               	btfss	___fladd@b^0,0,c
  9207   00232C  EF9A  F011         	goto	i2u306_41
  9208   002330  EF9C  F011         	goto	i2u306_40
  9209   002334                     i2u306_41:
  9210   002334  EF9D  F011         	goto	i2l3760
  9211   002338                     i2u306_40:
  9212   002338  8E42               	bsf	___fladd@grs^0,7,c
  9213   00233A                     i2l3760:
  9214   00233A  3436               	rlcf	(___fladd@b+3)^0,w,c
  9215   00233C  3236               	rrcf	(___fladd@b+3)^0,f,c
  9216   00233E  3235               	rrcf	(___fladd@b+2)^0,f,c
  9217   002340  3234               	rrcf	(___fladd@b+1)^0,f,c
  9218   002342  3233               	rrcf	___fladd@b^0,f,c
  9219   002344  2A41               	incf	___fladd@bexp^0,f,c
  9220   002346                     i2l1083:
  9221   002346  5040               	movf	___fladd@aexp^0,w,c
  9222   002348  5C41               	subwf	___fladd@bexp^0,w,c
  9223   00234A  A0D8               	btfss	status,0,c
  9224   00234C  EFAA  F011         	goto	i2u307_41
  9225   002350  EFAC  F011         	goto	i2u307_40
  9226   002354                     i2u307_41:
  9227   002354  EF86  F011         	goto	i2l1084
  9228   002358                     i2u307_40:
  9229   002358                     i2l1082:
  9230   002358  BC3F               	btfsc	___fladd@signs^0,6,c
  9231   00235A  EFB1  F011         	goto	i2u308_41
  9232   00235E  EFB3  F011         	goto	i2u308_40
  9233   002362                     i2u308_41:
  9234   002362  EFF3  F011         	goto	i2l3788
  9235   002366                     i2u308_40:
  9236   002366  5041               	movf	___fladd@bexp^0,w,c
  9237   002368  A4D8               	btfss	status,2,c
  9238   00236A  EFB9  F011         	goto	i2u309_41
  9239   00236E  EFBB  F011         	goto	i2u309_40
  9240   002372                     i2u309_41:
  9241   002372  EFC5  F011         	goto	i2l3770
  9242   002376                     i2u309_40:
  9243   002376  0E00               	movlw	0
  9244   002378  6E33               	movwf	?___fladd^0,c
  9245   00237A  0E00               	movlw	0
  9246   00237C  6E34               	movwf	(?___fladd+1)^0,c
  9247   00237E  0E00               	movlw	0
  9248   002380  6E35               	movwf	(?___fladd+2)^0,c
  9249   002382  0E00               	movlw	0
  9250   002384  6E36               	movwf	(?___fladd+3)^0,c
  9251   002386  EF14  F013         	goto	i2l1091
  9252   00238A                     i2l3770:
  9253   00238A  5037               	movf	___fladd@a^0,w,c
  9254   00238C  2633               	addwf	___fladd@b^0,f,c
  9255   00238E  5038               	movf	(___fladd@a+1)^0,w,c
  9256   002390  2234               	addwfc	(___fladd@b+1)^0,f,c
  9257   002392  5039               	movf	(___fladd@a+2)^0,w,c
  9258   002394  2235               	addwfc	(___fladd@b+2)^0,f,c
  9259   002396  503A               	movf	(___fladd@a+3)^0,w,c
  9260   002398  2236               	addwfc	(___fladd@b+3)^0,f,c
  9261   00239A  A036               	btfss	(___fladd@b+3)^0,0,c
  9262   00239C  EFD2  F011         	goto	i2u310_41
  9263   0023A0  EFD4  F011         	goto	i2u310_40
  9264   0023A4                     i2u310_41:
  9265   0023A4  EF80  F012         	goto	i2l3824
  9266   0023A8                     i2u310_40:
  9267   0023A8  A042               	btfss	___fladd@grs^0,0,c
  9268   0023AA  EFD9  F011         	goto	i2u311_41
  9269   0023AE  EFDB  F011         	goto	i2u311_40
  9270   0023B2                     i2u311_41:
  9271   0023B2  EFE1  F011         	goto	i2l3778
  9272   0023B6                     i2u311_40:
  9273   0023B6  90D8               	bcf	status,0,c
  9274   0023B8  3042               	rrcf	___fladd@grs^0,w,c
  9275   0023BA  0901               	iorlw	1
  9276   0023BC  6E42               	movwf	___fladd@grs^0,c
  9277   0023BE  EFE3  F011         	goto	i2l3780
  9278   0023C2                     i2l3778:
  9279   0023C2  90D8               	bcf	status,0,c
  9280   0023C4  3242               	rrcf	___fladd@grs^0,f,c
  9281   0023C6                     i2l3780:
  9282   0023C6  A033               	btfss	___fladd@b^0,0,c
  9283   0023C8  EFE8  F011         	goto	i2u312_41
  9284   0023CC  EFEA  F011         	goto	i2u312_40
  9285   0023D0                     i2u312_41:
  9286   0023D0  EFEB  F011         	goto	i2l3784
  9287   0023D4                     i2u312_40:
  9288   0023D4  8E42               	bsf	___fladd@grs^0,7,c
  9289   0023D6                     i2l3784:
  9290   0023D6  3436               	rlcf	(___fladd@b+3)^0,w,c
  9291   0023D8  3236               	rrcf	(___fladd@b+3)^0,f,c
  9292   0023DA  3235               	rrcf	(___fladd@b+2)^0,f,c
  9293   0023DC  3234               	rrcf	(___fladd@b+1)^0,f,c
  9294   0023DE  3233               	rrcf	___fladd@b^0,f,c
  9295   0023E0  2A41               	incf	___fladd@bexp^0,f,c
  9296   0023E2  EF80  F012         	goto	i2l3824
  9297   0023E6                     i2l3788:
  9298   0023E6  5037               	movf	___fladd@a^0,w,c
  9299   0023E8  5C33               	subwf	___fladd@b^0,w,c
  9300   0023EA  5038               	movf	(___fladd@a+1)^0,w,c
  9301   0023EC  5834               	subwfb	(___fladd@b+1)^0,w,c
  9302   0023EE  5039               	movf	(___fladd@a+2)^0,w,c
  9303   0023F0  5835               	subwfb	(___fladd@b+2)^0,w,c
  9304   0023F2  5036               	movf	(___fladd@b+3)^0,w,c
  9305   0023F4  0A80               	xorlw	128
  9306   0023F6  6E3B               	movwf	??___fladd^0,c
  9307   0023F8  503A               	movf	(___fladd@a+3)^0,w,c
  9308   0023FA  0A80               	xorlw	128
  9309   0023FC  583B               	subwfb	??___fladd^0,w,c
  9310   0023FE  B0D8               	btfsc	status,0,c
  9311   002400  EF04  F012         	goto	i2u313_41
  9312   002404  EF06  F012         	goto	i2u313_40
  9313   002408                     i2u313_41:
  9314   002408  EF31  F012         	goto	i2l3798
  9315   00240C                     i2u313_40:
  9316   00240C  5033               	movf	___fladd@b^0,w,c
  9317   00240E  5C37               	subwf	___fladd@a^0,w,c
  9318   002410  6E3B               	movwf	??___fladd^0,c
  9319   002412  5034               	movf	(___fladd@b+1)^0,w,c
  9320   002414  5838               	subwfb	(___fladd@a+1)^0,w,c
  9321   002416  6E3C               	movwf	(??___fladd+1)^0,c
  9322   002418  5035               	movf	(___fladd@b+2)^0,w,c
  9323   00241A  5839               	subwfb	(___fladd@a+2)^0,w,c
  9324   00241C  6E3D               	movwf	(??___fladd+2)^0,c
  9325   00241E  5036               	movf	(___fladd@b+3)^0,w,c
  9326   002420  583A               	subwfb	(___fladd@a+3)^0,w,c
  9327   002422  6E3E               	movwf	(??___fladd+3)^0,c
  9328   002424  0EFF               	movlw	255
  9329   002426  243B               	addwf	??___fladd^0,w,c
  9330   002428  6E33               	movwf	___fladd@b^0,c
  9331   00242A  0EFF               	movlw	255
  9332   00242C  203C               	addwfc	(??___fladd+1)^0,w,c
  9333   00242E  6E34               	movwf	(___fladd@b+1)^0,c
  9334   002430  0EFF               	movlw	255
  9335   002432  203D               	addwfc	(??___fladd+2)^0,w,c
  9336   002434  6E35               	movwf	(___fladd@b+2)^0,c
  9337   002436  0EFF               	movlw	255
  9338   002438  203E               	addwfc	(??___fladd+3)^0,w,c
  9339   00243A  6E36               	movwf	(___fladd@b+3)^0,c
  9340   00243C  0E80               	movlw	128
  9341   00243E  1A3F               	xorwf	___fladd@signs^0,f,c
  9342   002440  6C42               	negf	___fladd@grs^0,c
  9343   002442  5042               	movf	___fladd@grs^0,w,c
  9344   002444  A4D8               	btfss	status,2,c
  9345   002446  EF27  F012         	goto	i2u314_41
  9346   00244A  EF29  F012         	goto	i2u314_40
  9347   00244E                     i2u314_41:
  9348   00244E  EF39  F012         	goto	i2l1099
  9349   002452                     i2u314_40:
  9350   002452  0E01               	movlw	1
  9351   002454  2633               	addwf	___fladd@b^0,f,c
  9352   002456  0E00               	movlw	0
  9353   002458  2234               	addwfc	(___fladd@b+1)^0,f,c
  9354   00245A  2235               	addwfc	(___fladd@b+2)^0,f,c
  9355   00245C  2236               	addwfc	(___fladd@b+3)^0,f,c
  9356   00245E  EF39  F012         	goto	i2l1099
  9357   002462                     i2l3798:
  9358   002462  5037               	movf	___fladd@a^0,w,c
  9359   002464  5E33               	subwf	___fladd@b^0,f,c
  9360   002466  5038               	movf	(___fladd@a+1)^0,w,c
  9361   002468  5A34               	subwfb	(___fladd@b+1)^0,f,c
  9362   00246A  5039               	movf	(___fladd@a+2)^0,w,c
  9363   00246C  5A35               	subwfb	(___fladd@b+2)^0,f,c
  9364   00246E  503A               	movf	(___fladd@a+3)^0,w,c
  9365   002470  5A36               	subwfb	(___fladd@b+3)^0,f,c
  9366   002472                     i2l1099:
  9367   002472  5033               	movf	___fladd@b^0,w,c
  9368   002474  1034               	iorwf	(___fladd@b+1)^0,w,c
  9369   002476  1035               	iorwf	(___fladd@b+2)^0,w,c
  9370   002478  1036               	iorwf	(___fladd@b+3)^0,w,c
  9371   00247A  A4D8               	btfss	status,2,c
  9372   00247C  EF42  F012         	goto	i2u315_41
  9373   002480  EF44  F012         	goto	i2u315_40
  9374   002484                     i2u315_41:
  9375   002484  EF79  F012         	goto	i2l3822
  9376   002488                     i2u315_40:
  9377   002488  5042               	movf	___fladd@grs^0,w,c
  9378   00248A  A4D8               	btfss	status,2,c
  9379   00248C  EF4A  F012         	goto	i2u316_41
  9380   002490  EF4C  F012         	goto	i2u316_40
  9381   002494                     i2u316_41:
  9382   002494  EF79  F012         	goto	i2l3822
  9383   002498                     i2u316_40:
  9384   002498  0E00               	movlw	0
  9385   00249A  6E33               	movwf	?___fladd^0,c
  9386   00249C  0E00               	movlw	0
  9387   00249E  6E34               	movwf	(?___fladd+1)^0,c
  9388   0024A0  0E00               	movlw	0
  9389   0024A2  6E35               	movwf	(?___fladd+2)^0,c
  9390   0024A4  0E00               	movlw	0
  9391   0024A6  6E36               	movwf	(?___fladd+3)^0,c
  9392   0024A8  EF14  F013         	goto	i2l1091
  9393   0024AC                     i2l3806:
  9394   0024AC  90D8               	bcf	status,0,c
  9395   0024AE  3633               	rlcf	___fladd@b^0,f,c
  9396   0024B0  3634               	rlcf	(___fladd@b+1)^0,f,c
  9397   0024B2  3635               	rlcf	(___fladd@b+2)^0,f,c
  9398   0024B4  3636               	rlcf	(___fladd@b+3)^0,f,c
  9399   0024B6  AE42               	btfss	___fladd@grs^0,7,c
  9400   0024B8  EF60  F012         	goto	i2u317_41
  9401   0024BC  EF62  F012         	goto	i2u317_40
  9402   0024C0                     i2u317_41:
  9403   0024C0  EF63  F012         	goto	i2l3812
  9404   0024C4                     i2u317_40:
  9405   0024C4  8033               	bsf	___fladd@b^0,0,c
  9406   0024C6                     i2l3812:
  9407   0024C6  A042               	btfss	___fladd@grs^0,0,c
  9408   0024C8  EF68  F012         	goto	i2u318_41
  9409   0024CC  EF6A  F012         	goto	i2u318_40
  9410   0024D0                     i2u318_41:
  9411   0024D0  EF6E  F012         	goto	i2l3816
  9412   0024D4                     i2u318_40:
  9413   0024D4  80D8               	bsf	status,0,c
  9414   0024D6  3642               	rlcf	___fladd@grs^0,f,c
  9415   0024D8  EF70  F012         	goto	i2l3818
  9416   0024DC                     i2l3816:
  9417   0024DC  90D8               	bcf	status,0,c
  9418   0024DE  3642               	rlcf	___fladd@grs^0,f,c
  9419   0024E0                     i2l3818:
  9420   0024E0  5041               	movf	___fladd@bexp^0,w,c
  9421   0024E2  B4D8               	btfsc	status,2,c
  9422   0024E4  EF76  F012         	goto	i2u319_41
  9423   0024E8  EF78  F012         	goto	i2u319_40
  9424   0024EC                     i2u319_41:
  9425   0024EC  EF79  F012         	goto	i2l3822
  9426   0024F0                     i2u319_40:
  9427   0024F0  0641               	decf	___fladd@bexp^0,f,c
  9428   0024F2                     i2l3822:
  9429   0024F2  AE35               	btfss	(___fladd@b+2)^0,7,c
  9430   0024F4  EF7E  F012         	goto	i2u320_41
  9431   0024F8  EF80  F012         	goto	i2u320_40
  9432   0024FC                     i2u320_41:
  9433   0024FC  EF56  F012         	goto	i2l3806
  9434   002500                     i2u320_40:
  9435   002500                     i2l3824:
  9436   002500  0E00               	movlw	0
  9437   002502  6E40               	movwf	___fladd@aexp^0,c
  9438   002504  AE42               	btfss	___fladd@grs^0,7,c
  9439   002506  EF87  F012         	goto	i2u321_41
  9440   00250A  EF89  F012         	goto	i2u321_40
  9441   00250E                     i2u321_41:
  9442   00250E  EFA1  F012         	goto	i2l1108
  9443   002512                     i2u321_40:
  9444   002512  C042  F03B         	movff	___fladd@grs,??___fladd
  9445   002516  0E7F               	movlw	127
  9446   002518  163B               	andwf	??___fladd^0,f,c
  9447   00251A  B4D8               	btfsc	status,2,c
  9448   00251C  EF92  F012         	goto	i2u322_41
  9449   002520  EF94  F012         	goto	i2u322_40
  9450   002524                     i2u322_41:
  9451   002524  EF98  F012         	goto	i2l1109
  9452   002528                     i2u322_40:
  9453   002528                     i2l3830:
  9454   002528  0E01               	movlw	1
  9455   00252A  6E40               	movwf	___fladd@aexp^0,c
  9456   00252C  EFA1  F012         	goto	i2l1108
  9457   002530                     i2l1109:
  9458   002530  A033               	btfss	___fladd@b^0,0,c
  9459   002532  EF9D  F012         	goto	i2u323_41
  9460   002536  EF9F  F012         	goto	i2u323_40
  9461   00253A                     i2u323_41:
  9462   00253A  EFA1  F012         	goto	i2l1108
  9463   00253E                     i2u323_40:
  9464   00253E  EF94  F012         	goto	i2l3830
  9465   002542                     i2l1108:
  9466   002542  5040               	movf	___fladd@aexp^0,w,c
  9467   002544  B4D8               	btfsc	status,2,c
  9468   002546  EFA7  F012         	goto	i2u324_41
  9469   00254A  EFA9  F012         	goto	i2u324_40
  9470   00254E                     i2u324_41:
  9471   00254E  EFD4  F012         	goto	i2l3842
  9472   002552                     i2u324_40:
  9473   002552  0E01               	movlw	1
  9474   002554  2633               	addwf	___fladd@b^0,f,c
  9475   002556  0E00               	movlw	0
  9476   002558  2234               	addwfc	(___fladd@b+1)^0,f,c
  9477   00255A  2235               	addwfc	(___fladd@b+2)^0,f,c
  9478   00255C  2236               	addwfc	(___fladd@b+3)^0,f,c
  9479   00255E  A036               	btfss	(___fladd@b+3)^0,0,c
  9480   002560  EFB4  F012         	goto	i2u325_41
  9481   002564  EFB6  F012         	goto	i2u325_40
  9482   002568                     i2u325_41:
  9483   002568  EFD4  F012         	goto	i2l3842
  9484   00256C                     i2u325_40:
  9485   00256C  C033  F03B         	movff	___fladd@b,??___fladd
  9486   002570  C034  F03C         	movff	___fladd@b+1,??___fladd+1
  9487   002574  C035  F03D         	movff	___fladd@b+2,??___fladd+2
  9488   002578  C036  F03E         	movff	___fladd@b+3,??___fladd+3
  9489   00257C  343E               	rlcf	(??___fladd+3)^0,w,c
  9490   00257E  323E               	rrcf	(??___fladd+3)^0,f,c
  9491   002580  323D               	rrcf	(??___fladd+2)^0,f,c
  9492   002582  323C               	rrcf	(??___fladd+1)^0,f,c
  9493   002584  323B               	rrcf	??___fladd^0,f,c
  9494   002586  C03B  F033         	movff	??___fladd,___fladd@b
  9495   00258A  C03C  F034         	movff	??___fladd+1,___fladd@b+1
  9496   00258E  C03D  F035         	movff	??___fladd+2,___fladd@b+2
  9497   002592  C03E  F036         	movff	??___fladd+3,___fladd@b+3
  9498   002596  2841               	incf	___fladd@bexp^0,w,c
  9499   002598  B4D8               	btfsc	status,2,c
  9500   00259A  EFD1  F012         	goto	i2u326_41
  9501   00259E  EFD3  F012         	goto	i2u326_40
  9502   0025A2                     i2u326_41:
  9503   0025A2  EFD4  F012         	goto	i2l3842
  9504   0025A6                     i2u326_40:
  9505   0025A6  2A41               	incf	___fladd@bexp^0,f,c
  9506   0025A8                     i2l3842:
  9507   0025A8  2841               	incf	___fladd@bexp^0,w,c
  9508   0025AA  B4D8               	btfsc	status,2,c
  9509   0025AC  EFDA  F012         	goto	i2u327_41
  9510   0025B0  EFDC  F012         	goto	i2u327_40
  9511   0025B4                     i2u327_41:
  9512   0025B4  EFE4  F012         	goto	i2l3846
  9513   0025B8                     i2u327_40:
  9514   0025B8  5041               	movf	___fladd@bexp^0,w,c
  9515   0025BA  A4D8               	btfss	status,2,c
  9516   0025BC  EFE2  F012         	goto	i2u328_41
  9517   0025C0  EFE4  F012         	goto	i2u328_40
  9518   0025C4                     i2u328_41:
  9519   0025C4  EFF6  F012         	goto	i2l3850
  9520   0025C8                     i2u328_40:
  9521   0025C8                     i2l3846:
  9522   0025C8  0E00               	movlw	0
  9523   0025CA  6E33               	movwf	___fladd@b^0,c
  9524   0025CC  0E00               	movlw	0
  9525   0025CE  6E34               	movwf	(___fladd@b+1)^0,c
  9526   0025D0  0E00               	movlw	0
  9527   0025D2  6E35               	movwf	(___fladd@b+2)^0,c
  9528   0025D4  0E00               	movlw	0
  9529   0025D6  6E36               	movwf	(___fladd@b+3)^0,c
  9530   0025D8  5041               	movf	___fladd@bexp^0,w,c
  9531   0025DA  A4D8               	btfss	status,2,c
  9532   0025DC  EFF2  F012         	goto	i2u329_41
  9533   0025E0  EFF4  F012         	goto	i2u329_40
  9534   0025E4                     i2u329_41:
  9535   0025E4  EFF6  F012         	goto	i2l3850
  9536   0025E8                     i2u329_40:
  9537   0025E8  0E00               	movlw	0
  9538   0025EA  6E3F               	movwf	___fladd@signs^0,c
  9539   0025EC                     i2l3850:
  9540   0025EC  A041               	btfss	___fladd@bexp^0,0,c
  9541   0025EE  EFFB  F012         	goto	i2u330_41
  9542   0025F2  EFFD  F012         	goto	i2u330_40
  9543   0025F6                     i2u330_41:
  9544   0025F6  EF00  F013         	goto	i2l3854
  9545   0025FA                     i2u330_40:
  9546   0025FA  8E35               	bsf	(___fladd@b+2)^0,7,c
  9547   0025FC  EF01  F013         	goto	i2l3856
  9548   002600                     i2l3854:
  9549   002600  9E35               	bcf	(___fladd@b+2)^0,7,c
  9550   002602                     i2l3856:
  9551   002602  90D8               	bcf	status,0,c
  9552   002604  3041               	rrcf	___fladd@bexp^0,w,c
  9553   002606  6E36               	movwf	(___fladd@b+3)^0,c
  9554   002608  AE3F               	btfss	___fladd@signs^0,7,c
  9555   00260A  EF09  F013         	goto	i2u331_41
  9556   00260E  EF0B  F013         	goto	i2u331_40
  9557   002612                     i2u331_41:
  9558   002612  EF0C  F013         	goto	i2l3862
  9559   002616                     i2u331_40:
  9560   002616  8E36               	bsf	(___fladd@b+3)^0,7,c
  9561   002618                     i2l3862:
  9562   002618  C033  F033         	movff	___fladd@b,?___fladd
  9563   00261C  C034  F034         	movff	___fladd@b+1,?___fladd+1
  9564   002620  C035  F035         	movff	___fladd@b+2,?___fladd+2
  9565   002624  C036  F036         	movff	___fladd@b+3,?___fladd+3
  9566   002628                     i2l1091:
  9567   002628  0012               	return		;funcret
  9568   00262A                     __end_of___fladd:
  9569                           	callstack 0
  9570                           
  9571 ;; *************** function ___flmul *****************
  9572 ;; Defined at:
  9573 ;;		line 8 in file "C:\Program Files\Microchip\xc8\v2.41\pic\sources\c99\common\sprcmul.c"
  9574 ;; Parameters:    Size  Location     Type
  9575 ;;  b               4    0[COMRAM] unsigned char 
  9576 ;;  a               4    4[COMRAM] unsigned char 
  9577 ;; Auto vars:     Size  Location     Type
  9578 ;;  prod            4   19[COMRAM] struct .
  9579 ;;  grs             4   13[COMRAM] unsigned long 
  9580 ;;  temp            2   23[COMRAM] struct .
  9581 ;;  bexp            1   18[COMRAM] unsigned char 
  9582 ;;  aexp            1   17[COMRAM] unsigned char 
  9583 ;;  sign            1   12[COMRAM] unsigned char 
  9584 ;; Return value:  Size  Location     Type
  9585 ;;                  4    0[COMRAM] unsigned char 
  9586 ;; Registers used:
  9587 ;;		wreg, status,2, status,0, prodl, prodh
  9588 ;; Tracked objects:
  9589 ;;		On entry : 0/0
  9590 ;;		On exit  : 0/0
  9591 ;;		Unchanged: 0/0
  9592 ;; Data sizes:     COMRAM   BANK0   BANK1   BANK2   BANK3   BANK4   BANK5   BANK6   BANK7   BANK8   BANK9  BANK10  BANK1
      +1  BANK12  BANK13  BANK14  BANK15
  9593 ;;      Params:         8       0       0       0       0       0       0       0       0       0       0       0       
      +0       0       0       0       0
  9594 ;;      Locals:        13       0       0       0       0       0       0       0       0       0       0       0       
      +0       0       0       0       0
  9595 ;;      Temps:          4       0       0       0       0       0       0       0       0       0       0       0       
      +0       0       0       0       0
  9596 ;;      Totals:        25       0       0       0       0       0       0       0       0       0       0       0       
      +0       0       0       0       0
  9597 ;;Total ram usage:       25 bytes
  9598 ;; Hardware stack levels used: 1
  9599 ;; This function calls:
  9600 ;;		Nothing
  9601 ;; This function is called by:
  9602 ;;		_logf
  9603 ;;		_efgtoa
  9604 ;; This function uses a non-reentrant model
  9605 ;;
  9606                           
  9607                           	psect	text51
  9608   00262A                     __ptext51:
  9609                           	callstack 0
  9610   00262A                     ___flmul:
  9611                           	callstack 18
  9612   00262A  5004               	movf	(___flmul@b+3)^0,w,c
  9613   00262C  0B80               	andlw	128
  9614   00262E  6E0D               	movwf	___flmul@sign^0,c
  9615   002630  5004               	movf	(___flmul@b+3)^0,w,c
  9616   002632  2404               	addwf	(___flmul@b+3)^0,w,c
  9617   002634  6E13               	movwf	___flmul@bexp^0,c
  9618   002636  AE03               	btfss	(___flmul@b+2)^0,7,c
  9619   002638  EF20  F013         	goto	i2u358_41
  9620   00263C  EF22  F013         	goto	i2u358_40
  9621   002640                     i2u358_41:
  9622   002640  EF23  F013         	goto	i2l4040
  9623   002644                     i2u358_40:
  9624   002644  8013               	bsf	___flmul@bexp^0,0,c
  9625   002646                     i2l4040:
  9626   002646  5013               	movf	___flmul@bexp^0,w,c
  9627   002648  B4D8               	btfsc	status,2,c
  9628   00264A  EF29  F013         	goto	i2u359_41
  9629   00264E  EF2B  F013         	goto	i2u359_40
  9630   002652                     i2u359_41:
  9631   002652  EF3E  F013         	goto	i2l4048
  9632   002656                     i2u359_40:
  9633   002656  2813               	incf	___flmul@bexp^0,w,c
  9634   002658  A4D8               	btfss	status,2,c
  9635   00265A  EF31  F013         	goto	i2u360_41
  9636   00265E  EF33  F013         	goto	i2u360_40
  9637   002662                     i2u360_41:
  9638   002662  EF3B  F013         	goto	i2l4046
  9639   002666                     i2u360_40:
  9640   002666  0E00               	movlw	0
  9641   002668  6E01               	movwf	___flmul@b^0,c
  9642   00266A  0E00               	movlw	0
  9643   00266C  6E02               	movwf	(___flmul@b+1)^0,c
  9644   00266E  0E00               	movlw	0
  9645   002670  6E03               	movwf	(___flmul@b+2)^0,c
  9646   002672  0E00               	movlw	0
  9647   002674  6E04               	movwf	(___flmul@b+3)^0,c
  9648   002676                     i2l4046:
  9649   002676  8E03               	bsf	(___flmul@b+2)^0,7,c
  9650   002678  EF46  F013         	goto	i2l4050
  9651   00267C                     i2l4048:
  9652   00267C  0E00               	movlw	0
  9653   00267E  6E01               	movwf	___flmul@b^0,c
  9654   002680  0E00               	movlw	0
  9655   002682  6E02               	movwf	(___flmul@b+1)^0,c
  9656   002684  0E00               	movlw	0
  9657   002686  6E03               	movwf	(___flmul@b+2)^0,c
  9658   002688  0E00               	movlw	0
  9659   00268A  6E04               	movwf	(___flmul@b+3)^0,c
  9660   00268C                     i2l4050:
  9661   00268C  5008               	movf	(___flmul@a+3)^0,w,c
  9662   00268E  0B80               	andlw	128
  9663   002690  1A0D               	xorwf	___flmul@sign^0,f,c
  9664   002692  5008               	movf	(___flmul@a+3)^0,w,c
  9665   002694  2408               	addwf	(___flmul@a+3)^0,w,c
  9666   002696  6E12               	movwf	___flmul@aexp^0,c
  9667   002698  AE07               	btfss	(___flmul@a+2)^0,7,c
  9668   00269A  EF51  F013         	goto	i2u361_41
  9669   00269E  EF53  F013         	goto	i2u361_40
  9670   0026A2                     i2u361_41:
  9671   0026A2  EF54  F013         	goto	i2l4058
  9672   0026A6                     i2u361_40:
  9673   0026A6  8012               	bsf	___flmul@aexp^0,0,c
  9674   0026A8                     i2l4058:
  9675   0026A8  5012               	movf	___flmul@aexp^0,w,c
  9676   0026AA  B4D8               	btfsc	status,2,c
  9677   0026AC  EF5A  F013         	goto	i2u362_41
  9678   0026B0  EF5C  F013         	goto	i2u362_40
  9679   0026B4                     i2u362_41:
  9680   0026B4  EF6F  F013         	goto	i2l4066
  9681   0026B8                     i2u362_40:
  9682   0026B8  2812               	incf	___flmul@aexp^0,w,c
  9683   0026BA  A4D8               	btfss	status,2,c
  9684   0026BC  EF62  F013         	goto	i2u363_41
  9685   0026C0  EF64  F013         	goto	i2u363_40
  9686   0026C4                     i2u363_41:
  9687   0026C4  EF6C  F013         	goto	i2l4064
  9688   0026C8                     i2u363_40:
  9689   0026C8  0E00               	movlw	0
  9690   0026CA  6E05               	movwf	___flmul@a^0,c
  9691   0026CC  0E00               	movlw	0
  9692   0026CE  6E06               	movwf	(___flmul@a+1)^0,c
  9693   0026D0  0E00               	movlw	0
  9694   0026D2  6E07               	movwf	(___flmul@a+2)^0,c
  9695   0026D4  0E00               	movlw	0
  9696   0026D6  6E08               	movwf	(___flmul@a+3)^0,c
  9697   0026D8                     i2l4064:
  9698   0026D8  8E07               	bsf	(___flmul@a+2)^0,7,c
  9699   0026DA  EF77  F013         	goto	i2l1168
  9700   0026DE                     i2l4066:
  9701   0026DE  0E00               	movlw	0
  9702   0026E0  6E05               	movwf	___flmul@a^0,c
  9703   0026E2  0E00               	movlw	0
  9704   0026E4  6E06               	movwf	(___flmul@a+1)^0,c
  9705   0026E6  0E00               	movlw	0
  9706   0026E8  6E07               	movwf	(___flmul@a+2)^0,c
  9707   0026EA  0E00               	movlw	0
  9708   0026EC  6E08               	movwf	(___flmul@a+3)^0,c
  9709   0026EE                     i2l1168:
  9710   0026EE  5012               	movf	___flmul@aexp^0,w,c
  9711   0026F0  B4D8               	btfsc	status,2,c
  9712   0026F2  EF7D  F013         	goto	i2u364_41
  9713   0026F6  EF7F  F013         	goto	i2u364_40
  9714   0026FA                     i2u364_41:
  9715   0026FA  EF87  F013         	goto	i2l4070
  9716   0026FE                     i2u364_40:
  9717   0026FE  5013               	movf	___flmul@bexp^0,w,c
  9718   002700  A4D8               	btfss	status,2,c
  9719   002702  EF85  F013         	goto	i2u365_41
  9720   002706  EF87  F013         	goto	i2u365_40
  9721   00270A                     i2u365_41:
  9722   00270A  EF91  F013         	goto	i2l4074
  9723   00270E                     i2u365_40:
  9724   00270E                     i2l4070:
  9725   00270E  0E00               	movlw	0
  9726   002710  6E01               	movwf	?___flmul^0,c
  9727   002712  0E00               	movlw	0
  9728   002714  6E02               	movwf	(?___flmul+1)^0,c
  9729   002716  0E00               	movlw	0
  9730   002718  6E03               	movwf	(?___flmul+2)^0,c
  9731   00271A  0E00               	movlw	0
  9732   00271C  6E04               	movwf	(?___flmul+3)^0,c
  9733   00271E  EF29  F015         	goto	i2l1172
  9734   002722                     i2l4074:
  9735   002722  5007               	movf	(___flmul@a+2)^0,w,c
  9736   002724  0201               	mulwf	___flmul@b^0,c
  9737   002726  CFF3 F018          	movff	prodl,___flmul@temp
  9738   00272A  CFF4 F019          	movff	prodh,___flmul@temp+1
  9739   00272E  5018               	movf	___flmul@temp^0,w,c
  9740   002730  6E0E               	movwf	___flmul@grs^0,c
  9741   002732  6A0F               	clrf	(___flmul@grs+1)^0,c
  9742   002734  6A10               	clrf	(___flmul@grs+2)^0,c
  9743   002736  6A11               	clrf	(___flmul@grs+3)^0,c
  9744   002738  5019               	movf	(___flmul@temp+1)^0,w,c
  9745   00273A  6E14               	movwf	___flmul@prod^0,c
  9746   00273C  6A15               	clrf	(___flmul@prod+1)^0,c
  9747   00273E  6A16               	clrf	(___flmul@prod+2)^0,c
  9748   002740  6A17               	clrf	(___flmul@prod+3)^0,c
  9749   002742  5006               	movf	(___flmul@a+1)^0,w,c
  9750   002744  0202               	mulwf	(___flmul@b+1)^0,c
  9751   002746  CFF3 F018          	movff	prodl,___flmul@temp
  9752   00274A  CFF4 F019          	movff	prodh,___flmul@temp+1
  9753   00274E  5018               	movf	___flmul@temp^0,w,c
  9754   002750  260E               	addwf	___flmul@grs^0,f,c
  9755   002752  0E00               	movlw	0
  9756   002754  220F               	addwfc	(___flmul@grs+1)^0,f,c
  9757   002756  2210               	addwfc	(___flmul@grs+2)^0,f,c
  9758   002758  2211               	addwfc	(___flmul@grs+3)^0,f,c
  9759   00275A  5019               	movf	(___flmul@temp+1)^0,w,c
  9760   00275C  2614               	addwf	___flmul@prod^0,f,c
  9761   00275E  0E00               	movlw	0
  9762   002760  2215               	addwfc	(___flmul@prod+1)^0,f,c
  9763   002762  2216               	addwfc	(___flmul@prod+2)^0,f,c
  9764   002764  2217               	addwfc	(___flmul@prod+3)^0,f,c
  9765   002766  5005               	movf	___flmul@a^0,w,c
  9766   002768  0203               	mulwf	(___flmul@b+2)^0,c
  9767   00276A  CFF3 F018          	movff	prodl,___flmul@temp
  9768   00276E  CFF4 F019          	movff	prodh,___flmul@temp+1
  9769   002772  5018               	movf	___flmul@temp^0,w,c
  9770   002774  260E               	addwf	___flmul@grs^0,f,c
  9771   002776  0E00               	movlw	0
  9772   002778  220F               	addwfc	(___flmul@grs+1)^0,f,c
  9773   00277A  2210               	addwfc	(___flmul@grs+2)^0,f,c
  9774   00277C  2211               	addwfc	(___flmul@grs+3)^0,f,c
  9775   00277E  5019               	movf	(___flmul@temp+1)^0,w,c
  9776   002780  2614               	addwf	___flmul@prod^0,f,c
  9777   002782  0E00               	movlw	0
  9778   002784  2215               	addwfc	(___flmul@prod+1)^0,f,c
  9779   002786  2216               	addwfc	(___flmul@prod+2)^0,f,c
  9780   002788  2217               	addwfc	(___flmul@prod+3)^0,f,c
  9781   00278A  C010  F011         	movff	___flmul@grs+2,___flmul@grs+3
  9782   00278E  C00F  F010         	movff	___flmul@grs+1,___flmul@grs+2
  9783   002792  C00E  F00F         	movff	___flmul@grs,___flmul@grs+1
  9784   002796  6A0E               	clrf	___flmul@grs^0,c
  9785   002798  5005               	movf	___flmul@a^0,w,c
  9786   00279A  0202               	mulwf	(___flmul@b+1)^0,c
  9787   00279C  CFF3 F018          	movff	prodl,___flmul@temp
  9788   0027A0  CFF4 F019          	movff	prodh,___flmul@temp+1
  9789   0027A4  5018               	movf	___flmul@temp^0,w,c
  9790   0027A6  260E               	addwf	___flmul@grs^0,f,c
  9791   0027A8  5019               	movf	(___flmul@temp+1)^0,w,c
  9792   0027AA  220F               	addwfc	(___flmul@grs+1)^0,f,c
  9793   0027AC  0E00               	movlw	0
  9794   0027AE  2210               	addwfc	(___flmul@grs+2)^0,f,c
  9795   0027B0  0E00               	movlw	0
  9796   0027B2  2211               	addwfc	(___flmul@grs+3)^0,f,c
  9797   0027B4  5006               	movf	(___flmul@a+1)^0,w,c
  9798   0027B6  0201               	mulwf	___flmul@b^0,c
  9799   0027B8  CFF3 F018          	movff	prodl,___flmul@temp
  9800   0027BC  CFF4 F019          	movff	prodh,___flmul@temp+1
  9801   0027C0  5018               	movf	___flmul@temp^0,w,c
  9802   0027C2  260E               	addwf	___flmul@grs^0,f,c
  9803   0027C4  5019               	movf	(___flmul@temp+1)^0,w,c
  9804   0027C6  220F               	addwfc	(___flmul@grs+1)^0,f,c
  9805   0027C8  0E00               	movlw	0
  9806   0027CA  2210               	addwfc	(___flmul@grs+2)^0,f,c
  9807   0027CC  0E00               	movlw	0
  9808   0027CE  2211               	addwfc	(___flmul@grs+3)^0,f,c
  9809   0027D0  C010  F011         	movff	___flmul@grs+2,___flmul@grs+3
  9810   0027D4  C00F  F010         	movff	___flmul@grs+1,___flmul@grs+2
  9811   0027D8  C00E  F00F         	movff	___flmul@grs,___flmul@grs+1
  9812   0027DC  6A0E               	clrf	___flmul@grs^0,c
  9813   0027DE  5005               	movf	___flmul@a^0,w,c
  9814   0027E0  0201               	mulwf	___flmul@b^0,c
  9815   0027E2  CFF3 F018          	movff	prodl,___flmul@temp
  9816   0027E6  CFF4 F019          	movff	prodh,___flmul@temp+1
  9817   0027EA  5018               	movf	___flmul@temp^0,w,c
  9818   0027EC  260E               	addwf	___flmul@grs^0,f,c
  9819   0027EE  5019               	movf	(___flmul@temp+1)^0,w,c
  9820   0027F0  220F               	addwfc	(___flmul@grs+1)^0,f,c
  9821   0027F2  0E00               	movlw	0
  9822   0027F4  2210               	addwfc	(___flmul@grs+2)^0,f,c
  9823   0027F6  0E00               	movlw	0
  9824   0027F8  2211               	addwfc	(___flmul@grs+3)^0,f,c
  9825   0027FA  5007               	movf	(___flmul@a+2)^0,w,c
  9826   0027FC  0202               	mulwf	(___flmul@b+1)^0,c
  9827   0027FE  CFF3 F018          	movff	prodl,___flmul@temp
  9828   002802  CFF4 F019          	movff	prodh,___flmul@temp+1
  9829   002806  5018               	movf	___flmul@temp^0,w,c
  9830   002808  2614               	addwf	___flmul@prod^0,f,c
  9831   00280A  5019               	movf	(___flmul@temp+1)^0,w,c
  9832   00280C  2215               	addwfc	(___flmul@prod+1)^0,f,c
  9833   00280E  0E00               	movlw	0
  9834   002810  2216               	addwfc	(___flmul@prod+2)^0,f,c
  9835   002812  0E00               	movlw	0
  9836   002814  2217               	addwfc	(___flmul@prod+3)^0,f,c
  9837   002816  5006               	movf	(___flmul@a+1)^0,w,c
  9838   002818  0203               	mulwf	(___flmul@b+2)^0,c
  9839   00281A  CFF3 F018          	movff	prodl,___flmul@temp
  9840   00281E  CFF4 F019          	movff	prodh,___flmul@temp+1
  9841   002822  5018               	movf	___flmul@temp^0,w,c
  9842   002824  2614               	addwf	___flmul@prod^0,f,c
  9843   002826  5019               	movf	(___flmul@temp+1)^0,w,c
  9844   002828  2215               	addwfc	(___flmul@prod+1)^0,f,c
  9845   00282A  0E00               	movlw	0
  9846   00282C  2216               	addwfc	(___flmul@prod+2)^0,f,c
  9847   00282E  0E00               	movlw	0
  9848   002830  2217               	addwfc	(___flmul@prod+3)^0,f,c
  9849   002832  5007               	movf	(___flmul@a+2)^0,w,c
  9850   002834  0203               	mulwf	(___flmul@b+2)^0,c
  9851   002836  CFF3 F018          	movff	prodl,___flmul@temp
  9852   00283A  CFF4 F019          	movff	prodh,___flmul@temp+1
  9853   00283E  5018               	movf	___flmul@temp^0,w,c
  9854   002840  6E09               	movwf	??___flmul^0,c
  9855   002842  5019               	movf	(___flmul@temp+1)^0,w,c
  9856   002844  6E0A               	movwf	(??___flmul+1)^0,c
  9857   002846  6A0B               	clrf	(??___flmul+2)^0,c
  9858   002848  6A0C               	clrf	(??___flmul+3)^0,c
  9859   00284A  C00B  F00C         	movff	??___flmul+2,??___flmul+3
  9860   00284E  C00A  F00B         	movff	??___flmul+1,??___flmul+2
  9861   002852  C009  F00A         	movff	??___flmul,??___flmul+1
  9862   002856  6A09               	clrf	??___flmul^0,c
  9863   002858  5009               	movf	??___flmul^0,w,c
  9864   00285A  2614               	addwf	___flmul@prod^0,f,c
  9865   00285C  500A               	movf	(??___flmul+1)^0,w,c
  9866   00285E  2215               	addwfc	(___flmul@prod+1)^0,f,c
  9867   002860  500B               	movf	(??___flmul+2)^0,w,c
  9868   002862  2216               	addwfc	(___flmul@prod+2)^0,f,c
  9869   002864  500C               	movf	(??___flmul+3)^0,w,c
  9870   002866  2217               	addwfc	(___flmul@prod+3)^0,f,c
  9871   002868  C00E  F009         	movff	___flmul@grs,??___flmul
  9872   00286C  C00F  F00A         	movff	___flmul@grs+1,??___flmul+1
  9873   002870  C010  F00B         	movff	___flmul@grs+2,??___flmul+2
  9874   002874  C011  F00C         	movff	___flmul@grs+3,??___flmul+3
  9875   002878  0E19               	movlw	25
  9876   00287A  EF44  F014         	goto	i2u366_40
  9877   00287E                     i2u366_45:
  9878   00287E  90D8               	bcf	status,0,c
  9879   002880  320C               	rrcf	(??___flmul+3)^0,f,c
  9880   002882  320B               	rrcf	(??___flmul+2)^0,f,c
  9881   002884  320A               	rrcf	(??___flmul+1)^0,f,c
  9882   002886  3209               	rrcf	??___flmul^0,f,c
  9883   002888                     i2u366_40:
  9884   002888  2EE8               	decfsz	wreg,f,c
  9885   00288A  EF3F  F014         	goto	i2u366_45
  9886   00288E  5009               	movf	??___flmul^0,w,c
  9887   002890  2614               	addwf	___flmul@prod^0,f,c
  9888   002892  500A               	movf	(??___flmul+1)^0,w,c
  9889   002894  2215               	addwfc	(___flmul@prod+1)^0,f,c
  9890   002896  500B               	movf	(??___flmul+2)^0,w,c
  9891   002898  2216               	addwfc	(___flmul@prod+2)^0,f,c
  9892   00289A  500C               	movf	(??___flmul+3)^0,w,c
  9893   00289C  2217               	addwfc	(___flmul@prod+3)^0,f,c
  9894   00289E  C010  F011         	movff	___flmul@grs+2,___flmul@grs+3
  9895   0028A2  C00F  F010         	movff	___flmul@grs+1,___flmul@grs+2
  9896   0028A6  C00E  F00F         	movff	___flmul@grs,___flmul@grs+1
  9897   0028AA  6A0E               	clrf	___flmul@grs^0,c
  9898   0028AC  5012               	movf	___flmul@aexp^0,w,c
  9899   0028AE  C013  F009         	movff	___flmul@bexp,??___flmul
  9900   0028B2  6A0A               	clrf	(??___flmul+1)^0,c
  9901   0028B4  2609               	addwf	??___flmul^0,f,c
  9902   0028B6  0E00               	movlw	0
  9903   0028B8  220A               	addwfc	(??___flmul+1)^0,f,c
  9904   0028BA  0E82               	movlw	130
  9905   0028BC  2409               	addwf	??___flmul^0,w,c
  9906   0028BE  6E18               	movwf	___flmul@temp^0,c
  9907   0028C0  0EFF               	movlw	255
  9908   0028C2  200A               	addwfc	(??___flmul+1)^0,w,c
  9909   0028C4  6E19               	movwf	(___flmul@temp+1)^0,c
  9910   0028C6  EF7A  F014         	goto	i2l4122
  9911   0028CA                     i2l4116:
  9912   0028CA  90D8               	bcf	status,0,c
  9913   0028CC  3614               	rlcf	___flmul@prod^0,f,c
  9914   0028CE  3615               	rlcf	(___flmul@prod+1)^0,f,c
  9915   0028D0  3616               	rlcf	(___flmul@prod+2)^0,f,c
  9916   0028D2  3617               	rlcf	(___flmul@prod+3)^0,f,c
  9917   0028D4  AE11               	btfss	(___flmul@grs+3)^0,7,c
  9918   0028D6  EF6F  F014         	goto	i2u367_41
  9919   0028DA  EF71  F014         	goto	i2u367_40
  9920   0028DE                     i2u367_41:
  9921   0028DE  EF72  F014         	goto	i2l1175
  9922   0028E2                     i2u367_40:
  9923   0028E2  8014               	bsf	___flmul@prod^0,0,c
  9924   0028E4                     i2l1175:
  9925   0028E4  90D8               	bcf	status,0,c
  9926   0028E6  360E               	rlcf	___flmul@grs^0,f,c
  9927   0028E8  360F               	rlcf	(___flmul@grs+1)^0,f,c
  9928   0028EA  3610               	rlcf	(___flmul@grs+2)^0,f,c
  9929   0028EC  3611               	rlcf	(___flmul@grs+3)^0,f,c
  9930   0028EE  0618               	decf	___flmul@temp^0,f,c
  9931   0028F0  A0D8               	btfss	status,0,c
  9932   0028F2  0619               	decf	(___flmul@temp+1)^0,f,c
  9933   0028F4                     i2l4122:
  9934   0028F4  AE16               	btfss	(___flmul@prod+2)^0,7,c
  9935   0028F6  EF7F  F014         	goto	i2u368_41
  9936   0028FA  EF81  F014         	goto	i2u368_40
  9937   0028FE                     i2u368_41:
  9938   0028FE  EF65  F014         	goto	i2l4116
  9939   002902                     i2u368_40:
  9940   002902  0E00               	movlw	0
  9941   002904  6E12               	movwf	___flmul@aexp^0,c
  9942   002906  AE11               	btfss	(___flmul@grs+3)^0,7,c
  9943   002908  EF88  F014         	goto	i2u369_41
  9944   00290C  EF8A  F014         	goto	i2u369_40
  9945   002910                     i2u369_41:
  9946   002910  EFAE  F014         	goto	i2l1177
  9947   002914                     i2u369_40:
  9948   002914  0EFF               	movlw	255
  9949   002916  140E               	andwf	___flmul@grs^0,w,c
  9950   002918  6E09               	movwf	??___flmul^0,c
  9951   00291A  0EFF               	movlw	255
  9952   00291C  140F               	andwf	(___flmul@grs+1)^0,w,c
  9953   00291E  6E0A               	movwf	(??___flmul+1)^0,c
  9954   002920  0EFF               	movlw	255
  9955   002922  1410               	andwf	(___flmul@grs+2)^0,w,c
  9956   002924  6E0B               	movwf	(??___flmul+2)^0,c
  9957   002926  0E7F               	movlw	127
  9958   002928  1411               	andwf	(___flmul@grs+3)^0,w,c
  9959   00292A  6E0C               	movwf	(??___flmul+3)^0,c
  9960   00292C  5009               	movf	??___flmul^0,w,c
  9961   00292E  100A               	iorwf	(??___flmul+1)^0,w,c
  9962   002930  100B               	iorwf	(??___flmul+2)^0,w,c
  9963   002932  100C               	iorwf	(??___flmul+3)^0,w,c
  9964   002934  B4D8               	btfsc	status,2,c
  9965   002936  EF9F  F014         	goto	i2u370_41
  9966   00293A  EFA1  F014         	goto	i2u370_40
  9967   00293E                     i2u370_41:
  9968   00293E  EFA5  F014         	goto	i2l1178
  9969   002942                     i2u370_40:
  9970   002942                     i2l4130:
  9971   002942  0E01               	movlw	1
  9972   002944  6E12               	movwf	___flmul@aexp^0,c
  9973   002946  EFAE  F014         	goto	i2l1177
  9974   00294A                     i2l1178:
  9975   00294A  A014               	btfss	___flmul@prod^0,0,c
  9976   00294C  EFAA  F014         	goto	i2u371_41
  9977   002950  EFAC  F014         	goto	i2u371_40
  9978   002954                     i2u371_41:
  9979   002954  EFAE  F014         	goto	i2l1177
  9980   002958                     i2u371_40:
  9981   002958  EFA1  F014         	goto	i2l4130
  9982   00295C                     i2l1177:
  9983   00295C  5012               	movf	___flmul@aexp^0,w,c
  9984   00295E  B4D8               	btfsc	status,2,c
  9985   002960  EFB4  F014         	goto	i2u372_41
  9986   002964  EFB6  F014         	goto	i2u372_40
  9987   002968                     i2u372_41:
  9988   002968  EFDA  F014         	goto	i2l4142
  9989   00296C                     i2u372_40:
  9990   00296C  0E01               	movlw	1
  9991   00296E  2614               	addwf	___flmul@prod^0,f,c
  9992   002970  0E00               	movlw	0
  9993   002972  2215               	addwfc	(___flmul@prod+1)^0,f,c
  9994   002974  2216               	addwfc	(___flmul@prod+2)^0,f,c
  9995   002976  2217               	addwfc	(___flmul@prod+3)^0,f,c
  9996   002978  A017               	btfss	(___flmul@prod+3)^0,0,c
  9997   00297A  EFC1  F014         	goto	i2u373_41
  9998   00297E  EFC3  F014         	goto	i2u373_40
  9999   002982                     i2u373_41:
 10000   002982  EFDA  F014         	goto	i2l4142
 10001   002986                     i2u373_40:
 10002   002986  C014  F009         	movff	___flmul@prod,??___flmul
 10003   00298A  C015  F00A         	movff	___flmul@prod+1,??___flmul+1
 10004   00298E  C016  F00B         	movff	___flmul@prod+2,??___flmul+2
 10005   002992  C017  F00C         	movff	___flmul@prod+3,??___flmul+3
 10006   002996  340C               	rlcf	(??___flmul+3)^0,w,c
 10007   002998  320C               	rrcf	(??___flmul+3)^0,f,c
 10008   00299A  320B               	rrcf	(??___flmul+2)^0,f,c
 10009   00299C  320A               	rrcf	(??___flmul+1)^0,f,c
 10010   00299E  3209               	rrcf	??___flmul^0,f,c
 10011   0029A0  C009  F014         	movff	??___flmul,___flmul@prod
 10012   0029A4  C00A  F015         	movff	??___flmul+1,___flmul@prod+1
 10013   0029A8  C00B  F016         	movff	??___flmul+2,___flmul@prod+2
 10014   0029AC  C00C  F017         	movff	??___flmul+3,___flmul@prod+3
 10015   0029B0  4A18               	infsnz	___flmul@temp^0,f,c
 10016   0029B2  2A19               	incf	(___flmul@temp+1)^0,f,c
 10017   0029B4                     i2l4142:
 10018   0029B4  BE19               	btfsc	(___flmul@temp+1)^0,7,c
 10019   0029B6  EFE5  F014         	goto	i2u374_41
 10020   0029BA  5019               	movf	(___flmul@temp+1)^0,w,c
 10021   0029BC  E108               	bnz	i2u374_40
 10022   0029BE  2818               	incf	___flmul@temp^0,w,c
 10023   0029C0  A0D8               	btfss	status,0,c
 10024   0029C2  EFE5  F014         	goto	i2u374_41
 10025   0029C6  EFE7  F014         	goto	i2u374_40
 10026   0029CA                     i2u374_41:
 10027   0029CA  EFF1  F014         	goto	i2l4146
 10028   0029CE                     i2u374_40:
 10029   0029CE  0E00               	movlw	0
 10030   0029D0  6E14               	movwf	___flmul@prod^0,c
 10031   0029D2  0E00               	movlw	0
 10032   0029D4  6E15               	movwf	(___flmul@prod+1)^0,c
 10033   0029D6  0E80               	movlw	128
 10034   0029D8  6E16               	movwf	(___flmul@prod+2)^0,c
 10035   0029DA  0E7F               	movlw	127
 10036   0029DC  6E17               	movwf	(___flmul@prod+3)^0,c
 10037   0029DE  EF1F  F015         	goto	i2l4158
 10038   0029E2                     i2l4146:
 10039   0029E2  BE19               	btfsc	(___flmul@temp+1)^0,7,c
 10040   0029E4  EFFE  F014         	goto	i2u375_40
 10041   0029E8  5019               	movf	(___flmul@temp+1)^0,w,c
 10042   0029EA  E106               	bnz	i2u375_41
 10043   0029EC  0418               	decf	___flmul@temp^0,w,c
 10044   0029EE  B0D8               	btfsc	status,0,c
 10045   0029F0  EFFC  F014         	goto	i2u375_41
 10046   0029F4  EFFE  F014         	goto	i2u375_40
 10047   0029F8                     i2u375_41:
 10048   0029F8  EF0A  F015         	goto	i2l1185
 10049   0029FC                     i2u375_40:
 10050   0029FC  0E00               	movlw	0
 10051   0029FE  6E14               	movwf	___flmul@prod^0,c
 10052   002A00  0E00               	movlw	0
 10053   002A02  6E15               	movwf	(___flmul@prod+1)^0,c
 10054   002A04  0E00               	movlw	0
 10055   002A06  6E16               	movwf	(___flmul@prod+2)^0,c
 10056   002A08  0E00               	movlw	0
 10057   002A0A  6E17               	movwf	(___flmul@prod+3)^0,c
 10058   002A0C  0E00               	movlw	0
 10059   002A0E  6E0D               	movwf	___flmul@sign^0,c
 10060   002A10  EF1F  F015         	goto	i2l4158
 10061   002A14                     i2l1185:
 10062   002A14  C018  F013         	movff	___flmul@temp,___flmul@bexp
 10063   002A18  0EFF               	movlw	255
 10064   002A1A  1614               	andwf	___flmul@prod^0,f,c
 10065   002A1C  0EFF               	movlw	255
 10066   002A1E  1615               	andwf	(___flmul@prod+1)^0,f,c
 10067   002A20  0E7F               	movlw	127
 10068   002A22  1616               	andwf	(___flmul@prod+2)^0,f,c
 10069   002A24  0E00               	movlw	0
 10070   002A26  1617               	andwf	(___flmul@prod+3)^0,f,c
 10071   002A28  A013               	btfss	___flmul@bexp^0,0,c
 10072   002A2A  EF19  F015         	goto	i2u376_41
 10073   002A2E  EF1B  F015         	goto	i2u376_40
 10074   002A32                     i2u376_41:
 10075   002A32  EF1C  F015         	goto	i2l4156
 10076   002A36                     i2u376_40:
 10077   002A36  8E16               	bsf	(___flmul@prod+2)^0,7,c
 10078   002A38                     i2l4156:
 10079   002A38  90D8               	bcf	status,0,c
 10080   002A3A  3013               	rrcf	___flmul@bexp^0,w,c
 10081   002A3C  6E17               	movwf	(___flmul@prod+3)^0,c
 10082   002A3E                     i2l4158:
 10083   002A3E  500D               	movf	___flmul@sign^0,w,c
 10084   002A40  1217               	iorwf	(___flmul@prod+3)^0,f,c
 10085   002A42  C014  F001         	movff	___flmul@prod,?___flmul
 10086   002A46  C015  F002         	movff	___flmul@prod+1,?___flmul+1
 10087   002A4A  C016  F003         	movff	___flmul@prod+2,?___flmul+2
 10088   002A4E  C017  F004         	movff	___flmul@prod+3,?___flmul+3
 10089   002A52                     i2l1172:
 10090   002A52  0012               	return		;funcret
 10091   002A54                     __end_of___flmul:
 10092                           	callstack 0
 10093                           
 10094 ;; *************** function ___fldiv *****************
 10095 ;; Defined at:
 10096 ;;		line 11 in file "C:\Program Files\Microchip\xc8\v2.41\pic\sources\c99\common\sprcdiv.c"
 10097 ;; Parameters:    Size  Location     Type
 10098 ;;  b               4   25[COMRAM] unsigned char 
 10099 ;;  a               4   29[COMRAM] unsigned char 
 10100 ;; Auto vars:     Size  Location     Type
 10101 ;;  grs             4   44[COMRAM] unsigned long 
 10102 ;;  rem             4   37[COMRAM] unsigned long 
 10103 ;;  new_exp         2   42[COMRAM] short 
 10104 ;;  aexp            1   49[COMRAM] unsigned char 
 10105 ;;  bexp            1   48[COMRAM] unsigned char 
 10106 ;;  sign            1   41[COMRAM] unsigned char 
 10107 ;; Return value:  Size  Location     Type
 10108 ;;                  4   25[COMRAM] unsigned char 
 10109 ;; Registers used:
 10110 ;;		wreg, status,2, status,0
 10111 ;; Tracked objects:
 10112 ;;		On entry : 0/0
 10113 ;;		On exit  : 0/0
 10114 ;;		Unchanged: 0/0
 10115 ;; Data sizes:     COMRAM   BANK0   BANK1   BANK2   BANK3   BANK4   BANK5   BANK6   BANK7   BANK8   BANK9  BANK10  BANK1
      +1  BANK12  BANK13  BANK14  BANK15
 10116 ;;      Params:         8       0       0       0       0       0       0       0       0       0       0       0       
      +0       0       0       0       0
 10117 ;;      Locals:        13       0       0       0       0       0       0       0       0       0       0       0       
      +0       0       0       0       0
 10118 ;;      Temps:          4       0       0       0       0       0       0       0       0       0       0       0       
      +0       0       0       0       0
 10119 ;;      Totals:        25       0       0       0       0       0       0       0       0       0       0       0       
      +0       0       0       0       0
 10120 ;;Total ram usage:       25 bytes
 10121 ;; Hardware stack levels used: 1
 10122 ;; This function calls:
 10123 ;;		Nothing
 10124 ;; This function is called by:
 10125 ;;		_HandleInterrupt
 10126 ;;		_logf
 10127 ;;		_efgtoa
 10128 ;; This function uses a non-reentrant model
 10129 ;;
 10130                           
 10131                           	psect	text52
 10132   002E14                     __ptext52:
 10133                           	callstack 0
 10134   002E14                     ___fldiv:
 10135                           	callstack 18
 10136   002E14  501D               	movf	(___fldiv@b+3)^0,w,c
 10137   002E16  0B80               	andlw	128
 10138   002E18  6E2A               	movwf	___fldiv@sign^0,c
 10139   002E1A  501D               	movf	(___fldiv@b+3)^0,w,c
 10140   002E1C  241D               	addwf	(___fldiv@b+3)^0,w,c
 10141   002E1E  6E31               	movwf	___fldiv@bexp^0,c
 10142   002E20  AE1C               	btfss	(___fldiv@b+2)^0,7,c
 10143   002E22  EF15  F017         	goto	i2u335_41
 10144   002E26  EF17  F017         	goto	i2u335_40
 10145   002E2A                     i2u335_41:
 10146   002E2A  EF18  F017         	goto	i2l3902
 10147   002E2E                     i2u335_40:
 10148   002E2E  8031               	bsf	___fldiv@bexp^0,0,c
 10149   002E30                     i2l3902:
 10150   002E30  5031               	movf	___fldiv@bexp^0,w,c
 10151   002E32  B4D8               	btfsc	status,2,c
 10152   002E34  EF1E  F017         	goto	i2u336_41
 10153   002E38  EF20  F017         	goto	i2u336_40
 10154   002E3C                     i2u336_41:
 10155   002E3C  EF35  F017         	goto	i2l3912
 10156   002E40                     i2u336_40:
 10157   002E40  2831               	incf	___fldiv@bexp^0,w,c
 10158   002E42  A4D8               	btfss	status,2,c
 10159   002E44  EF26  F017         	goto	i2u337_41
 10160   002E48  EF28  F017         	goto	i2u337_40
 10161   002E4C                     i2u337_41:
 10162   002E4C  EF30  F017         	goto	i2l3908
 10163   002E50                     i2u337_40:
 10164   002E50  0E00               	movlw	0
 10165   002E52  6E1A               	movwf	___fldiv@b^0,c
 10166   002E54  0E00               	movlw	0
 10167   002E56  6E1B               	movwf	(___fldiv@b+1)^0,c
 10168   002E58  0E00               	movlw	0
 10169   002E5A  6E1C               	movwf	(___fldiv@b+2)^0,c
 10170   002E5C  0E00               	movlw	0
 10171   002E5E  6E1D               	movwf	(___fldiv@b+3)^0,c
 10172   002E60                     i2l3908:
 10173   002E60  8E1C               	bsf	(___fldiv@b+2)^0,7,c
 10174   002E62  0E00               	movlw	0
 10175   002E64  6E1D               	movwf	(___fldiv@b+3)^0,c
 10176   002E66  EF3D  F017         	goto	i2l3914
 10177   002E6A                     i2l3912:
 10178   002E6A  0E00               	movlw	0
 10179   002E6C  6E1A               	movwf	___fldiv@b^0,c
 10180   002E6E  0E00               	movlw	0
 10181   002E70  6E1B               	movwf	(___fldiv@b+1)^0,c
 10182   002E72  0E00               	movlw	0
 10183   002E74  6E1C               	movwf	(___fldiv@b+2)^0,c
 10184   002E76  0E00               	movlw	0
 10185   002E78  6E1D               	movwf	(___fldiv@b+3)^0,c
 10186   002E7A                     i2l3914:
 10187   002E7A  5021               	movf	(___fldiv@a+3)^0,w,c
 10188   002E7C  0B80               	andlw	128
 10189   002E7E  1A2A               	xorwf	___fldiv@sign^0,f,c
 10190   002E80  5021               	movf	(___fldiv@a+3)^0,w,c
 10191   002E82  2421               	addwf	(___fldiv@a+3)^0,w,c
 10192   002E84  6E32               	movwf	___fldiv@aexp^0,c
 10193   002E86  AE20               	btfss	(___fldiv@a+2)^0,7,c
 10194   002E88  EF48  F017         	goto	i2u338_41
 10195   002E8C  EF4A  F017         	goto	i2u338_40
 10196   002E90                     i2u338_41:
 10197   002E90  EF4B  F017         	goto	i2l3922
 10198   002E94                     i2u338_40:
 10199   002E94  8032               	bsf	___fldiv@aexp^0,0,c
 10200   002E96                     i2l3922:
 10201   002E96  5032               	movf	___fldiv@aexp^0,w,c
 10202   002E98  B4D8               	btfsc	status,2,c
 10203   002E9A  EF51  F017         	goto	i2u339_41
 10204   002E9E  EF53  F017         	goto	i2u339_40
 10205   002EA2                     i2u339_41:
 10206   002EA2  EF68  F017         	goto	i2l3932
 10207   002EA6                     i2u339_40:
 10208   002EA6  2832               	incf	___fldiv@aexp^0,w,c
 10209   002EA8  A4D8               	btfss	status,2,c
 10210   002EAA  EF59  F017         	goto	i2u340_41
 10211   002EAE  EF5B  F017         	goto	i2u340_40
 10212   002EB2                     i2u340_41:
 10213   002EB2  EF63  F017         	goto	i2l3928
 10214   002EB6                     i2u340_40:
 10215   002EB6  0E00               	movlw	0
 10216   002EB8  6E1E               	movwf	___fldiv@a^0,c
 10217   002EBA  0E00               	movlw	0
 10218   002EBC  6E1F               	movwf	(___fldiv@a+1)^0,c
 10219   002EBE  0E00               	movlw	0
 10220   002EC0  6E20               	movwf	(___fldiv@a+2)^0,c
 10221   002EC2  0E00               	movlw	0
 10222   002EC4  6E21               	movwf	(___fldiv@a+3)^0,c
 10223   002EC6                     i2l3928:
 10224   002EC6  8E20               	bsf	(___fldiv@a+2)^0,7,c
 10225   002EC8  0E00               	movlw	0
 10226   002ECA  6E21               	movwf	(___fldiv@a+3)^0,c
 10227   002ECC  EF70  F017         	goto	i2l3934
 10228   002ED0                     i2l3932:
 10229   002ED0  0E00               	movlw	0
 10230   002ED2  6E1E               	movwf	___fldiv@a^0,c
 10231   002ED4  0E00               	movlw	0
 10232   002ED6  6E1F               	movwf	(___fldiv@a+1)^0,c
 10233   002ED8  0E00               	movlw	0
 10234   002EDA  6E20               	movwf	(___fldiv@a+2)^0,c
 10235   002EDC  0E00               	movlw	0
 10236   002EDE  6E21               	movwf	(___fldiv@a+3)^0,c
 10237   002EE0                     i2l3934:
 10238   002EE0  501E               	movf	___fldiv@a^0,w,c
 10239   002EE2  101F               	iorwf	(___fldiv@a+1)^0,w,c
 10240   002EE4  1020               	iorwf	(___fldiv@a+2)^0,w,c
 10241   002EE6  1021               	iorwf	(___fldiv@a+3)^0,w,c
 10242   002EE8  A4D8               	btfss	status,2,c
 10243   002EEA  EF79  F017         	goto	i2u341_41
 10244   002EEE  EF7B  F017         	goto	i2u341_40
 10245   002EF2                     i2u341_41:
 10246   002EF2  EF93  F017         	goto	i2l3946
 10247   002EF6                     i2u341_40:
 10248   002EF6  0E00               	movlw	0
 10249   002EF8  6E1A               	movwf	___fldiv@b^0,c
 10250   002EFA  0E00               	movlw	0
 10251   002EFC  6E1B               	movwf	(___fldiv@b+1)^0,c
 10252   002EFE  0E00               	movlw	0
 10253   002F00  6E1C               	movwf	(___fldiv@b+2)^0,c
 10254   002F02  0E00               	movlw	0
 10255   002F04  6E1D               	movwf	(___fldiv@b+3)^0,c
 10256   002F06  0E80               	movlw	128
 10257   002F08  121C               	iorwf	(___fldiv@b+2)^0,f,c
 10258   002F0A  0E7F               	movlw	127
 10259   002F0C  121D               	iorwf	(___fldiv@b+3)^0,f,c
 10260   002F0E                     i2l3940:
 10261   002F0E  502A               	movf	___fldiv@sign^0,w,c
 10262   002F10  121D               	iorwf	(___fldiv@b+3)^0,f,c
 10263   002F12  C01A  F01A         	movff	___fldiv@b,?___fldiv
 10264   002F16  C01B  F01B         	movff	___fldiv@b+1,?___fldiv+1
 10265   002F1A  C01C  F01C         	movff	___fldiv@b+2,?___fldiv+2
 10266   002F1E  C01D  F01D         	movff	___fldiv@b+3,?___fldiv+3
 10267   002F22  EFD6  F018         	goto	i2l1136
 10268   002F26                     i2l3946:
 10269   002F26  5031               	movf	___fldiv@bexp^0,w,c
 10270   002F28  A4D8               	btfss	status,2,c
 10271   002F2A  EF99  F017         	goto	i2u342_41
 10272   002F2E  EF9B  F017         	goto	i2u342_40
 10273   002F32                     i2u342_41:
 10274   002F32  EFA5  F017         	goto	i2l3954
 10275   002F36                     i2u342_40:
 10276   002F36  0E00               	movlw	0
 10277   002F38  6E1A               	movwf	?___fldiv^0,c
 10278   002F3A  0E00               	movlw	0
 10279   002F3C  6E1B               	movwf	(?___fldiv+1)^0,c
 10280   002F3E  0E00               	movlw	0
 10281   002F40  6E1C               	movwf	(?___fldiv+2)^0,c
 10282   002F42  0E00               	movlw	0
 10283   002F44  6E1D               	movwf	(?___fldiv+3)^0,c
 10284   002F46  EFD6  F018         	goto	i2l1136
 10285   002F4A                     i2l3954:
 10286   002F4A  5032               	movf	___fldiv@aexp^0,w,c
 10287   002F4C  C031  F022         	movff	___fldiv@bexp,??___fldiv
 10288   002F50  6A23               	clrf	(??___fldiv+1)^0,c
 10289   002F52  5E22               	subwf	??___fldiv^0,f,c
 10290   002F54  0E00               	movlw	0
 10291   002F56  5A23               	subwfb	(??___fldiv+1)^0,f,c
 10292   002F58  0E7F               	movlw	127
 10293   002F5A  2422               	addwf	??___fldiv^0,w,c
 10294   002F5C  6E2B               	movwf	___fldiv@new_exp^0,c
 10295   002F5E  0E00               	movlw	0
 10296   002F60  2023               	addwfc	(??___fldiv+1)^0,w,c
 10297   002F62  6E2C               	movwf	(___fldiv@new_exp+1)^0,c
 10298   002F64  C01A  F026         	movff	___fldiv@b,___fldiv@rem
 10299   002F68  C01B  F027         	movff	___fldiv@b+1,___fldiv@rem+1
 10300   002F6C  C01C  F028         	movff	___fldiv@b+2,___fldiv@rem+2
 10301   002F70  C01D  F029         	movff	___fldiv@b+3,___fldiv@rem+3
 10302   002F74  0E00               	movlw	0
 10303   002F76  6E1A               	movwf	___fldiv@b^0,c
 10304   002F78  0E00               	movlw	0
 10305   002F7A  6E1B               	movwf	(___fldiv@b+1)^0,c
 10306   002F7C  0E00               	movlw	0
 10307   002F7E  6E1C               	movwf	(___fldiv@b+2)^0,c
 10308   002F80  0E00               	movlw	0
 10309   002F82  6E1D               	movwf	(___fldiv@b+3)^0,c
 10310   002F84  0E00               	movlw	0
 10311   002F86  6E2D               	movwf	___fldiv@grs^0,c
 10312   002F88  0E00               	movlw	0
 10313   002F8A  6E2E               	movwf	(___fldiv@grs+1)^0,c
 10314   002F8C  0E00               	movlw	0
 10315   002F8E  6E2F               	movwf	(___fldiv@grs+2)^0,c
 10316   002F90  0E00               	movlw	0
 10317   002F92  6E30               	movwf	(___fldiv@grs+3)^0,c
 10318   002F94  0E00               	movlw	0
 10319   002F96  6E32               	movwf	___fldiv@aexp^0,c
 10320   002F98  EF06  F018         	goto	i2l1138
 10321   002F9C                     i2l3964:
 10322   002F9C  5032               	movf	___fldiv@aexp^0,w,c
 10323   002F9E  B4D8               	btfsc	status,2,c
 10324   002FA0  EFD4  F017         	goto	i2u343_41
 10325   002FA4  EFD6  F017         	goto	i2u343_40
 10326   002FA8                     i2u343_41:
 10327   002FA8  EFED  F017         	goto	i2l3972
 10328   002FAC                     i2u343_40:
 10329   002FAC  90D8               	bcf	status,0,c
 10330   002FAE  3626               	rlcf	___fldiv@rem^0,f,c
 10331   002FB0  3627               	rlcf	(___fldiv@rem+1)^0,f,c
 10332   002FB2  3628               	rlcf	(___fldiv@rem+2)^0,f,c
 10333   002FB4  3629               	rlcf	(___fldiv@rem+3)^0,f,c
 10334   002FB6  90D8               	bcf	status,0,c
 10335   002FB8  361A               	rlcf	___fldiv@b^0,f,c
 10336   002FBA  361B               	rlcf	(___fldiv@b+1)^0,f,c
 10337   002FBC  361C               	rlcf	(___fldiv@b+2)^0,f,c
 10338   002FBE  361D               	rlcf	(___fldiv@b+3)^0,f,c
 10339   002FC0  AE30               	btfss	(___fldiv@grs+3)^0,7,c
 10340   002FC2  EFE5  F017         	goto	i2u344_41
 10341   002FC6  EFE7  F017         	goto	i2u344_40
 10342   002FCA                     i2u344_41:
 10343   002FCA  EFE8  F017         	goto	i2l1141
 10344   002FCE                     i2u344_40:
 10345   002FCE  801A               	bsf	___fldiv@b^0,0,c
 10346   002FD0                     i2l1141:
 10347   002FD0  90D8               	bcf	status,0,c
 10348   002FD2  362D               	rlcf	___fldiv@grs^0,f,c
 10349   002FD4  362E               	rlcf	(___fldiv@grs+1)^0,f,c
 10350   002FD6  362F               	rlcf	(___fldiv@grs+2)^0,f,c
 10351   002FD8  3630               	rlcf	(___fldiv@grs+3)^0,f,c
 10352   002FDA                     i2l3972:
 10353   002FDA  501E               	movf	___fldiv@a^0,w,c
 10354   002FDC  5C26               	subwf	___fldiv@rem^0,w,c
 10355   002FDE  501F               	movf	(___fldiv@a+1)^0,w,c
 10356   002FE0  5827               	subwfb	(___fldiv@rem+1)^0,w,c
 10357   002FE2  5020               	movf	(___fldiv@a+2)^0,w,c
 10358   002FE4  5828               	subwfb	(___fldiv@rem+2)^0,w,c
 10359   002FE6  5021               	movf	(___fldiv@a+3)^0,w,c
 10360   002FE8  5829               	subwfb	(___fldiv@rem+3)^0,w,c
 10361   002FEA  A0D8               	btfss	status,0,c
 10362   002FEC  EFFA  F017         	goto	i2u345_41
 10363   002FF0  EFFC  F017         	goto	i2u345_40
 10364   002FF4                     i2u345_41:
 10365   002FF4  EF05  F018         	goto	i2l3978
 10366   002FF8                     i2u345_40:
 10367   002FF8  8C30               	bsf	(___fldiv@grs+3)^0,6,c
 10368   002FFA  501E               	movf	___fldiv@a^0,w,c
 10369   002FFC  5E26               	subwf	___fldiv@rem^0,f,c
 10370   002FFE  501F               	movf	(___fldiv@a+1)^0,w,c
 10371   003000  5A27               	subwfb	(___fldiv@rem+1)^0,f,c
 10372   003002  5020               	movf	(___fldiv@a+2)^0,w,c
 10373   003004  5A28               	subwfb	(___fldiv@rem+2)^0,f,c
 10374   003006  5021               	movf	(___fldiv@a+3)^0,w,c
 10375   003008  5A29               	subwfb	(___fldiv@rem+3)^0,f,c
 10376   00300A                     i2l3978:
 10377   00300A  2A32               	incf	___fldiv@aexp^0,f,c
 10378   00300C                     i2l1138:
 10379   00300C  0E19               	movlw	25
 10380   00300E  6432               	cpfsgt	___fldiv@aexp^0,c
 10381   003010  EF0C  F018         	goto	i2u346_41
 10382   003014  EF0E  F018         	goto	i2u346_40
 10383   003018                     i2u346_41:
 10384   003018  EFCE  F017         	goto	i2l3964
 10385   00301C                     i2u346_40:
 10386   00301C  5026               	movf	___fldiv@rem^0,w,c
 10387   00301E  1027               	iorwf	(___fldiv@rem+1)^0,w,c
 10388   003020  1028               	iorwf	(___fldiv@rem+2)^0,w,c
 10389   003022  1029               	iorwf	(___fldiv@rem+3)^0,w,c
 10390   003024  B4D8               	btfsc	status,2,c
 10391   003026  EF17  F018         	goto	i2u347_41
 10392   00302A  EF19  F018         	goto	i2u347_40
 10393   00302E                     i2u347_41:
 10394   00302E  EF31  F018         	goto	i2l3990
 10395   003032                     i2u347_40:
 10396   003032  802D               	bsf	___fldiv@grs^0,0,c
 10397   003034  EF31  F018         	goto	i2l3990
 10398   003038                     i2l3984:
 10399   003038  90D8               	bcf	status,0,c
 10400   00303A  361A               	rlcf	___fldiv@b^0,f,c
 10401   00303C  361B               	rlcf	(___fldiv@b+1)^0,f,c
 10402   00303E  361C               	rlcf	(___fldiv@b+2)^0,f,c
 10403   003040  361D               	rlcf	(___fldiv@b+3)^0,f,c
 10404   003042  AE30               	btfss	(___fldiv@grs+3)^0,7,c
 10405   003044  EF26  F018         	goto	i2u348_41
 10406   003048  EF28  F018         	goto	i2u348_40
 10407   00304C                     i2u348_41:
 10408   00304C  EF29  F018         	goto	i2l1147
 10409   003050                     i2u348_40:
 10410   003050  801A               	bsf	___fldiv@b^0,0,c
 10411   003052                     i2l1147:
 10412   003052  90D8               	bcf	status,0,c
 10413   003054  362D               	rlcf	___fldiv@grs^0,f,c
 10414   003056  362E               	rlcf	(___fldiv@grs+1)^0,f,c
 10415   003058  362F               	rlcf	(___fldiv@grs+2)^0,f,c
 10416   00305A  3630               	rlcf	(___fldiv@grs+3)^0,f,c
 10417   00305C  062B               	decf	___fldiv@new_exp^0,f,c
 10418   00305E  A0D8               	btfss	status,0,c
 10419   003060  062C               	decf	(___fldiv@new_exp+1)^0,f,c
 10420   003062                     i2l3990:
 10421   003062  AE1C               	btfss	(___fldiv@b+2)^0,7,c
 10422   003064  EF36  F018         	goto	i2u349_41
 10423   003068  EF38  F018         	goto	i2u349_40
 10424   00306C                     i2u349_41:
 10425   00306C  EF1C  F018         	goto	i2l3984
 10426   003070                     i2u349_40:
 10427   003070  0E00               	movlw	0
 10428   003072  6E32               	movwf	___fldiv@aexp^0,c
 10429   003074  AE30               	btfss	(___fldiv@grs+3)^0,7,c
 10430   003076  EF3F  F018         	goto	i2u350_41
 10431   00307A  EF41  F018         	goto	i2u350_40
 10432   00307E                     i2u350_41:
 10433   00307E  EF65  F018         	goto	i2l1149
 10434   003082                     i2u350_40:
 10435   003082  0EFF               	movlw	255
 10436   003084  142D               	andwf	___fldiv@grs^0,w,c
 10437   003086  6E22               	movwf	??___fldiv^0,c
 10438   003088  0EFF               	movlw	255
 10439   00308A  142E               	andwf	(___fldiv@grs+1)^0,w,c
 10440   00308C  6E23               	movwf	(??___fldiv+1)^0,c
 10441   00308E  0EFF               	movlw	255
 10442   003090  142F               	andwf	(___fldiv@grs+2)^0,w,c
 10443   003092  6E24               	movwf	(??___fldiv+2)^0,c
 10444   003094  0E7F               	movlw	127
 10445   003096  1430               	andwf	(___fldiv@grs+3)^0,w,c
 10446   003098  6E25               	movwf	(??___fldiv+3)^0,c
 10447   00309A  5022               	movf	??___fldiv^0,w,c
 10448   00309C  1023               	iorwf	(??___fldiv+1)^0,w,c
 10449   00309E  1024               	iorwf	(??___fldiv+2)^0,w,c
 10450   0030A0  1025               	iorwf	(??___fldiv+3)^0,w,c
 10451   0030A2  B4D8               	btfsc	status,2,c
 10452   0030A4  EF56  F018         	goto	i2u351_41
 10453   0030A8  EF58  F018         	goto	i2u351_40
 10454   0030AC                     i2u351_41:
 10455   0030AC  EF5C  F018         	goto	i2l1150
 10456   0030B0                     i2u351_40:
 10457   0030B0                     i2l3998:
 10458   0030B0  0E01               	movlw	1
 10459   0030B2  6E32               	movwf	___fldiv@aexp^0,c
 10460   0030B4  EF65  F018         	goto	i2l1149
 10461   0030B8                     i2l1150:
 10462   0030B8  A01A               	btfss	___fldiv@b^0,0,c
 10463   0030BA  EF61  F018         	goto	i2u352_41
 10464   0030BE  EF63  F018         	goto	i2u352_40
 10465   0030C2                     i2u352_41:
 10466   0030C2  EF65  F018         	goto	i2l1149
 10467   0030C6                     i2u352_40:
 10468   0030C6  EF58  F018         	goto	i2l3998
 10469   0030CA                     i2l1149:
 10470   0030CA  5032               	movf	___fldiv@aexp^0,w,c
 10471   0030CC  B4D8               	btfsc	status,2,c
 10472   0030CE  EF6B  F018         	goto	i2u353_41
 10473   0030D2  EF6D  F018         	goto	i2u353_40
 10474   0030D6                     i2u353_41:
 10475   0030D6  EF91  F018         	goto	i2l4010
 10476   0030DA                     i2u353_40:
 10477   0030DA  0E01               	movlw	1
 10478   0030DC  261A               	addwf	___fldiv@b^0,f,c
 10479   0030DE  0E00               	movlw	0
 10480   0030E0  221B               	addwfc	(___fldiv@b+1)^0,f,c
 10481   0030E2  221C               	addwfc	(___fldiv@b+2)^0,f,c
 10482   0030E4  221D               	addwfc	(___fldiv@b+3)^0,f,c
 10483   0030E6  A01D               	btfss	(___fldiv@b+3)^0,0,c
 10484   0030E8  EF78  F018         	goto	i2u354_41
 10485   0030EC  EF7A  F018         	goto	i2u354_40
 10486   0030F0                     i2u354_41:
 10487   0030F0  EF91  F018         	goto	i2l4010
 10488   0030F4                     i2u354_40:
 10489   0030F4  C01A  F022         	movff	___fldiv@b,??___fldiv
 10490   0030F8  C01B  F023         	movff	___fldiv@b+1,??___fldiv+1
 10491   0030FC  C01C  F024         	movff	___fldiv@b+2,??___fldiv+2
 10492   003100  C01D  F025         	movff	___fldiv@b+3,??___fldiv+3
 10493   003104  3425               	rlcf	(??___fldiv+3)^0,w,c
 10494   003106  3225               	rrcf	(??___fldiv+3)^0,f,c
 10495   003108  3224               	rrcf	(??___fldiv+2)^0,f,c
 10496   00310A  3223               	rrcf	(??___fldiv+1)^0,f,c
 10497   00310C  3222               	rrcf	??___fldiv^0,f,c
 10498   00310E  C022  F01A         	movff	??___fldiv,___fldiv@b
 10499   003112  C023  F01B         	movff	??___fldiv+1,___fldiv@b+1
 10500   003116  C024  F01C         	movff	??___fldiv+2,___fldiv@b+2
 10501   00311A  C025  F01D         	movff	??___fldiv+3,___fldiv@b+3
 10502   00311E  4A2B               	infsnz	___fldiv@new_exp^0,f,c
 10503   003120  2A2C               	incf	(___fldiv@new_exp+1)^0,f,c
 10504   003122                     i2l4010:
 10505   003122  BE2C               	btfsc	(___fldiv@new_exp+1)^0,7,c
 10506   003124  EF9C  F018         	goto	i2u355_41
 10507   003128  502C               	movf	(___fldiv@new_exp+1)^0,w,c
 10508   00312A  E108               	bnz	i2u355_40
 10509   00312C  282B               	incf	___fldiv@new_exp^0,w,c
 10510   00312E  A0D8               	btfss	status,0,c
 10511   003130  EF9C  F018         	goto	i2u355_41
 10512   003134  EF9E  F018         	goto	i2u355_40
 10513   003138                     i2u355_41:
 10514   003138  EFA9  F018         	goto	i2l4014
 10515   00313C                     i2u355_40:
 10516   00313C  0E00               	movlw	0
 10517   00313E  6E2C               	movwf	(___fldiv@new_exp+1)^0,c
 10518   003140  682B               	setf	___fldiv@new_exp^0,c
 10519   003142  0E00               	movlw	0
 10520   003144  6E1A               	movwf	___fldiv@b^0,c
 10521   003146  0E00               	movlw	0
 10522   003148  6E1B               	movwf	(___fldiv@b+1)^0,c
 10523   00314A  0E00               	movlw	0
 10524   00314C  6E1C               	movwf	(___fldiv@b+2)^0,c
 10525   00314E  0E00               	movlw	0
 10526   003150  6E1D               	movwf	(___fldiv@b+3)^0,c
 10527   003152                     i2l4014:
 10528   003152  BE2C               	btfsc	(___fldiv@new_exp+1)^0,7,c
 10529   003154  EFB6  F018         	goto	i2u356_40
 10530   003158  502C               	movf	(___fldiv@new_exp+1)^0,w,c
 10531   00315A  E106               	bnz	i2u356_41
 10532   00315C  042B               	decf	___fldiv@new_exp^0,w,c
 10533   00315E  B0D8               	btfsc	status,0,c
 10534   003160  EFB4  F018         	goto	i2u356_41
 10535   003164  EFB6  F018         	goto	i2u356_40
 10536   003168                     i2u356_41:
 10537   003168  EFC4  F018         	goto	i2l4018
 10538   00316C                     i2u356_40:
 10539   00316C  0E00               	movlw	0
 10540   00316E  6E2C               	movwf	(___fldiv@new_exp+1)^0,c
 10541   003170  0E00               	movlw	0
 10542   003172  6E2B               	movwf	___fldiv@new_exp^0,c
 10543   003174  0E00               	movlw	0
 10544   003176  6E1A               	movwf	___fldiv@b^0,c
 10545   003178  0E00               	movlw	0
 10546   00317A  6E1B               	movwf	(___fldiv@b+1)^0,c
 10547   00317C  0E00               	movlw	0
 10548   00317E  6E1C               	movwf	(___fldiv@b+2)^0,c
 10549   003180  0E00               	movlw	0
 10550   003182  6E1D               	movwf	(___fldiv@b+3)^0,c
 10551   003184  0E00               	movlw	0
 10552   003186  6E2A               	movwf	___fldiv@sign^0,c
 10553   003188                     i2l4018:
 10554   003188  C02B  F031         	movff	___fldiv@new_exp,___fldiv@bexp
 10555   00318C  A031               	btfss	___fldiv@bexp^0,0,c
 10556   00318E  EFCB  F018         	goto	i2u357_41
 10557   003192  EFCD  F018         	goto	i2u357_40
 10558   003196                     i2u357_41:
 10559   003196  EFD0  F018         	goto	i2l4024
 10560   00319A                     i2u357_40:
 10561   00319A  8E1C               	bsf	(___fldiv@b+2)^0,7,c
 10562   00319C  EFD1  F018         	goto	i2l4026
 10563   0031A0                     i2l4024:
 10564   0031A0  9E1C               	bcf	(___fldiv@b+2)^0,7,c
 10565   0031A2                     i2l4026:
 10566   0031A2  90D8               	bcf	status,0,c
 10567   0031A4  3031               	rrcf	___fldiv@bexp^0,w,c
 10568   0031A6  6E1D               	movwf	(___fldiv@b+3)^0,c
 10569   0031A8  EF87  F017         	goto	i2l3940
 10570   0031AC                     i2l1136:
 10571   0031AC  0012               	return		;funcret
 10572   0031AE                     __end_of___fldiv:
 10573                           	callstack 0
 10574                           
 10575 ;; *************** function _LCD_PrintStr *****************
 10576 ;; Defined at:
 10577 ;;		line 138 in file "LCD-library/LCD-library.c"
 10578 ;; Parameters:    Size  Location     Type
 10579 ;;  str             2   20[COMRAM] PTR const unsigned char 
 10580 ;;		 -> command(34), LCD_PrintNum@strNumber(20), 
 10581 ;;  delay           2   22[COMRAM] int 
 10582 ;; Auto vars:     Size  Location     Type
 10583 ;;  i               2   28[COMRAM] int 
 10584 ;;  initialY        2   26[COMRAM] int 
 10585 ;;  initialX        2   24[COMRAM] int 
 10586 ;; Return value:  Size  Location     Type
 10587 ;;                  1    wreg      void 
 10588 ;; Registers used:
 10589 ;;		wreg, fsr2l, fsr2h, status,2, status,0, cstack
 10590 ;; Tracked objects:
 10591 ;;		On entry : 0/0
 10592 ;;		On exit  : 0/0
 10593 ;;		Unchanged: 0/0
 10594 ;; Data sizes:     COMRAM   BANK0   BANK1   BANK2   BANK3   BANK4   BANK5   BANK6   BANK7   BANK8   BANK9  BANK10  BANK1
      +1  BANK12  BANK13  BANK14  BANK15
 10595 ;;      Params:         4       0       0       0       0       0       0       0       0       0       0       0       
      +0       0       0       0       0
 10596 ;;      Locals:         6       0       0       0       0       0       0       0       0       0       0       0       
      +0       0       0       0       0
 10597 ;;      Temps:          0       0       0       0       0       0       0       0       0       0       0       0       
      +0       0       0       0       0
 10598 ;;      Totals:        10       0       0       0       0       0       0       0       0       0       0       0       
      +0       0       0       0       0
 10599 ;;Total ram usage:       10 bytes
 10600 ;; Hardware stack levels used: 1
 10601 ;; Hardware stack levels required when called: 7
 10602 ;; This function calls:
 10603 ;;		_LCD_MoveCursorLeft
 10604 ;;		_LCD_MoveCursorRight
 10605 ;;		_LCD_PrintChar
 10606 ;;		_strlen
 10607 ;;		i2_LCD_SetCursorAt
 10608 ;;		i2__delay_ms
 10609 ;; This function is called by:
 10610 ;;		_HandleInterrupt
 10611 ;;		_LCD_PrintNum
 10612 ;; This function uses a non-reentrant model
 10613 ;;
 10614                           
 10615                           	psect	text53
 10616   003E80                     __ptext53:
 10617                           	callstack 0
 10618   003E80                     _LCD_PrintStr:
 10619                           	callstack 15
 10620   003E80                     
 10621                           ;LCD-library/LCD-library.c: 139:     int initialX = LCD_posX;
 10622   003E80  C1B5  F019         	movff	_LCD_posX,LCD_PrintStr@initialX
 10623   003E84  C1B6  F01A         	movff	_LCD_posX+1,LCD_PrintStr@initialX+1
 10624                           
 10625                           ;LCD-library/LCD-library.c: 140:     int initialY = LCD_posY;
 10626   003E88  C1B3  F01B         	movff	_LCD_posY,LCD_PrintStr@initialY
 10627   003E8C  C1B4  F01C         	movff	_LCD_posY+1,LCD_PrintStr@initialY+1
 10628   003E90                     
 10629                           ;LCD-library/LCD-library.c: 141:     for(int i = 0; i < strlen(str); i++) {
 10630   003E90  0E00               	movlw	0
 10631   003E92  6E1E               	movwf	(LCD_PrintStr@i+1)^0,c
 10632   003E94  0E00               	movlw	0
 10633   003E96  6E1D               	movwf	LCD_PrintStr@i^0,c
 10634   003E98  EF95  F01F         	goto	i2l5070
 10635   003E9C                     i2l5054:
 10636                           
 10637                           ;LCD-library/LCD-library.c: 142:         if (i == 16) LCD_SetCursorAt(1, 2);
 10638   003E9C  0E10               	movlw	16
 10639   003E9E  181D               	xorwf	LCD_PrintStr@i^0,w,c
 10640   003EA0  101E               	iorwf	(LCD_PrintStr@i+1)^0,w,c
 10641   003EA2  A4D8               	btfss	status,2,c
 10642   003EA4  EF56  F01F         	goto	i2u508_41
 10643   003EA8  EF58  F01F         	goto	i2u508_40
 10644   003EAC                     i2u508_41:
 10645   003EAC  EF62  F01F         	goto	i2l5058
 10646   003EB0                     i2u508_40:
 10647   003EB0  0E00               	movlw	0
 10648   003EB2  6E0B               	movwf	(i2LCD_SetCursorAt@x+1)^0,c
 10649   003EB4  0E01               	movlw	1
 10650   003EB6  6E0A               	movwf	i2LCD_SetCursorAt@x^0,c
 10651   003EB8  0E00               	movlw	0
 10652   003EBA  6E0D               	movwf	(i2LCD_SetCursorAt@y+1)^0,c
 10653   003EBC  0E02               	movlw	2
 10654   003EBE  6E0C               	movwf	i2LCD_SetCursorAt@y^0,c
 10655   003EC0  EC27  F020         	call	i2_LCD_SetCursorAt	;wreg free
 10656   003EC4                     i2l5058:
 10657                           
 10658                           ;LCD-library/LCD-library.c: 143:         LCD_PrintChar(str[i]);
 10659   003EC4  501D               	movf	LCD_PrintStr@i^0,w,c
 10660   003EC6  2415               	addwf	LCD_PrintStr@str^0,w,c
 10661   003EC8  6ED9               	movwf	fsr2l,c
 10662   003ECA  501E               	movf	(LCD_PrintStr@i+1)^0,w,c
 10663   003ECC  2016               	addwfc	(LCD_PrintStr@str+1)^0,w,c
 10664   003ECE  6EDA               	movwf	fsr2h,c
 10665   003ED0  50DF               	movf	indf2,w,c
 10666   003ED2  EC0A  F023         	call	_LCD_PrintChar
 10667   003ED6                     
 10668                           ;LCD-library/LCD-library.c: 144:         if(!LCD_isCursorMoving) {
 10669   003ED6  0100               	movlb	0	; () banked
 10670   003ED8  51FD               	movf	_LCD_isCursorMoving& (0+255),w,b
 10671   003EDA  11FE               	iorwf	(_LCD_isCursorMoving+1)& (0+255),w,b
 10672   003EDC  A4D8               	btfss	status,2,c
 10673   003EDE  EF73  F01F         	goto	i2u509_41
 10674   003EE2  EF75  F01F         	goto	i2u509_40
 10675   003EE6                     i2u509_41:
 10676   003EE6  EF8D  F01F         	goto	i2l126
 10677   003EEA                     i2u509_40:
 10678   003EEA                     
 10679                           ; BSR set to: 0
 10680                           ;LCD-library/LCD-library.c: 145:             if(LCD_isIncrement) LCD_MoveCursorRight(1);
 10681   003EEA  0101               	movlb	1	; () banked
 10682   003EEC  51B1               	movf	_LCD_isIncrement& (0+255),w,b
 10683   003EEE  11B2               	iorwf	(_LCD_isIncrement+1)& (0+255),w,b
 10684   003EF0  B4D8               	btfsc	status,2,c
 10685   003EF2  EF7D  F01F         	goto	i2u510_41
 10686   003EF6  EF7F  F01F         	goto	i2u510_40
 10687   003EFA                     i2u510_41:
 10688   003EFA  EF87  F01F         	goto	i2l5066
 10689   003EFE                     i2u510_40:
 10690   003EFE                     
 10691                           ; BSR set to: 1
 10692   003EFE  0E00               	movlw	0
 10693   003F00  6E11               	movwf	(LCD_MoveCursorRight@amount+1)^0,c
 10694   003F02  0E01               	movlw	1
 10695   003F04  6E10               	movwf	LCD_MoveCursorRight@amount^0,c
 10696   003F06  EC3F  F025         	call	_LCD_MoveCursorRight	;wreg free
 10697   003F0A  EF8D  F01F         	goto	i2l126
 10698   003F0E                     i2l5066:
 10699                           
 10700                           ; BSR set to: 1
 10701   003F0E  0E00               	movlw	0
 10702   003F10  6E11               	movwf	(LCD_MoveCursorLeft@amound+1)^0,c
 10703   003F12  0E01               	movlw	1
 10704   003F14  6E10               	movwf	LCD_MoveCursorLeft@amound^0,c
 10705   003F16  ECA9  F025         	call	_LCD_MoveCursorLeft	;wreg free
 10706   003F1A                     i2l126:
 10707                           
 10708                           ;LCD-library/LCD-library.c: 148:         _delay_ms(delay);
 10709   003F1A  C017  F001         	movff	LCD_PrintStr@delay,i2__delay_ms@ms
 10710   003F1E  C018  F002         	movff	LCD_PrintStr@delay+1,i2__delay_ms@ms+1
 10711   003F22  EC51  F026         	call	i2__delay_ms	;wreg free
 10712   003F26                     
 10713                           ;LCD-library/LCD-library.c: 149:     }
 10714   003F26  4A1D               	infsnz	LCD_PrintStr@i^0,f,c
 10715   003F28  2A1E               	incf	(LCD_PrintStr@i+1)^0,f,c
 10716   003F2A                     i2l5070:
 10717   003F2A  C015  F001         	movff	LCD_PrintStr@str,strlen@s
 10718   003F2E  C016  F002         	movff	LCD_PrintStr@str+1,strlen@s+1
 10719   003F32  ECC7  F026         	call	_strlen	;wreg free
 10720   003F36  5001               	movf	?_strlen^0,w,c
 10721   003F38  5C1D               	subwf	LCD_PrintStr@i^0,w,c
 10722   003F3A  5002               	movf	(?_strlen+1)^0,w,c
 10723   003F3C  581E               	subwfb	(LCD_PrintStr@i+1)^0,w,c
 10724   003F3E  A0D8               	btfss	status,0,c
 10725   003F40  EFA4  F01F         	goto	i2u511_41
 10726   003F44  EFA6  F01F         	goto	i2u511_40
 10727   003F48                     i2u511_41:
 10728   003F48  EF4E  F01F         	goto	i2l5054
 10729   003F4C                     i2u511_40:
 10730   003F4C                     
 10731                           ;LCD-library/LCD-library.c: 150:     if(!LCD_isCursorMoving) LCD_SetCursorAt(initialX, i
      +                          nitialY);
 10732   003F4C  0100               	movlb	0	; () banked
 10733   003F4E  51FD               	movf	_LCD_isCursorMoving& (0+255),w,b
 10734   003F50  11FE               	iorwf	(_LCD_isCursorMoving+1)& (0+255),w,b
 10735   003F52  A4D8               	btfss	status,2,c
 10736   003F54  EFAE  F01F         	goto	i2u512_41
 10737   003F58  EFB0  F01F         	goto	i2u512_40
 10738   003F5C                     i2u512_41:
 10739   003F5C  EFBA  F01F         	goto	i2l131
 10740   003F60                     i2u512_40:
 10741   003F60                     
 10742                           ; BSR set to: 0
 10743   003F60  C019  F00A         	movff	LCD_PrintStr@initialX,i2LCD_SetCursorAt@x
 10744   003F64  C01A  F00B         	movff	LCD_PrintStr@initialX+1,i2LCD_SetCursorAt@x+1
 10745   003F68  C01B  F00C         	movff	LCD_PrintStr@initialY,i2LCD_SetCursorAt@y
 10746   003F6C  C01C  F00D         	movff	LCD_PrintStr@initialY+1,i2LCD_SetCursorAt@y+1
 10747   003F70  EC27  F020         	call	i2_LCD_SetCursorAt	;wreg free
 10748   003F74                     i2l131:
 10749   003F74  0012               	return		;funcret
 10750   003F76                     __end_of_LCD_PrintStr:
 10751                           	callstack 0
 10752                           
 10753 ;; *************** function _strlen *****************
 10754 ;; Defined at:
 10755 ;;		line 5 in file "C:\Program Files\Microchip\xc8\v2.41\pic\sources\c99\common\strlen.c"
 10756 ;; Parameters:    Size  Location     Type
 10757 ;;  s               2    0[COMRAM] PTR const unsigned char 
 10758 ;;		 -> HandleInterrupt@temperature(6), HandleInterrupt@potValue(5), command(34), LCD_PrintNum@strNumber(20), 
 10759 ;; Auto vars:     Size  Location     Type
 10760 ;;  a               2    2[COMRAM] PTR const unsigned char 
 10761 ;;		 -> HandleInterrupt@temperature(6), HandleInterrupt@potValue(5), command(34), LCD_PrintNum@strNumber(20), 
 10762 ;; Return value:  Size  Location     Type
 10763 ;;                  2    0[COMRAM] unsigned int 
 10764 ;; Registers used:
 10765 ;;		wreg, fsr2l, fsr2h, status,2, status,0
 10766 ;; Tracked objects:
 10767 ;;		On entry : 0/0
 10768 ;;		On exit  : 0/0
 10769 ;;		Unchanged: 0/0
 10770 ;; Data sizes:     COMRAM   BANK0   BANK1   BANK2   BANK3   BANK4   BANK5   BANK6   BANK7   BANK8   BANK9  BANK10  BANK1
      +1  BANK12  BANK13  BANK14  BANK15
 10771 ;;      Params:         2       0       0       0       0       0       0       0       0       0       0       0       
      +0       0       0       0       0
 10772 ;;      Locals:         2       0       0       0       0       0       0       0       0       0       0       0       
      +0       0       0       0       0
 10773 ;;      Temps:          0       0       0       0       0       0       0       0       0       0       0       0       
      +0       0       0       0       0
 10774 ;;      Totals:         4       0       0       0       0       0       0       0       0       0       0       0       
      +0       0       0       0       0
 10775 ;;Total ram usage:        4 bytes
 10776 ;; Hardware stack levels used: 1
 10777 ;; This function calls:
 10778 ;;		Nothing
 10779 ;; This function is called by:
 10780 ;;		_LCD_PrintStr
 10781 ;;		_HandleInterrupt
 10782 ;; This function uses a non-reentrant model
 10783 ;;
 10784                           
 10785                           	psect	text54
 10786   004D8E                     __ptext54:
 10787                           	callstack 0
 10788   004D8E                     _strlen:
 10789                           	callstack 22
 10790   004D8E  C001  F003         	movff	strlen@s,strlen@a
 10791   004D92  C002  F004         	movff	strlen@s+1,strlen@a+1
 10792   004D96  EFCF  F026         	goto	i2l4938
 10793   004D9A                     i2l4936:
 10794   004D9A  4A01               	infsnz	strlen@s^0,f,c
 10795   004D9C  2A02               	incf	(strlen@s+1)^0,f,c
 10796   004D9E                     i2l4938:
 10797   004D9E  C001  FFD9         	movff	strlen@s,fsr2l
 10798   004DA2  C002  FFDA         	movff	strlen@s+1,fsr2h
 10799   004DA6  50DF               	movf	indf2,w,c
 10800   004DA8  A4D8               	btfss	status,2,c
 10801   004DAA  EFD9  F026         	goto	i2u490_41
 10802   004DAE  EFDB  F026         	goto	i2u490_40
 10803   004DB2                     i2u490_41:
 10804   004DB2  EFCD  F026         	goto	i2l4936
 10805   004DB6                     i2u490_40:
 10806   004DB6  5003               	movf	strlen@a^0,w,c
 10807   004DB8  5C01               	subwf	strlen@s^0,w,c
 10808   004DBA  6E01               	movwf	?_strlen^0,c
 10809   004DBC  5004               	movf	(strlen@a+1)^0,w,c
 10810   004DBE  5802               	subwfb	(strlen@s+1)^0,w,c
 10811   004DC0  6E02               	movwf	(?_strlen+1)^0,c
 10812   004DC2  0012               	return		;funcret
 10813   004DC4                     __end_of_strlen:
 10814                           	callstack 0
 10815                           
 10816 ;; *************** function _LCD_PrintChar *****************
 10817 ;; Defined at:
 10818 ;;		line 130 in file "LCD-library/LCD-library.c"
 10819 ;; Parameters:    Size  Location     Type
 10820 ;;  inputChar       1    wreg     unsigned char 
 10821 ;; Auto vars:     Size  Location     Type
 10822 ;;  inputChar       1   19[COMRAM] unsigned char 
 10823 ;; Return value:  Size  Location     Type
 10824 ;;                  1    wreg      void 
 10825 ;; Registers used:
 10826 ;;		wreg, status,2, status,0, cstack
 10827 ;; Tracked objects:
 10828 ;;		On entry : 0/0
 10829 ;;		On exit  : 0/0
 10830 ;;		Unchanged: 0/0
 10831 ;; Data sizes:     COMRAM   BANK0   BANK1   BANK2   BANK3   BANK4   BANK5   BANK6   BANK7   BANK8   BANK9  BANK10  BANK1
      +1  BANK12  BANK13  BANK14  BANK15
 10832 ;;      Params:         0       0       0       0       0       0       0       0       0       0       0       0       
      +0       0       0       0       0
 10833 ;;      Locals:         1       0       0       0       0       0       0       0       0       0       0       0       
      +0       0       0       0       0
 10834 ;;      Temps:          0       0       0       0       0       0       0       0       0       0       0       0       
      +0       0       0       0       0
 10835 ;;      Totals:         1       0       0       0       0       0       0       0       0       0       0       0       
      +0       0       0       0       0
 10836 ;;Total ram usage:        1 bytes
 10837 ;; Hardware stack levels used: 1
 10838 ;; Hardware stack levels required when called: 6
 10839 ;; This function calls:
 10840 ;;		_LCD_MoveCursorLeft
 10841 ;;		_LCD_MoveCursorRight
 10842 ;;		i2_LCD_Code
 10843 ;; This function is called by:
 10844 ;;		_LCD_PrintStr
 10845 ;; This function uses a non-reentrant model
 10846 ;;
 10847                           
 10848                           	psect	text55
 10849   004614                     __ptext55:
 10850                           	callstack 0
 10851   004614                     _LCD_PrintChar:
 10852                           	callstack 15
 10853                           
 10854                           ;incstack = 0
 10855                           ;LCD_PrintChar@inputChar stored from wreg
 10856   004614  6E14               	movwf	LCD_PrintChar@inputChar^0,c
 10857   004616                     
 10858                           ;LCD-library/LCD-library.c: 131:     LCD_Code(0b1000000000 + inputChar);
 10859   004616  0E00               	movlw	0
 10860   004618  2414               	addwf	LCD_PrintChar@inputChar^0,w,c
 10861   00461A  6E08               	movwf	i2LCD_Code@code^0,c
 10862   00461C  6A09               	clrf	(i2LCD_Code@code+1)^0,c
 10863   00461E  0E02               	movlw	2
 10864   004620  2209               	addwfc	(i2LCD_Code@code+1)^0,f,c
 10865   004622  ECE8  F027         	call	i2_LCD_Code	;wreg free
 10866   004626                     
 10867                           ;LCD-library/LCD-library.c: 132:     if(LCD_isIncrement) LCD_posX++; else LCD_posX--;
 10868   004626  0101               	movlb	1	; () banked
 10869   004628  51B1               	movf	_LCD_isIncrement& (0+255),w,b
 10870   00462A  11B2               	iorwf	(_LCD_isIncrement+1)& (0+255),w,b
 10871   00462C  B4D8               	btfsc	status,2,c
 10872   00462E  EF1B  F023         	goto	i2u487_41
 10873   004632  EF1D  F023         	goto	i2u487_40
 10874   004636                     i2u487_41:
 10875   004636  EF21  F023         	goto	i2l4924
 10876   00463A                     i2u487_40:
 10877   00463A                     
 10878                           ; BSR set to: 1
 10879   00463A  4BB5               	infsnz	_LCD_posX& (0+255),f,b
 10880   00463C  2BB6               	incf	(_LCD_posX+1)& (0+255),f,b
 10881   00463E  EF24  F023         	goto	i2l4926
 10882   004642                     i2l4924:
 10883                           
 10884                           ; BSR set to: 1
 10885   004642  07B5               	decf	_LCD_posX& (0+255),f,b
 10886   004644  A0D8               	btfss	status,0,c
 10887   004646  07B6               	decf	(_LCD_posX+1)& (0+255),f,b
 10888   004648                     i2l4926:
 10889                           
 10890                           ; BSR set to: 1
 10891                           ;LCD-library/LCD-library.c: 133:     if(!LCD_isCursorMoving) {
 10892   004648  0100               	movlb	0	; () banked
 10893   00464A  51FD               	movf	_LCD_isCursorMoving& (0+255),w,b
 10894   00464C  11FE               	iorwf	(_LCD_isCursorMoving+1)& (0+255),w,b
 10895   00464E  A4D8               	btfss	status,2,c
 10896   004650  EF2C  F023         	goto	i2u488_41
 10897   004654  EF2E  F023         	goto	i2u488_40
 10898   004658                     i2u488_41:
 10899   004658  EF46  F023         	goto	i2l120
 10900   00465C                     i2u488_40:
 10901   00465C                     
 10902                           ; BSR set to: 0
 10903                           ;LCD-library/LCD-library.c: 134:         if(LCD_isIncrement) LCD_MoveCursorLeft(1);
 10904   00465C  0101               	movlb	1	; () banked
 10905   00465E  51B1               	movf	_LCD_isIncrement& (0+255),w,b
 10906   004660  11B2               	iorwf	(_LCD_isIncrement+1)& (0+255),w,b
 10907   004662  B4D8               	btfsc	status,2,c
 10908   004664  EF36  F023         	goto	i2u489_41
 10909   004668  EF38  F023         	goto	i2u489_40
 10910   00466C                     i2u489_41:
 10911   00466C  EF40  F023         	goto	i2l4932
 10912   004670                     i2u489_40:
 10913   004670                     
 10914                           ; BSR set to: 1
 10915   004670  0E00               	movlw	0
 10916   004672  6E11               	movwf	(LCD_MoveCursorLeft@amound+1)^0,c
 10917   004674  0E01               	movlw	1
 10918   004676  6E10               	movwf	LCD_MoveCursorLeft@amound^0,c
 10919   004678  ECA9  F025         	call	_LCD_MoveCursorLeft	;wreg free
 10920   00467C  EF46  F023         	goto	i2l120
 10921   004680                     i2l4932:
 10922                           
 10923                           ; BSR set to: 1
 10924   004680  0E00               	movlw	0
 10925   004682  6E11               	movwf	(LCD_MoveCursorRight@amount+1)^0,c
 10926   004684  0E01               	movlw	1
 10927   004686  6E10               	movwf	LCD_MoveCursorRight@amount^0,c
 10928   004688  EC3F  F025         	call	_LCD_MoveCursorRight	;wreg free
 10929   00468C                     i2l120:
 10930   00468C  0012               	return		;funcret
 10931   00468E                     __end_of_LCD_PrintChar:
 10932                           	callstack 0
 10933                           
 10934 ;; *************** function _LCD_MoveCursorRight *****************
 10935 ;; Defined at:
 10936 ;;		line 219 in file "LCD-library/LCD-library.c"
 10937 ;; Parameters:    Size  Location     Type
 10938 ;;  amount          2   15[COMRAM] int 
 10939 ;; Auto vars:     Size  Location     Type
 10940 ;;		None
 10941 ;; Return value:  Size  Location     Type
 10942 ;;                  1    wreg      void 
 10943 ;; Registers used:
 10944 ;;		wreg, status,2, status,0, cstack
 10945 ;; Tracked objects:
 10946 ;;		On entry : 0/0
 10947 ;;		On exit  : 0/0
 10948 ;;		Unchanged: 0/0
 10949 ;; Data sizes:     COMRAM   BANK0   BANK1   BANK2   BANK3   BANK4   BANK5   BANK6   BANK7   BANK8   BANK9  BANK10  BANK1
      +1  BANK12  BANK13  BANK14  BANK15
 10950 ;;      Params:         2       0       0       0       0       0       0       0       0       0       0       0       
      +0       0       0       0       0
 10951 ;;      Locals:         0       0       0       0       0       0       0       0       0       0       0       0       
      +0       0       0       0       0
 10952 ;;      Temps:          2       0       0       0       0       0       0       0       0       0       0       0       
      +0       0       0       0       0
 10953 ;;      Totals:         4       0       0       0       0       0       0       0       0       0       0       0       
      +0       0       0       0       0
 10954 ;;Total ram usage:        4 bytes
 10955 ;; Hardware stack levels used: 1
 10956 ;; Hardware stack levels required when called: 5
 10957 ;; This function calls:
 10958 ;;		i2_LCD_SetCursorAt
 10959 ;; This function is called by:
 10960 ;;		_LCD_PrintChar
 10961 ;;		_LCD_PrintStr
 10962 ;; This function uses a non-reentrant model
 10963 ;;
 10964                           
 10965                           	psect	text56
 10966   004A7E                     __ptext56:
 10967                           	callstack 0
 10968   004A7E                     _LCD_MoveCursorRight:
 10969                           	callstack 15
 10970   004A7E                     
 10971                           ;LCD-library/LCD-library.c: 220:     if(LCD_posX +amount <= 16) {
 10972   004A7E  5010               	movf	LCD_MoveCursorRight@amount^0,w,c
 10973   004A80  0101               	movlb	1	; () banked
 10974   004A82  25B5               	addwf	_LCD_posX& (0+255),w,b
 10975   004A84  6E12               	movwf	??_LCD_MoveCursorRight^0,c
 10976   004A86  5011               	movf	(LCD_MoveCursorRight@amount+1)^0,w,c
 10977   004A88  21B6               	addwfc	(_LCD_posX+1)& (0+255),w,b
 10978   004A8A  6E13               	movwf	(??_LCD_MoveCursorRight+1)^0,c
 10979   004A8C  BE13               	btfsc	(??_LCD_MoveCursorRight+1)^0,7,c
 10980   004A8E  EF54  F025         	goto	i2u480_40
 10981   004A92  5013               	movf	(??_LCD_MoveCursorRight+1)^0,w,c
 10982   004A94  E107               	bnz	i2u480_41
 10983   004A96  0E11               	movlw	17
 10984   004A98  5C12               	subwf	??_LCD_MoveCursorRight^0,w,c
 10985   004A9A  B0D8               	btfsc	status,0,c
 10986   004A9C  EF52  F025         	goto	i2u480_41
 10987   004AA0  EF54  F025         	goto	i2u480_40
 10988   004AA4                     i2u480_41:
 10989   004AA4  EF62  F025         	goto	i2l181
 10990   004AA8                     i2u480_40:
 10991   004AA8                     
 10992                           ; BSR set to: 1
 10993                           ;LCD-library/LCD-library.c: 221:         LCD_posX += amount;
 10994   004AA8  5010               	movf	LCD_MoveCursorRight@amount^0,w,c
 10995   004AAA  27B5               	addwf	_LCD_posX& (0+255),f,b
 10996   004AAC  5011               	movf	(LCD_MoveCursorRight@amount+1)^0,w,c
 10997   004AAE  23B6               	addwfc	(_LCD_posX+1)& (0+255),f,b
 10998   004AB0                     
 10999                           ; BSR set to: 1
 11000                           ;LCD-library/LCD-library.c: 222:         LCD_SetCursorAt(LCD_posX, LCD_posY);
 11001   004AB0  C1B5  F00A         	movff	_LCD_posX,i2LCD_SetCursorAt@x
 11002   004AB4  C1B6  F00B         	movff	_LCD_posX+1,i2LCD_SetCursorAt@x+1
 11003   004AB8  C1B3  F00C         	movff	_LCD_posY,i2LCD_SetCursorAt@y
 11004   004ABC  C1B4  F00D         	movff	_LCD_posY+1,i2LCD_SetCursorAt@y+1
 11005   004AC0  EC27  F020         	call	i2_LCD_SetCursorAt	;wreg free
 11006   004AC4                     i2l181:
 11007   004AC4  0012               	return		;funcret
 11008   004AC6                     __end_of_LCD_MoveCursorRight:
 11009                           	callstack 0
 11010                           
 11011 ;; *************** function _LCD_MoveCursorLeft *****************
 11012 ;; Defined at:
 11013 ;;		line 213 in file "LCD-library/LCD-library.c"
 11014 ;; Parameters:    Size  Location     Type
 11015 ;;  amound          2   15[COMRAM] int 
 11016 ;; Auto vars:     Size  Location     Type
 11017 ;;		None
 11018 ;; Return value:  Size  Location     Type
 11019 ;;                  1    wreg      void 
 11020 ;; Registers used:
 11021 ;;		wreg, status,2, status,0, cstack
 11022 ;; Tracked objects:
 11023 ;;		On entry : 0/0
 11024 ;;		On exit  : 0/0
 11025 ;;		Unchanged: 0/0
 11026 ;; Data sizes:     COMRAM   BANK0   BANK1   BANK2   BANK3   BANK4   BANK5   BANK6   BANK7   BANK8   BANK9  BANK10  BANK1
      +1  BANK12  BANK13  BANK14  BANK15
 11027 ;;      Params:         2       0       0       0       0       0       0       0       0       0       0       0       
      +0       0       0       0       0
 11028 ;;      Locals:         0       0       0       0       0       0       0       0       0       0       0       0       
      +0       0       0       0       0
 11029 ;;      Temps:          2       0       0       0       0       0       0       0       0       0       0       0       
      +0       0       0       0       0
 11030 ;;      Totals:         4       0       0       0       0       0       0       0       0       0       0       0       
      +0       0       0       0       0
 11031 ;;Total ram usage:        4 bytes
 11032 ;; Hardware stack levels used: 1
 11033 ;; Hardware stack levels required when called: 5
 11034 ;; This function calls:
 11035 ;;		i2_LCD_SetCursorAt
 11036 ;; This function is called by:
 11037 ;;		_LCD_PrintChar
 11038 ;;		_LCD_PrintStr
 11039 ;; This function uses a non-reentrant model
 11040 ;;
 11041                           
 11042                           	psect	text57
 11043   004B52                     __ptext57:
 11044                           	callstack 0
 11045   004B52                     _LCD_MoveCursorLeft:
 11046                           	callstack 15
 11047   004B52                     
 11048                           ;LCD-library/LCD-library.c: 214:     if(LCD_posX -amound >= 1) {
 11049   004B52  5010               	movf	LCD_MoveCursorLeft@amound^0,w,c
 11050   004B54  0101               	movlb	1	; () banked
 11051   004B56  5DB5               	subwf	_LCD_posX& (0+255),w,b
 11052   004B58  6E12               	movwf	??_LCD_MoveCursorLeft^0,c
 11053   004B5A  5011               	movf	(LCD_MoveCursorLeft@amound+1)^0,w,c
 11054   004B5C  59B6               	subwfb	(_LCD_posX+1)& (0+255),w,b
 11055   004B5E  6E13               	movwf	(??_LCD_MoveCursorLeft+1)^0,c
 11056   004B60  BE13               	btfsc	(??_LCD_MoveCursorLeft+1)^0,7,c
 11057   004B62  EFBB  F025         	goto	i2u479_41
 11058   004B66  5013               	movf	(??_LCD_MoveCursorLeft+1)^0,w,c
 11059   004B68  E108               	bnz	i2u479_40
 11060   004B6A  0412               	decf	??_LCD_MoveCursorLeft^0,w,c
 11061   004B6C  A0D8               	btfss	status,0,c
 11062   004B6E  EFBB  F025         	goto	i2u479_41
 11063   004B72  EFBD  F025         	goto	i2u479_40
 11064   004B76                     i2u479_41:
 11065   004B76  EFCB  F025         	goto	i2l177
 11066   004B7A                     i2u479_40:
 11067   004B7A                     
 11068                           ; BSR set to: 1
 11069                           ;LCD-library/LCD-library.c: 215:         LCD_posX -= amound;
 11070   004B7A  5010               	movf	LCD_MoveCursorLeft@amound^0,w,c
 11071   004B7C  5FB5               	subwf	_LCD_posX& (0+255),f,b
 11072   004B7E  5011               	movf	(LCD_MoveCursorLeft@amound+1)^0,w,c
 11073   004B80  5BB6               	subwfb	(_LCD_posX+1)& (0+255),f,b
 11074   004B82                     
 11075                           ; BSR set to: 1
 11076                           ;LCD-library/LCD-library.c: 216:         LCD_SetCursorAt(LCD_posX, LCD_posY);
 11077   004B82  C1B5  F00A         	movff	_LCD_posX,i2LCD_SetCursorAt@x
 11078   004B86  C1B6  F00B         	movff	_LCD_posX+1,i2LCD_SetCursorAt@x+1
 11079   004B8A  C1B3  F00C         	movff	_LCD_posY,i2LCD_SetCursorAt@y
 11080   004B8E  C1B4  F00D         	movff	_LCD_posY+1,i2LCD_SetCursorAt@y+1
 11081   004B92  EC27  F020         	call	i2_LCD_SetCursorAt	;wreg free
 11082   004B96                     i2l177:
 11083   004B96  0012               	return		;funcret
 11084   004B98                     __end_of_LCD_MoveCursorLeft:
 11085                           	callstack 0
 11086                           
 11087 ;; *************** function i2_LCD_SetCursorAt *****************
 11088 ;; Defined at:
 11089 ;;		line 174 in file "LCD-library/LCD-library.c"
 11090 ;; Parameters:    Size  Location     Type
 11091 ;;  x               2    9[COMRAM] int 
 11092 ;;  y               2   11[COMRAM] int 
 11093 ;; Auto vars:     Size  Location     Type
 11094 ;;		None
 11095 ;; Return value:  Size  Location     Type
 11096 ;;                  1    wreg      void 
 11097 ;; Registers used:
 11098 ;;		wreg, status,2, status,0, cstack
 11099 ;; Tracked objects:
 11100 ;;		On entry : 0/0
 11101 ;;		On exit  : 0/0
 11102 ;;		Unchanged: 0/0
 11103 ;; Data sizes:     COMRAM   BANK0   BANK1   BANK2   BANK3   BANK4   BANK5   BANK6   BANK7   BANK8   BANK9  BANK10  BANK1
      +1  BANK12  BANK13  BANK14  BANK15
 11104 ;;      Params:         4       0       0       0       0       0       0       0       0       0       0       0       
      +0       0       0       0       0
 11105 ;;      Locals:         0       0       0       0       0       0       0       0       0       0       0       0       
      +0       0       0       0       0
 11106 ;;      Temps:          2       0       0       0       0       0       0       0       0       0       0       0       
      +0       0       0       0       0
 11107 ;;      Totals:         6       0       0       0       0       0       0       0       0       0       0       0       
      +0       0       0       0       0
 11108 ;;Total ram usage:        6 bytes
 11109 ;; Hardware stack levels used: 1
 11110 ;; Hardware stack levels required when called: 4
 11111 ;; This function calls:
 11112 ;;		i2_LCD_Code
 11113 ;; This function is called by:
 11114 ;;		_LCD_PrintStr
 11115 ;;		_LCD_MoveCursorLeft
 11116 ;;		_LCD_MoveCursorRight
 11117 ;; This function uses a non-reentrant model
 11118 ;;
 11119                           
 11120                           	psect	text58
 11121   00404E                     __ptext58:
 11122                           	callstack 0
 11123   00404E                     i2_LCD_SetCursorAt:
 11124                           	callstack 17
 11125   00404E                     
 11126                           ;LCD-library/LCD-library.c: 175:     if(x >= 1 && x <= 16 && y >= 1 && y <= 2){
 11127   00404E  BE0B               	btfsc	(i2LCD_SetCursorAt@x+1)^0,7,c
 11128   004050  EF32  F020         	goto	i2u475_41
 11129   004054  500B               	movf	(i2LCD_SetCursorAt@x+1)^0,w,c
 11130   004056  E108               	bnz	i2u475_40
 11131   004058  040A               	decf	i2LCD_SetCursorAt@x^0,w,c
 11132   00405A  A0D8               	btfss	status,0,c
 11133   00405C  EF32  F020         	goto	i2u475_41
 11134   004060  EF34  F020         	goto	i2u475_40
 11135   004064                     i2u475_41:
 11136   004064  EF91  F020         	goto	i2l154
 11137   004068                     i2u475_40:
 11138   004068  BE0B               	btfsc	(i2LCD_SetCursorAt@x+1)^0,7,c
 11139   00406A  EF42  F020         	goto	i2u476_40
 11140   00406E  500B               	movf	(i2LCD_SetCursorAt@x+1)^0,w,c
 11141   004070  E107               	bnz	i2u476_41
 11142   004072  0E11               	movlw	17
 11143   004074  5C0A               	subwf	i2LCD_SetCursorAt@x^0,w,c
 11144   004076  B0D8               	btfsc	status,0,c
 11145   004078  EF40  F020         	goto	i2u476_41
 11146   00407C  EF42  F020         	goto	i2u476_40
 11147   004080                     i2u476_41:
 11148   004080  EF91  F020         	goto	i2l154
 11149   004084                     i2u476_40:
 11150   004084  BE0D               	btfsc	(i2LCD_SetCursorAt@y+1)^0,7,c
 11151   004086  EF4D  F020         	goto	i2u477_41
 11152   00408A  500D               	movf	(i2LCD_SetCursorAt@y+1)^0,w,c
 11153   00408C  E108               	bnz	i2u477_40
 11154   00408E  040C               	decf	i2LCD_SetCursorAt@y^0,w,c
 11155   004090  A0D8               	btfss	status,0,c
 11156   004092  EF4D  F020         	goto	i2u477_41
 11157   004096  EF4F  F020         	goto	i2u477_40
 11158   00409A                     i2u477_41:
 11159   00409A  EF91  F020         	goto	i2l154
 11160   00409E                     i2u477_40:
 11161   00409E  BE0D               	btfsc	(i2LCD_SetCursorAt@y+1)^0,7,c
 11162   0040A0  EF5D  F020         	goto	i2u478_40
 11163   0040A4  500D               	movf	(i2LCD_SetCursorAt@y+1)^0,w,c
 11164   0040A6  E107               	bnz	i2u478_41
 11165   0040A8  0E03               	movlw	3
 11166   0040AA  5C0C               	subwf	i2LCD_SetCursorAt@y^0,w,c
 11167   0040AC  B0D8               	btfsc	status,0,c
 11168   0040AE  EF5B  F020         	goto	i2u478_41
 11169   0040B2  EF5D  F020         	goto	i2u478_40
 11170   0040B6                     i2u478_41:
 11171   0040B6  EF91  F020         	goto	i2l154
 11172   0040BA                     i2u478_40:
 11173   0040BA                     
 11174                           ;LCD-library/LCD-library.c: 176:         LCD_posX = x;
 11175   0040BA  C00A  F1B5         	movff	i2LCD_SetCursorAt@x,_LCD_posX
 11176   0040BE  C00B  F1B6         	movff	i2LCD_SetCursorAt@x+1,_LCD_posX+1
 11177                           
 11178                           ;LCD-library/LCD-library.c: 177:         LCD_posY = y;
 11179   0040C2  C00C  F1B3         	movff	i2LCD_SetCursorAt@y,_LCD_posY
 11180   0040C6  C00D  F1B4         	movff	i2LCD_SetCursorAt@y+1,_LCD_posY+1
 11181                           
 11182                           ;LCD-library/LCD-library.c: 178:         switch(y) {
 11183   0040CA  EF7B  F020         	goto	i2l4794
 11184   0040CE                     i2l4786:
 11185   0040CE  0E7F               	movlw	127
 11186   0040D0  240A               	addwf	i2LCD_SetCursorAt@x^0,w,c
 11187   0040D2  6E08               	movwf	i2LCD_Code@code^0,c
 11188   0040D4  0E00               	movlw	0
 11189   0040D6  200B               	addwfc	(i2LCD_SetCursorAt@x+1)^0,w,c
 11190   0040D8  6E09               	movwf	(i2LCD_Code@code+1)^0,c
 11191   0040DA  ECE8  F027         	call	i2_LCD_Code	;wreg free
 11192   0040DE  EF91  F020         	goto	i2l154
 11193   0040E2                     i2l4788:
 11194   0040E2  0EBF               	movlw	191
 11195   0040E4  240A               	addwf	i2LCD_SetCursorAt@x^0,w,c
 11196   0040E6  6E08               	movwf	i2LCD_Code@code^0,c
 11197   0040E8  0E00               	movlw	0
 11198   0040EA  200B               	addwfc	(i2LCD_SetCursorAt@x+1)^0,w,c
 11199   0040EC  6E09               	movwf	(i2LCD_Code@code+1)^0,c
 11200   0040EE  ECE8  F027         	call	i2_LCD_Code	;wreg free
 11201   0040F2  EF91  F020         	goto	i2l154
 11202   0040F6                     i2l4794:
 11203   0040F6  C00C  F00E         	movff	i2LCD_SetCursorAt@y,??i2_LCD_SetCursorAt
 11204   0040FA  C00D  F00F         	movff	i2LCD_SetCursorAt@y+1,??i2_LCD_SetCursorAt+1
 11205                           
 11206                           ; Switch on 2 bytes has been partitioned into a top level switch of size 1, and 1 sub-sw
      +                          itches
 11207                           ; Switch size 1, requested type "simple"
 11208                           ; Number of cases is 1, Range of values is 0 to 0
 11209                           ; switch strategies available:
 11210                           ; Name         Instructions Cycles
 11211                           ; simple_byte            4     3 (average)
 11212                           ;	Chosen strategy is simple_byte
 11213   0040FE  500F               	movf	(??i2_LCD_SetCursorAt+1)^0,w,c
 11214   004100  0A00               	xorlw	0	; case 0
 11215   004102  B4D8               	btfsc	status,2,c
 11216   004104  EF86  F020         	goto	i2l5684
 11217   004108  EF67  F020         	goto	i2l4786
 11218   00410C                     i2l5684:
 11219                           
 11220                           ; Switch size 1, requested type "simple"
 11221                           ; Number of cases is 2, Range of values is 1 to 2
 11222                           ; switch strategies available:
 11223                           ; Name         Instructions Cycles
 11224                           ; simple_byte            7     4 (average)
 11225                           ;	Chosen strategy is simple_byte
 11226   00410C  500E               	movf	??i2_LCD_SetCursorAt^0,w,c
 11227   00410E  0A01               	xorlw	1	; case 1
 11228   004110  B4D8               	btfsc	status,2,c
 11229   004112  EF67  F020         	goto	i2l4786
 11230   004116  0A03               	xorlw	3	; case 2
 11231   004118  B4D8               	btfsc	status,2,c
 11232   00411A  EF71  F020         	goto	i2l4788
 11233   00411E  EF67  F020         	goto	i2l4786
 11234   004122                     i2l154:
 11235   004122  0012               	return		;funcret
 11236   004124                     __end_ofi2_LCD_SetCursorAt:
 11237                           	callstack 0
 11238                           
 11239 ;; *************** function _LCD_Clear *****************
 11240 ;; Defined at:
 11241 ;;		line 157 in file "LCD-library/LCD-library.c"
 11242 ;; Parameters:    Size  Location     Type
 11243 ;;		None
 11244 ;; Auto vars:     Size  Location     Type
 11245 ;;		None
 11246 ;; Return value:  Size  Location     Type
 11247 ;;                  1    wreg      void 
 11248 ;; Registers used:
 11249 ;;		wreg, status,2, status,0, cstack
 11250 ;; Tracked objects:
 11251 ;;		On entry : 0/0
 11252 ;;		On exit  : 0/0
 11253 ;;		Unchanged: 0/0
 11254 ;; Data sizes:     COMRAM   BANK0   BANK1   BANK2   BANK3   BANK4   BANK5   BANK6   BANK7   BANK8   BANK9  BANK10  BANK1
      +1  BANK12  BANK13  BANK14  BANK15
 11255 ;;      Params:         0       0       0       0       0       0       0       0       0       0       0       0       
      +0       0       0       0       0
 11256 ;;      Locals:         0       0       0       0       0       0       0       0       0       0       0       0       
      +0       0       0       0       0
 11257 ;;      Temps:          0       0       0       0       0       0       0       0       0       0       0       0       
      +0       0       0       0       0
 11258 ;;      Totals:         0       0       0       0       0       0       0       0       0       0       0       0       
      +0       0       0       0       0
 11259 ;;Total ram usage:        0 bytes
 11260 ;; Hardware stack levels used: 1
 11261 ;; Hardware stack levels required when called: 4
 11262 ;; This function calls:
 11263 ;;		i2_LCD_Code
 11264 ;;		i2__delay_ms
 11265 ;; This function is called by:
 11266 ;;		_HandleInterrupt
 11267 ;; This function uses a non-reentrant model
 11268 ;;
 11269                           
 11270                           	psect	text59
 11271   004E5C                     __ptext59:
 11272                           	callstack 0
 11273   004E5C                     _LCD_Clear:
 11274                           	callstack 18
 11275   004E5C                     
 11276                           ;LCD-library/LCD-library.c: 158:     LCD_Code(0b0000000001);
 11277   004E5C  0E00               	movlw	0
 11278   004E5E  6E09               	movwf	(i2LCD_Code@code+1)^0,c
 11279   004E60  0E01               	movlw	1
 11280   004E62  6E08               	movwf	i2LCD_Code@code^0,c
 11281   004E64  ECE8  F027         	call	i2_LCD_Code	;wreg free
 11282   004E68                     
 11283                           ;LCD-library/LCD-library.c: 159:     LCD_posX = LCD_posY = 1;
 11284   004E68  0E00               	movlw	0
 11285   004E6A  0101               	movlb	1	; () banked
 11286   004E6C  6FB4               	movwf	(_LCD_posY+1)& (0+255),b
 11287   004E6E  0E01               	movlw	1
 11288   004E70  6FB3               	movwf	_LCD_posY& (0+255),b
 11289   004E72  C1B3  F1B5         	movff	_LCD_posY,_LCD_posX
 11290   004E76  C1B4  F1B6         	movff	_LCD_posY+1,_LCD_posX+1
 11291   004E7A                     
 11292                           ; BSR set to: 1
 11293                           ;LCD-library/LCD-library.c: 160:     _delay_ms(200);
 11294   004E7A  0E00               	movlw	0
 11295   004E7C  6E02               	movwf	(i2__delay_ms@ms+1)^0,c
 11296   004E7E  0EC8               	movlw	200
 11297   004E80  6E01               	movwf	i2__delay_ms@ms^0,c
 11298   004E82  EC51  F026         	call	i2__delay_ms	;wreg free
 11299   004E86  0012               	return		;funcret
 11300   004E88                     __end_of_LCD_Clear:
 11301                           	callstack 0
 11302                           
 11303 ;; *************** function i2__delay_ms *****************
 11304 ;; Defined at:
 11305 ;;		line 8 in file "LCD-library/LCD-library.c"
 11306 ;; Parameters:    Size  Location     Type
 11307 ;;  ms              2    0[COMRAM] int 
 11308 ;; Auto vars:     Size  Location     Type
 11309 ;;  i               2    3[COMRAM] int 
 11310 ;; Return value:  Size  Location     Type
 11311 ;;                  1    wreg      void 
 11312 ;; Registers used:
 11313 ;;		wreg, status,2, status,0
 11314 ;; Tracked objects:
 11315 ;;		On entry : 0/0
 11316 ;;		On exit  : 0/0
 11317 ;;		Unchanged: 0/0
 11318 ;; Data sizes:     COMRAM   BANK0   BANK1   BANK2   BANK3   BANK4   BANK5   BANK6   BANK7   BANK8   BANK9  BANK10  BANK1
      +1  BANK12  BANK13  BANK14  BANK15
 11319 ;;      Params:         2       0       0       0       0       0       0       0       0       0       0       0       
      +0       0       0       0       0
 11320 ;;      Locals:         2       0       0       0       0       0       0       0       0       0       0       0       
      +0       0       0       0       0
 11321 ;;      Temps:          1       0       0       0       0       0       0       0       0       0       0       0       
      +0       0       0       0       0
 11322 ;;      Totals:         5       0       0       0       0       0       0       0       0       0       0       0       
      +0       0       0       0       0
 11323 ;;Total ram usage:        5 bytes
 11324 ;; Hardware stack levels used: 1
 11325 ;; This function calls:
 11326 ;;		Nothing
 11327 ;; This function is called by:
 11328 ;;		_LCD_PrintStr
 11329 ;;		_LCD_Clear
 11330 ;; This function uses a non-reentrant model
 11331 ;;
 11332                           
 11333                           	psect	text60
 11334   004CA2                     __ptext60:
 11335                           	callstack 0
 11336   004CA2                     i2__delay_ms:
 11337                           	callstack 21
 11338   004CA2  0E00               	movlw	0
 11339   004CA4  6E05               	movwf	(i2__delay_ms@i+1)^0,c
 11340   004CA6  0E00               	movlw	0
 11341   004CA8  6E04               	movwf	i2__delay_ms@i^0,c
 11342   004CAA  EF61  F026         	goto	i2l55
 11343   004CAE                     i2l5014:
 11344   004CAE  0E09               	movlw	9
 11345   004CB0  6E03               	movwf	??i2__delay_ms^0,c
 11346   004CB2  0E1C               	movlw	28
 11347   004CB4                     i2u566_47:
 11348   004CB4  2EE8               	decfsz	wreg,f,c
 11349   004CB6  D7FE               	bra	i2u566_47
 11350   004CB8  2E03               	decfsz	??i2__delay_ms^0,f,c
 11351   004CBA  D7FC               	bra	i2u566_47
 11352   004CBC  D000               	nop2	
 11353   004CBE  4A04               	infsnz	i2__delay_ms@i^0,f,c
 11354   004CC0  2A05               	incf	(i2__delay_ms@i+1)^0,f,c
 11355   004CC2                     i2l55:
 11356   004CC2  5001               	movf	i2__delay_ms@ms^0,w,c
 11357   004CC4  5C04               	subwf	i2__delay_ms@i^0,w,c
 11358   004CC6  5005               	movf	(i2__delay_ms@i+1)^0,w,c
 11359   004CC8  0A80               	xorlw	128
 11360   004CCA  6E03               	movwf	??i2__delay_ms^0,c
 11361   004CCC  5002               	movf	(i2__delay_ms@ms+1)^0,w,c
 11362   004CCE  0A80               	xorlw	128
 11363   004CD0  5803               	subwfb	??i2__delay_ms^0,w,c
 11364   004CD2  A0D8               	btfss	status,0,c
 11365   004CD4  EF6E  F026         	goto	i2u502_41
 11366   004CD8  EF70  F026         	goto	i2u502_40
 11367   004CDC                     i2u502_41:
 11368   004CDC  EF57  F026         	goto	i2l5014
 11369   004CE0                     i2u502_40:
 11370   004CE0  0012               	return		;funcret
 11371   004CE2                     __end_ofi2__delay_ms:
 11372                           	callstack 0
 11373                           
 11374 ;; *************** function i2_LCD_Code *****************
 11375 ;; Defined at:
 11376 ;;		line 75 in file "LCD-library/LCD-library.c"
 11377 ;; Parameters:    Size  Location     Type
 11378 ;;  code            2    7[COMRAM] int 
 11379 ;; Auto vars:     Size  Location     Type
 11380 ;;		None
 11381 ;; Return value:  Size  Location     Type
 11382 ;;                  1    wreg      void 
 11383 ;; Registers used:
 11384 ;;		wreg, status,2, status,0, cstack
 11385 ;; Tracked objects:
 11386 ;;		On entry : 0/0
 11387 ;;		On exit  : 0/0
 11388 ;;		Unchanged: 0/0
 11389 ;; Data sizes:     COMRAM   BANK0   BANK1   BANK2   BANK3   BANK4   BANK5   BANK6   BANK7   BANK8   BANK9  BANK10  BANK1
      +1  BANK12  BANK13  BANK14  BANK15
 11390 ;;      Params:         2       0       0       0       0       0       0       0       0       0       0       0       
      +0       0       0       0       0
 11391 ;;      Locals:         0       0       0       0       0       0       0       0       0       0       0       0       
      +0       0       0       0       0
 11392 ;;      Temps:          0       0       0       0       0       0       0       0       0       0       0       0       
      +0       0       0       0       0
 11393 ;;      Totals:         2       0       0       0       0       0       0       0       0       0       0       0       
      +0       0       0       0       0
 11394 ;;Total ram usage:        2 bytes
 11395 ;; Hardware stack levels used: 1
 11396 ;; Hardware stack levels required when called: 3
 11397 ;; This function calls:
 11398 ;;		i2_LCD_4bitCode
 11399 ;;		i2_LCD_8bitCode
 11400 ;; This function is called by:
 11401 ;;		_LCD_PrintChar
 11402 ;;		_LCD_Clear
 11403 ;;		i2_LCD_SetCursorAt
 11404 ;; This function uses a non-reentrant model
 11405 ;;
 11406                           
 11407                           	psect	text61
 11408   004FD0                     __ptext61:
 11409                           	callstack 0
 11410   004FD0                     i2_LCD_Code:
 11411                           	callstack 17
 11412   004FD0  C008  F006         	movff	i2LCD_Code@code,i2LCD_8bitCode@code
 11413   004FD4  C009  F007         	movff	i2LCD_Code@code+1,i2LCD_8bitCode@code+1
 11414   004FD8  ECAB  F027         	call	i2_LCD_8bitCode	;wreg free
 11415   004FDC  0012               	return		;funcret
 11416   004FDE                     __end_ofi2_LCD_Code:
 11417                           	callstack 0
 11418                           
 11419 ;; *************** function i2_LCD_8bitCode *****************
 11420 ;; Defined at:
 11421 ;;		line 57 in file "LCD-library/LCD-library.c"
 11422 ;; Parameters:    Size  Location     Type
 11423 ;;  code            2    5[COMRAM] int 
 11424 ;; Auto vars:     Size  Location     Type
 11425 ;;		None
 11426 ;; Return value:  Size  Location     Type
 11427 ;;                  1    wreg      void 
 11428 ;; Registers used:
 11429 ;;		wreg, status,2, status,0, cstack
 11430 ;; Tracked objects:
 11431 ;;		On entry : 0/0
 11432 ;;		On exit  : 0/0
 11433 ;;		Unchanged: 0/0
 11434 ;; Data sizes:     COMRAM   BANK0   BANK1   BANK2   BANK3   BANK4   BANK5   BANK6   BANK7   BANK8   BANK9  BANK10  BANK1
      +1  BANK12  BANK13  BANK14  BANK15
 11435 ;;      Params:         2       0       0       0       0       0       0       0       0       0       0       0       
      +0       0       0       0       0
 11436 ;;      Locals:         0       0       0       0       0       0       0       0       0       0       0       0       
      +0       0       0       0       0
 11437 ;;      Temps:          0       0       0       0       0       0       0       0       0       0       0       0       
      +0       0       0       0       0
 11438 ;;      Totals:         2       0       0       0       0       0       0       0       0       0       0       0       
      +0       0       0       0       0
 11439 ;;Total ram usage:        2 bytes
 11440 ;; Hardware stack levels used: 1
 11441 ;; Hardware stack levels required when called: 2
 11442 ;; This function calls:
 11443 ;;		i2_LCD_8bitCodeNoWait
 11444 ;;		i2_LCD_Wait
 11445 ;; This function is called by:
 11446 ;;		i2_LCD_Code
 11447 ;; This function uses a non-reentrant model
 11448 ;;
 11449                           
 11450                           	psect	text62
 11451   004F56                     __ptext62:
 11452                           	callstack 0
 11453   004F56                     i2_LCD_8bitCode:
 11454                           	callstack 17
 11455   004F56                     
 11456                           ;LCD-library/LCD-library.c: 58:     LCD_8bitCodeNoWait(code);
 11457   004F56  C006  F001         	movff	i2LCD_8bitCode@code,i2LCD_8bitCodeNoWait@code
 11458   004F5A  C007  F002         	movff	i2LCD_8bitCode@code+1,i2LCD_8bitCodeNoWait@code+1
 11459   004F5E  EC18  F025         	call	i2_LCD_8bitCodeNoWait	;wreg free
 11460                           
 11461                           ;LCD-library/LCD-library.c: 59:     LCD_Wait();
 11462   004F62  ECEF  F027         	call	i2_LCD_Wait	;wreg free
 11463   004F66  0012               	return		;funcret
 11464   004F68                     __end_ofi2_LCD_8bitCode:
 11465                           	callstack 0
 11466                           
 11467 ;; *************** function i2_LCD_8bitCodeNoWait *****************
 11468 ;; Defined at:
 11469 ;;		line 50 in file "LCD-library/LCD-library.c"
 11470 ;; Parameters:    Size  Location     Type
 11471 ;;  code            2    0[COMRAM] int 
 11472 ;; Auto vars:     Size  Location     Type
 11473 ;;		None
 11474 ;; Return value:  Size  Location     Type
 11475 ;;                  1    wreg      void 
 11476 ;; Registers used:
 11477 ;;		wreg, status,2, status,0
 11478 ;; Tracked objects:
 11479 ;;		On entry : 0/0
 11480 ;;		On exit  : 0/0
 11481 ;;		Unchanged: 0/0
 11482 ;; Data sizes:     COMRAM   BANK0   BANK1   BANK2   BANK3   BANK4   BANK5   BANK6   BANK7   BANK8   BANK9  BANK10  BANK1
      +1  BANK12  BANK13  BANK14  BANK15
 11483 ;;      Params:         2       0       0       0       0       0       0       0       0       0       0       0       
      +0       0       0       0       0
 11484 ;;      Locals:         0       0       0       0       0       0       0       0       0       0       0       0       
      +0       0       0       0       0
 11485 ;;      Temps:          3       0       0       0       0       0       0       0       0       0       0       0       
      +0       0       0       0       0
 11486 ;;      Totals:         5       0       0       0       0       0       0       0       0       0       0       0       
      +0       0       0       0       0
 11487 ;;Total ram usage:        5 bytes
 11488 ;; Hardware stack levels used: 1
 11489 ;; This function calls:
 11490 ;;		Nothing
 11491 ;; This function is called by:
 11492 ;;		i2_LCD_8bitCode
 11493 ;; This function uses a non-reentrant model
 11494 ;;
 11495                           
 11496                           	psect	text63
 11497   004A30                     __ptext63:
 11498                           	callstack 0
 11499   004A30                     i2_LCD_8bitCodeNoWait:
 11500                           	callstack 18
 11501   004A30                     
 11502                           ;LCD-library/LCD-library.c: 51:     PORTHbits.RH2 = (code & 0b1000000000) >> 9;
 11503   004A30  C001  F003         	movff	i2LCD_8bitCodeNoWait@code,??i2_LCD_8bitCodeNoWait
 11504   004A34  C002  F004         	movff	i2LCD_8bitCodeNoWait@code+1,??i2_LCD_8bitCodeNoWait+1
 11505   004A38  0E09               	movlw	9
 11506   004A3A  6E05               	movwf	(??i2_LCD_8bitCodeNoWait+2)^0,c
 11507   004A3C                     i2u290_45:
 11508   004A3C  3404               	rlcf	(??i2_LCD_8bitCodeNoWait+1)^0,w,c
 11509   004A3E  3204               	rrcf	(??i2_LCD_8bitCodeNoWait+1)^0,f,c
 11510   004A40  3203               	rrcf	??i2_LCD_8bitCodeNoWait^0,f,c
 11511   004A42  2E05               	decfsz	(??i2_LCD_8bitCodeNoWait+2)^0,f,c
 11512   004A44  EF1E  F025         	goto	i2u290_45
 11513   004A48  0E01               	movlw	1
 11514   004A4A  1603               	andwf	??i2_LCD_8bitCodeNoWait^0,f,c
 11515   004A4C  4603               	rlncf	??i2_LCD_8bitCodeNoWait^0,f,c
 11516   004A4E  4603               	rlncf	??i2_LCD_8bitCodeNoWait^0,f,c
 11517   004A50  5087               	movf	135,w,c	;volatile
 11518   004A52  1803               	xorwf	??i2_LCD_8bitCodeNoWait^0,w,c
 11519   004A54  0BFB               	andlw	-5
 11520   004A56  1803               	xorwf	??i2_LCD_8bitCodeNoWait^0,w,c
 11521   004A58  6E87               	movwf	135,c	;volatile
 11522                           
 11523                           ;LCD-library/LCD-library.c: 52:     PORTHbits.RH1 = (code & 0b0100000000) >> 8;
 11524   004A5A  C002  F003         	movff	i2LCD_8bitCodeNoWait@code+1,??i2_LCD_8bitCodeNoWait
 11525   004A5E  6A04               	clrf	(??i2_LCD_8bitCodeNoWait+1)^0,c
 11526   004A60  BE03               	btfsc	??i2_LCD_8bitCodeNoWait^0,7,c
 11527   004A62  6804               	setf	(??i2_LCD_8bitCodeNoWait+1)^0,c
 11528   004A64  0E01               	movlw	1
 11529   004A66  1603               	andwf	??i2_LCD_8bitCodeNoWait^0,f,c
 11530   004A68  4603               	rlncf	??i2_LCD_8bitCodeNoWait^0,f,c
 11531   004A6A  5087               	movf	135,w,c	;volatile
 11532   004A6C  1803               	xorwf	??i2_LCD_8bitCodeNoWait^0,w,c
 11533   004A6E  0BFD               	andlw	-3
 11534   004A70  1803               	xorwf	??i2_LCD_8bitCodeNoWait^0,w,c
 11535   004A72  6E87               	movwf	135,c	;volatile
 11536   004A74                     
 11537                           ;LCD-library/LCD-library.c: 53:     PORTE = code & 0b0011111111;
 11538   004A74  C001  FF84         	movff	i2LCD_8bitCodeNoWait@code,3972	;volatile
 11539   004A78                     
 11540                           ;LCD-library/LCD-library.c: 54:     PORTHbits.RH0 = 1;
 11541   004A78  8087               	bsf	135,0,c	;volatile
 11542   004A7A                     
 11543                           ;LCD-library/LCD-library.c: 55:     PORTHbits.RH0 = 0;
 11544   004A7A  9087               	bcf	135,0,c	;volatile
 11545   004A7C  0012               	return		;funcret
 11546   004A7E                     __end_ofi2_LCD_8bitCodeNoWait:
 11547                           	callstack 0
 11548                           
 11549 ;; *************** function i2_LCD_4bitCode *****************
 11550 ;; Defined at:
 11551 ;;		line 70 in file "LCD-library/LCD-library.c"
 11552 ;; Parameters:    Size  Location     Type
 11553 ;;  code            2    5[COMRAM] int 
 11554 ;; Auto vars:     Size  Location     Type
 11555 ;;		None
 11556 ;; Return value:  Size  Location     Type
 11557 ;;                  1    wreg      void 
 11558 ;; Registers used:
 11559 ;;		wreg, status,2, status,0, cstack
 11560 ;; Tracked objects:
 11561 ;;		On entry : 0/0
 11562 ;;		On exit  : 0/0
 11563 ;;		Unchanged: 0/0
 11564 ;; Data sizes:     COMRAM   BANK0   BANK1   BANK2   BANK3   BANK4   BANK5   BANK6   BANK7   BANK8   BANK9  BANK10  BANK1
      +1  BANK12  BANK13  BANK14  BANK15
 11565 ;;      Params:         2       0       0       0       0       0       0       0       0       0       0       0       
      +0       0       0       0       0
 11566 ;;      Locals:         0       0       0       0       0       0       0       0       0       0       0       0       
      +0       0       0       0       0
 11567 ;;      Temps:          0       0       0       0       0       0       0       0       0       0       0       0       
      +0       0       0       0       0
 11568 ;;      Totals:         2       0       0       0       0       0       0       0       0       0       0       0       
      +0       0       0       0       0
 11569 ;;Total ram usage:        2 bytes
 11570 ;; Hardware stack levels used: 1
 11571 ;; Hardware stack levels required when called: 2
 11572 ;; This function calls:
 11573 ;;		i2_LCD_4bitCodeNoWait
 11574 ;;		i2_LCD_Wait
 11575 ;; This function is called by:
 11576 ;;		i2_LCD_Code
 11577 ;; This function uses a non-reentrant model
 11578 ;;
 11579                           
 11580                           	psect	text64
 11581   004F68                     __ptext64:
 11582                           	callstack 0
 11583   004F68                     i2_LCD_4bitCode:
 11584                           	callstack 17
 11585   004F68                     
 11586                           ;LCD-library/LCD-library.c: 71:     LCD_4bitCodeNoWait(code);
 11587   004F68  C006  F001         	movff	i2LCD_4bitCode@code,i2LCD_4bitCodeNoWait@code
 11588   004F6C  C007  F002         	movff	i2LCD_4bitCode@code+1,i2LCD_4bitCodeNoWait@code+1
 11589   004F70  ECB7  F023         	call	i2_LCD_4bitCodeNoWait	;wreg free
 11590                           
 11591                           ;LCD-library/LCD-library.c: 72:     LCD_Wait();
 11592   004F74  ECEF  F027         	call	i2_LCD_Wait	;wreg free
 11593   004F78  0012               	return		;funcret
 11594   004F7A                     __end_ofi2_LCD_4bitCode:
 11595                           	callstack 0
 11596                           
 11597 ;; *************** function i2_LCD_Wait *****************
 11598 ;; Defined at:
 11599 ;;		line 11 in file "LCD-library/LCD-library.c"
 11600 ;; Parameters:    Size  Location     Type
 11601 ;;		None
 11602 ;; Auto vars:     Size  Location     Type
 11603 ;;		None
 11604 ;; Return value:  Size  Location     Type
 11605 ;;                  1    wreg      void 
 11606 ;; Registers used:
 11607 ;;		wreg, status,2, status,0, cstack
 11608 ;; Tracked objects:
 11609 ;;		On entry : 0/0
 11610 ;;		On exit  : 0/0
 11611 ;;		Unchanged: 0/0
 11612 ;; Data sizes:     COMRAM   BANK0   BANK1   BANK2   BANK3   BANK4   BANK5   BANK6   BANK7   BANK8   BANK9  BANK10  BANK1
      +1  BANK12  BANK13  BANK14  BANK15
 11613 ;;      Params:         0       0       0       0       0       0       0       0       0       0       0       0       
      +0       0       0       0       0
 11614 ;;      Locals:         0       0       0       0       0       0       0       0       0       0       0       0       
      +0       0       0       0       0
 11615 ;;      Temps:          0       0       0       0       0       0       0       0       0       0       0       0       
      +0       0       0       0       0
 11616 ;;      Totals:         0       0       0       0       0       0       0       0       0       0       0       0       
      +0       0       0       0       0
 11617 ;;Total ram usage:        0 bytes
 11618 ;; Hardware stack levels used: 1
 11619 ;; Hardware stack levels required when called: 1
 11620 ;; This function calls:
 11621 ;;		i2___delay
 11622 ;;		i2__delay_us
 11623 ;; This function is called by:
 11624 ;;		i2_LCD_8bitCode
 11625 ;;		i2_LCD_4bitCode
 11626 ;; This function uses a non-reentrant model
 11627 ;;
 11628                           
 11629                           	psect	text65
 11630   004FDE                     __ptext65:
 11631                           	callstack 0
 11632   004FDE                     i2_LCD_Wait:
 11633                           	callstack 17
 11634   004FDE  0E01               	movlw	1
 11635   004FE0  6E02               	movwf	(i2__delay_us@us+1)^0,c
 11636   004FE2  0EF4               	movlw	244
 11637   004FE4  6E01               	movwf	i2__delay_us@us^0,c
 11638   004FE6  ECE2  F026         	call	i2__delay_us	;wreg free
 11639   004FEA  0012               	return		;funcret
 11640   004FEC                     __end_ofi2_LCD_Wait:
 11641                           	callstack 0
 11642                           
 11643 ;; *************** function i2__delay_us *****************
 11644 ;; Defined at:
 11645 ;;		line 7 in file "LCD-library/LCD-library.c"
 11646 ;; Parameters:    Size  Location     Type
 11647 ;;  us              2    0[COMRAM] int 
 11648 ;; Auto vars:     Size  Location     Type
 11649 ;;  i               2    3[COMRAM] int 
 11650 ;; Return value:  Size  Location     Type
 11651 ;;                  1    wreg      void 
 11652 ;; Registers used:
 11653 ;;		wreg, status,2, status,0
 11654 ;; Tracked objects:
 11655 ;;		On entry : 0/0
 11656 ;;		On exit  : 0/0
 11657 ;;		Unchanged: 0/0
 11658 ;; Data sizes:     COMRAM   BANK0   BANK1   BANK2   BANK3   BANK4   BANK5   BANK6   BANK7   BANK8   BANK9  BANK10  BANK1
      +1  BANK12  BANK13  BANK14  BANK15
 11659 ;;      Params:         2       0       0       0       0       0       0       0       0       0       0       0       
      +0       0       0       0       0
 11660 ;;      Locals:         2       0       0       0       0       0       0       0       0       0       0       0       
      +0       0       0       0       0
 11661 ;;      Temps:          1       0       0       0       0       0       0       0       0       0       0       0       
      +0       0       0       0       0
 11662 ;;      Totals:         5       0       0       0       0       0       0       0       0       0       0       0       
      +0       0       0       0       0
 11663 ;;Total ram usage:        5 bytes
 11664 ;; Hardware stack levels used: 1
 11665 ;; This function calls:
 11666 ;;		Nothing
 11667 ;; This function is called by:
 11668 ;;		i2_LCD_Wait
 11669 ;; This function uses a non-reentrant model
 11670 ;;
 11671                           
 11672                           	psect	text66
 11673   004DC4                     __ptext66:
 11674                           	callstack 0
 11675   004DC4                     i2__delay_us:
 11676                           	callstack 17
 11677   004DC4  0E00               	movlw	0
 11678   004DC6  6E05               	movwf	(i2__delay_us@i+1)^0,c
 11679   004DC8  0E00               	movlw	0
 11680   004DCA  6E04               	movwf	i2__delay_us@i^0,c
 11681   004DCC  EFED  F026         	goto	i2l3588
 11682   004DD0                     i2l50:
 11683   004DD0  D000               	nop2		;2 cycle nop
 11684   004DD2  D000               	nop2		;2 cycle nop
 11685   004DD4  D000               	nop2		;2 cycle nop
 11686   004DD6  4A04               	infsnz	i2__delay_us@i^0,f,c
 11687   004DD8  2A05               	incf	(i2__delay_us@i+1)^0,f,c
 11688   004DDA                     i2l3588:
 11689   004DDA  5001               	movf	i2__delay_us@us^0,w,c
 11690   004DDC  5C04               	subwf	i2__delay_us@i^0,w,c
 11691   004DDE  5005               	movf	(i2__delay_us@i+1)^0,w,c
 11692   004DE0  0A80               	xorlw	128
 11693   004DE2  6E03               	movwf	??i2__delay_us^0,c
 11694   004DE4  5002               	movf	(i2__delay_us@us+1)^0,w,c
 11695   004DE6  0A80               	xorlw	128
 11696   004DE8  5803               	subwfb	??i2__delay_us^0,w,c
 11697   004DEA  A0D8               	btfss	status,0,c
 11698   004DEC  EFFA  F026         	goto	i2u285_41
 11699   004DF0  EFFC  F026         	goto	i2u285_40
 11700   004DF4                     i2u285_41:
 11701   004DF4  EFE8  F026         	goto	i2l50
 11702   004DF8                     i2u285_40:
 11703   004DF8  0012               	return		;funcret
 11704   004DFA                     __end_ofi2__delay_us:
 11705                           	callstack 0
 11706                           
 11707 ;; *************** function i2___delay *****************
 11708 ;; Defined at:
 11709 ;;		line 6 in file "LCD-library/LCD-library.c"
 11710 ;; Parameters:    Size  Location     Type
 11711 ;;  time            2    0[COMRAM] int 
 11712 ;; Auto vars:     Size  Location     Type
 11713 ;;  i               2    3[COMRAM] int 
 11714 ;; Return value:  Size  Location     Type
 11715 ;;                  1    wreg      void 
 11716 ;; Registers used:
 11717 ;;		wreg, status,2, status,0
 11718 ;; Tracked objects:
 11719 ;;		On entry : 0/0
 11720 ;;		On exit  : 0/0
 11721 ;;		Unchanged: 0/0
 11722 ;; Data sizes:     COMRAM   BANK0   BANK1   BANK2   BANK3   BANK4   BANK5   BANK6   BANK7   BANK8   BANK9  BANK10  BANK1
      +1  BANK12  BANK13  BANK14  BANK15
 11723 ;;      Params:         2       0       0       0       0       0       0       0       0       0       0       0       
      +0       0       0       0       0
 11724 ;;      Locals:         2       0       0       0       0       0       0       0       0       0       0       0       
      +0       0       0       0       0
 11725 ;;      Temps:          1       0       0       0       0       0       0       0       0       0       0       0       
      +0       0       0       0       0
 11726 ;;      Totals:         5       0       0       0       0       0       0       0       0       0       0       0       
      +0       0       0       0       0
 11727 ;;Total ram usage:        5 bytes
 11728 ;; Hardware stack levels used: 1
 11729 ;; This function calls:
 11730 ;;		Nothing
 11731 ;; This function is called by:
 11732 ;;		i2_LCD_Wait
 11733 ;; This function uses a non-reentrant model
 11734 ;;
 11735                           
 11736                           	psect	text67
 11737   004E2C                     __ptext67:
 11738                           	callstack 0
 11739   004E2C                     i2___delay:
 11740                           	callstack 17
 11741   004E2C  0E00               	movlw	0
 11742   004E2E  6E05               	movwf	(i2___delay@i+1)^0,c
 11743   004E30  0E00               	movlw	0
 11744   004E32  6E04               	movwf	i2___delay@i^0,c
 11745   004E34  EF1E  F027         	goto	i2l3582
 11746   004E38                     i2l3580:
 11747   004E38  4A04               	infsnz	i2___delay@i^0,f,c
 11748   004E3A  2A05               	incf	(i2___delay@i+1)^0,f,c
 11749   004E3C                     i2l3582:
 11750   004E3C  5001               	movf	i2___delay@time^0,w,c
 11751   004E3E  5C04               	subwf	i2___delay@i^0,w,c
 11752   004E40  5005               	movf	(i2___delay@i+1)^0,w,c
 11753   004E42  0A80               	xorlw	128
 11754   004E44  6E03               	movwf	??i2___delay^0,c
 11755   004E46  5002               	movf	(i2___delay@time+1)^0,w,c
 11756   004E48  0A80               	xorlw	128
 11757   004E4A  5803               	subwfb	??i2___delay^0,w,c
 11758   004E4C  A0D8               	btfss	status,0,c
 11759   004E4E  EF2B  F027         	goto	i2u284_41
 11760   004E52  EF2D  F027         	goto	i2u284_40
 11761   004E56                     i2u284_41:
 11762   004E56  EF1C  F027         	goto	i2l3580
 11763   004E5A                     i2u284_40:
 11764   004E5A  0012               	return		;funcret
 11765   004E5C                     __end_ofi2___delay:
 11766                           	callstack 0
 11767                           
 11768 ;; *************** function i2_LCD_4bitCodeNoWait *****************
 11769 ;; Defined at:
 11770 ;;		line 62 in file "LCD-library/LCD-library.c"
 11771 ;; Parameters:    Size  Location     Type
 11772 ;;  code            2    0[COMRAM] int 
 11773 ;; Auto vars:     Size  Location     Type
 11774 ;;		None
 11775 ;; Return value:  Size  Location     Type
 11776 ;;                  1    wreg      void 
 11777 ;; Registers used:
 11778 ;;		wreg, status,2, status,0
 11779 ;; Tracked objects:
 11780 ;;		On entry : 0/0
 11781 ;;		On exit  : 0/0
 11782 ;;		Unchanged: 0/0
 11783 ;; Data sizes:     COMRAM   BANK0   BANK1   BANK2   BANK3   BANK4   BANK5   BANK6   BANK7   BANK8   BANK9  BANK10  BANK1
      +1  BANK12  BANK13  BANK14  BANK15
 11784 ;;      Params:         2       0       0       0       0       0       0       0       0       0       0       0       
      +0       0       0       0       0
 11785 ;;      Locals:         0       0       0       0       0       0       0       0       0       0       0       0       
      +0       0       0       0       0
 11786 ;;      Temps:          3       0       0       0       0       0       0       0       0       0       0       0       
      +0       0       0       0       0
 11787 ;;      Totals:         5       0       0       0       0       0       0       0       0       0       0       0       
      +0       0       0       0       0
 11788 ;;Total ram usage:        5 bytes
 11789 ;; Hardware stack levels used: 1
 11790 ;; This function calls:
 11791 ;;		Nothing
 11792 ;; This function is called by:
 11793 ;;		i2_LCD_4bitCode
 11794 ;; This function uses a non-reentrant model
 11795 ;;
 11796                           
 11797                           	psect	text68
 11798   00476E                     __ptext68:
 11799                           	callstack 0
 11800   00476E                     i2_LCD_4bitCodeNoWait:
 11801                           	callstack 18
 11802   00476E                     
 11803                           ;LCD-library/LCD-library.c: 63:     PORTHbits.RH2 = (code & 0b100000) >> 5;
 11804   00476E  C001  F003         	movff	i2LCD_4bitCodeNoWait@code,??i2_LCD_4bitCodeNoWait
 11805   004772  C002  F004         	movff	i2LCD_4bitCodeNoWait@code+1,??i2_LCD_4bitCodeNoWait+1
 11806   004776  0E05               	movlw	5
 11807   004778  6E05               	movwf	(??i2_LCD_4bitCodeNoWait+2)^0,c
 11808   00477A                     i2u291_45:
 11809   00477A  3404               	rlcf	(??i2_LCD_4bitCodeNoWait+1)^0,w,c
 11810   00477C  3204               	rrcf	(??i2_LCD_4bitCodeNoWait+1)^0,f,c
 11811   00477E  3203               	rrcf	??i2_LCD_4bitCodeNoWait^0,f,c
 11812   004780  2E05               	decfsz	(??i2_LCD_4bitCodeNoWait+2)^0,f,c
 11813   004782  EFBD  F023         	goto	i2u291_45
 11814   004786  0E01               	movlw	1
 11815   004788  1603               	andwf	??i2_LCD_4bitCodeNoWait^0,f,c
 11816   00478A  4603               	rlncf	??i2_LCD_4bitCodeNoWait^0,f,c
 11817   00478C  4603               	rlncf	??i2_LCD_4bitCodeNoWait^0,f,c
 11818   00478E  5087               	movf	135,w,c	;volatile
 11819   004790  1803               	xorwf	??i2_LCD_4bitCodeNoWait^0,w,c
 11820   004792  0BFB               	andlw	-5
 11821   004794  1803               	xorwf	??i2_LCD_4bitCodeNoWait^0,w,c
 11822   004796  6E87               	movwf	135,c	;volatile
 11823                           
 11824                           ;LCD-library/LCD-library.c: 64:     PORTHbits.RH1 = (code & 0b010000) >> 4;
 11825   004798  C001  F003         	movff	i2LCD_4bitCodeNoWait@code,??i2_LCD_4bitCodeNoWait
 11826   00479C  C002  F004         	movff	i2LCD_4bitCodeNoWait@code+1,??i2_LCD_4bitCodeNoWait+1
 11827   0047A0  0E04               	movlw	4
 11828   0047A2  6E05               	movwf	(??i2_LCD_4bitCodeNoWait+2)^0,c
 11829   0047A4                     i2u292_45:
 11830   0047A4  3404               	rlcf	(??i2_LCD_4bitCodeNoWait+1)^0,w,c
 11831   0047A6  3204               	rrcf	(??i2_LCD_4bitCodeNoWait+1)^0,f,c
 11832   0047A8  3203               	rrcf	??i2_LCD_4bitCodeNoWait^0,f,c
 11833   0047AA  2E05               	decfsz	(??i2_LCD_4bitCodeNoWait+2)^0,f,c
 11834   0047AC  EFD2  F023         	goto	i2u292_45
 11835   0047B0  0E01               	movlw	1
 11836   0047B2  1603               	andwf	??i2_LCD_4bitCodeNoWait^0,f,c
 11837   0047B4  4603               	rlncf	??i2_LCD_4bitCodeNoWait^0,f,c
 11838   0047B6  5087               	movf	135,w,c	;volatile
 11839   0047B8  1803               	xorwf	??i2_LCD_4bitCodeNoWait^0,w,c
 11840   0047BA  0BFD               	andlw	-3
 11841   0047BC  1803               	xorwf	??i2_LCD_4bitCodeNoWait^0,w,c
 11842   0047BE  6E87               	movwf	135,c	;volatile
 11843                           
 11844                           ;LCD-library/LCD-library.c: 65:     PORTE &= 0b00001111;
 11845   0047C0  0E0F               	movlw	15
 11846   0047C2  1684               	andwf	132,f,c	;volatile
 11847                           
 11848                           ;LCD-library/LCD-library.c: 66:     PORTE |= (code & 0b001111) << 4;
 11849   0047C4  C001  F003         	movff	i2LCD_4bitCodeNoWait@code,??i2_LCD_4bitCodeNoWait	;volatile
 11850   0047C8  0E0F               	movlw	15
 11851   0047CA  1603               	andwf	??i2_LCD_4bitCodeNoWait^0,f,c
 11852   0047CC  3803               	swapf	??i2_LCD_4bitCodeNoWait^0,w,c
 11853   0047CE  0BF0               	andlw	240
 11854   0047D0  1284               	iorwf	132,f,c	;volatile
 11855   0047D2                     
 11856                           ;LCD-library/LCD-library.c: 67:     PORTHbits.RH0 = 1;
 11857   0047D2  8087               	bsf	135,0,c	;volatile
 11858   0047D4                     
 11859                           ;LCD-library/LCD-library.c: 68:     PORTHbits.RH0 = 0;
 11860   0047D4  9087               	bcf	135,0,c	;volatile
 11861   0047D6  0012               	return		;funcret
 11862   0047D8                     __end_ofi2_LCD_4bitCodeNoWait:
 11863                           	callstack 0
 11864                           
 11865 ;; *************** function _EUSART1_Write *****************
 11866 ;; Defined at:
 11867 ;;		line 215 in file "mcc_generated_files/eusart1.c"
 11868 ;; Parameters:    Size  Location     Type
 11869 ;;  txData          1    wreg     unsigned char 
 11870 ;; Auto vars:     Size  Location     Type
 11871 ;;  txData          1    0[COMRAM] unsigned char 
 11872 ;; Return value:  Size  Location     Type
 11873 ;;                  1    wreg      void 
 11874 ;; Registers used:
 11875 ;;		wreg
 11876 ;; Tracked objects:
 11877 ;;		On entry : 0/0
 11878 ;;		On exit  : 0/0
 11879 ;;		Unchanged: 0/0
 11880 ;; Data sizes:     COMRAM   BANK0   BANK1   BANK2   BANK3   BANK4   BANK5   BANK6   BANK7   BANK8   BANK9  BANK10  BANK1
      +1  BANK12  BANK13  BANK14  BANK15
 11881 ;;      Params:         0       0       0       0       0       0       0       0       0       0       0       0       
      +0       0       0       0       0
 11882 ;;      Locals:         1       0       0       0       0       0       0       0       0       0       0       0       
      +0       0       0       0       0
 11883 ;;      Temps:          0       0       0       0       0       0       0       0       0       0       0       0       
      +0       0       0       0       0
 11884 ;;      Totals:         1       0       0       0       0       0       0       0       0       0       0       0       
      +0       0       0       0       0
 11885 ;;Total ram usage:        1 bytes
 11886 ;; Hardware stack levels used: 1
 11887 ;; This function calls:
 11888 ;;		Nothing
 11889 ;; This function is called by:
 11890 ;;		_HandleInterrupt
 11891 ;; This function uses a non-reentrant model
 11892 ;;
 11893                           
 11894                           	psect	text69
 11895   004F1C                     __ptext69:
 11896                           	callstack 0
 11897   004F1C                     _EUSART1_Write:
 11898                           	callstack 22
 11899                           
 11900                           ;incstack = 0
 11901                           ;EUSART1_Write@txData stored from wreg
 11902   004F1C  6E01               	movwf	EUSART1_Write@txData^0,c
 11903   004F1E                     i2l418:
 11904                           
 11905                           ;mcc_generated_files/eusart1.c: 217:     while(0 == PIR1bits.TX1IF)
 11906   004F1E  A89E               	btfss	158,4,c	;volatile
 11907   004F20  EF94  F027         	goto	i2u521_41
 11908   004F24  EF96  F027         	goto	i2u521_40
 11909   004F28                     i2u521_41:
 11910   004F28  EF8F  F027         	goto	i2l418
 11911   004F2C                     i2u521_40:
 11912   004F2C                     
 11913                           ;mcc_generated_files/eusart1.c: 221:     TXREG1 = txData;
 11914   004F2C  C001  FFAD         	movff	EUSART1_Write@txData,4013	;volatile
 11915   004F30  0012               	return		;funcret
 11916   004F32                     __end_of_EUSART1_Write:
 11917                           	callstack 0
 11918                           
 11919 ;; *************** function _EUSART1_Receive_ISR *****************
 11920 ;; Defined at:
 11921 ;;		line 226 in file "mcc_generated_files/eusart1.c"
 11922 ;; Parameters:    Size  Location     Type
 11923 ;;		None
 11924 ;; Auto vars:     Size  Location     Type
 11925 ;;		None
 11926 ;; Return value:  Size  Location     Type
 11927 ;;                  1    wreg      void 
 11928 ;; Registers used:
 11929 ;;		wreg, fsr2l, fsr2h, status,2, status,0, pcl, pclath, pclatu, tosl, cstack
 11930 ;; Tracked objects:
 11931 ;;		On entry : 0/0
 11932 ;;		On exit  : 0/0
 11933 ;;		Unchanged: 0/0
 11934 ;; Data sizes:     COMRAM   BANK0   BANK1   BANK2   BANK3   BANK4   BANK5   BANK6   BANK7   BANK8   BANK9  BANK10  BANK1
      +1  BANK12  BANK13  BANK14  BANK15
 11935 ;;      Params:         0       0       0       0       0       0       0       0       0       0       0       0       
      +0       0       0       0       0
 11936 ;;      Locals:         0       0       0       0       0       0       0       0       0       0       0       0       
      +0       0       0       0       0
 11937 ;;      Temps:          0       0       0       0       0       0       0       0       0       0       0       0       
      +0       0       0       0       0
 11938 ;;      Totals:         0       0       0       0       0       0       0       0       0       0       0       0       
      +0       0       0       0       0
 11939 ;;Total ram usage:        0 bytes
 11940 ;; Hardware stack levels used: 1
 11941 ;; Hardware stack levels required when called: 2
 11942 ;; This function calls:
 11943 ;;		NULL
 11944 ;;		_EUSART1_DefaultErrorHandler
 11945 ;;		_EUSART1_DefaultFramingErrorHandler
 11946 ;;		_EUSART1_DefaultOverrunErrorHandler
 11947 ;;		_EUSART1_RxDataHandler
 11948 ;; This function is called by:
 11949 ;;		_HandleInterrupt
 11950 ;; This function uses a non-reentrant model
 11951 ;;
 11952                           
 11953                           	psect	text70
 11954   004380                     __ptext70:
 11955                           	callstack 0
 11956   004380                     _EUSART1_Receive_ISR:
 11957                           	callstack 20
 11958   004380                     
 11959                           ;mcc_generated_files/eusart1.c: 229:     eusart1RxStatusBuffer[eusart1RxHead].status = 0
      +                          ;
 11960   004380  0E00               	movlw	low _eusart1RxStatusBuffer
 11961   004382  0101               	movlb	1	; () banked
 11962   004384  2519               	addwf	_eusart1RxHead& (0+255),w,b	;volatile
 11963   004386  6ED9               	movwf	fsr2l,c
 11964   004388  6ADA               	clrf	fsr2h,c
 11965   00438A  0E01               	movlw	high _eusart1RxStatusBuffer
 11966   00438C  22DA               	addwfc	fsr2h,f,c
 11967   00438E  6ADF               	clrf	indf2,c
 11968   004390                     
 11969                           ; BSR set to: 1
 11970                           ;mcc_generated_files/eusart1.c: 231:     if(RCSTA1bits.FERR){
 11971   004390  A4AB               	btfss	171,2,c	;volatile
 11972   004392  EFCD  F021         	goto	i2u513_41
 11973   004396  EFCF  F021         	goto	i2u513_40
 11974   00439A                     i2u513_41:
 11975   00439A  EFE3  F021         	goto	i2l5144
 11976   00439E                     i2u513_40:
 11977   00439E                     
 11978                           ; BSR set to: 1
 11979                           ;mcc_generated_files/eusart1.c: 232:         eusart1RxStatusBuffer[eusart1RxHead].ferr =
      +                           1;
 11980   00439E  0E00               	movlw	low _eusart1RxStatusBuffer
 11981   0043A0  2519               	addwf	_eusart1RxHead& (0+255),w,b	;volatile
 11982   0043A2  6ED9               	movwf	fsr2l,c
 11983   0043A4  6ADA               	clrf	fsr2h,c
 11984   0043A6  0E01               	movlw	high _eusart1RxStatusBuffer
 11985   0043A8  22DA               	addwfc	fsr2h,f,c
 11986   0043AA  82DF               	bsf	indf2,1,c
 11987   0043AC                     
 11988                           ; BSR set to: 1
 11989                           ;mcc_generated_files/eusart1.c: 233:         EUSART1_FramingErrorHandler();
 11990   0043AC  D802               	call	i2u514_48
 11991   0043AE  EFE3  F021         	goto	i2u514_49
 11992   0043B2                     i2u514_48:
 11993   0043B2  0005               	push	
 11994   0043B4  6EFA               	movwf	pclath,c
 11995   0043B6  51A7               	movf	_EUSART1_FramingErrorHandler& (0+255),w,b
 11996   0043B8  6EFD               	movwf	tosl,c
 11997   0043BA  51A8               	movf	(_EUSART1_FramingErrorHandler+1)& (0+255),w,b
 11998   0043BC  6EFE               	movwf	tosh,c
 11999   0043BE  51A9               	movf	(_EUSART1_FramingErrorHandler+2)& (0+255),w,b
 12000   0043C0  6EFF               	movwf	tosu,c
 12001   0043C2  50FA               	movf	pclath,w,c
 12002   0043C4  0012               	return		;indir
 12003   0043C6                     i2u514_49:
 12004   0043C6                     i2l5144:
 12005                           
 12006                           ;mcc_generated_files/eusart1.c: 236:     if(RCSTA1bits.OERR){
 12007   0043C6  A2AB               	btfss	171,1,c	;volatile
 12008   0043C8  EFE8  F021         	goto	i2u515_41
 12009   0043CC  EFEA  F021         	goto	i2u515_40
 12010   0043D0                     i2u515_41:
 12011   0043D0  EFFF  F021         	goto	i2l5150
 12012   0043D4                     i2u515_40:
 12013   0043D4                     
 12014                           ;mcc_generated_files/eusart1.c: 237:         eusart1RxStatusBuffer[eusart1RxHead].oerr =
      +                           1;
 12015   0043D4  0E00               	movlw	low _eusart1RxStatusBuffer
 12016   0043D6  0101               	movlb	1	; () banked
 12017   0043D8  2519               	addwf	_eusart1RxHead& (0+255),w,b	;volatile
 12018   0043DA  6ED9               	movwf	fsr2l,c
 12019   0043DC  6ADA               	clrf	fsr2h,c
 12020   0043DE  0E01               	movlw	high _eusart1RxStatusBuffer
 12021   0043E0  22DA               	addwfc	fsr2h,f,c
 12022   0043E2  84DF               	bsf	indf2,2,c
 12023   0043E4                     
 12024                           ; BSR set to: 1
 12025                           ;mcc_generated_files/eusart1.c: 238:         EUSART1_OverrunErrorHandler();
 12026   0043E4  D802               	call	i2u516_48
 12027   0043E6  EFFF  F021         	goto	i2u516_49
 12028   0043EA                     i2u516_48:
 12029   0043EA  0005               	push	
 12030   0043EC  6EFA               	movwf	pclath,c
 12031   0043EE  51A4               	movf	_EUSART1_OverrunErrorHandler& (0+255),w,b
 12032   0043F0  6EFD               	movwf	tosl,c
 12033   0043F2  51A5               	movf	(_EUSART1_OverrunErrorHandler+1)& (0+255),w,b
 12034   0043F4  6EFE               	movwf	tosh,c
 12035   0043F6  51A6               	movf	(_EUSART1_OverrunErrorHandler+2)& (0+255),w,b
 12036   0043F8  6EFF               	movwf	tosu,c
 12037   0043FA  50FA               	movf	pclath,w,c
 12038   0043FC  0012               	return		;indir
 12039   0043FE                     i2u516_49:
 12040   0043FE                     i2l5150:
 12041                           
 12042                           ;mcc_generated_files/eusart1.c: 241:     if(eusart1RxStatusBuffer[eusart1RxHead].status)
      +                          {
 12043   0043FE  0E00               	movlw	low _eusart1RxStatusBuffer
 12044   004400  0101               	movlb	1	; () banked
 12045   004402  2519               	addwf	_eusart1RxHead& (0+255),w,b	;volatile
 12046   004404  6ED9               	movwf	fsr2l,c
 12047   004406  6ADA               	clrf	fsr2h,c
 12048   004408  0E01               	movlw	high _eusart1RxStatusBuffer
 12049   00440A  22DA               	addwfc	fsr2h,f,c
 12050   00440C  50DF               	movf	indf2,w,c
 12051   00440E  B4D8               	btfsc	status,2,c
 12052   004410  EF0C  F022         	goto	i2u517_41
 12053   004414  EF0E  F022         	goto	i2u517_40
 12054   004418                     i2u517_41:
 12055   004418  EF1D  F022         	goto	i2l5154
 12056   00441C                     i2u517_40:
 12057   00441C                     
 12058                           ; BSR set to: 1
 12059                           ;mcc_generated_files/eusart1.c: 242:         EUSART1_ErrorHandler();
 12060   00441C  D802               	call	i2u518_48
 12061   00441E  EF1B  F022         	goto	i2u518_49
 12062   004422                     i2u518_48:
 12063   004422  0005               	push	
 12064   004424  6EFA               	movwf	pclath,c
 12065   004426  51A1               	movf	_EUSART1_ErrorHandler& (0+255),w,b
 12066   004428  6EFD               	movwf	tosl,c
 12067   00442A  51A2               	movf	(_EUSART1_ErrorHandler+1)& (0+255),w,b
 12068   00442C  6EFE               	movwf	tosh,c
 12069   00442E  51A3               	movf	(_EUSART1_ErrorHandler+2)& (0+255),w,b
 12070   004430  6EFF               	movwf	tosu,c
 12071   004432  50FA               	movf	pclath,w,c
 12072   004434  0012               	return		;indir
 12073   004436                     i2u518_49:
 12074                           
 12075                           ;mcc_generated_files/eusart1.c: 243:     } else {
 12076   004436  EF1F  F022         	goto	i2l428
 12077   00443A                     i2l5154:
 12078                           
 12079                           ; BSR set to: 1
 12080                           ;mcc_generated_files/eusart1.c: 244:         EUSART1_RxDataHandler();
 12081   00443A  EC44  F027         	call	_EUSART1_RxDataHandler	;wreg free
 12082   00443E                     i2l428:
 12083   00443E  0012               	return		;funcret
 12084   004440                     __end_of_EUSART1_Receive_ISR:
 12085                           	callstack 0
 12086                           
 12087 ;; *************** function _EUSART1_DefaultOverrunErrorHandler *****************
 12088 ;; Defined at:
 12089 ;;		line 262 in file "mcc_generated_files/eusart1.c"
 12090 ;; Parameters:    Size  Location     Type
 12091 ;;		None
 12092 ;; Auto vars:     Size  Location     Type
 12093 ;;		None
 12094 ;; Return value:  Size  Location     Type
 12095 ;;                  1    wreg      void 
 12096 ;; Registers used:
 12097 ;;		None
 12098 ;; Tracked objects:
 12099 ;;		On entry : 0/0
 12100 ;;		On exit  : 0/0
 12101 ;;		Unchanged: 0/0
 12102 ;; Data sizes:     COMRAM   BANK0   BANK1   BANK2   BANK3   BANK4   BANK5   BANK6   BANK7   BANK8   BANK9  BANK10  BANK1
      +1  BANK12  BANK13  BANK14  BANK15
 12103 ;;      Params:         0       0       0       0       0       0       0       0       0       0       0       0       
      +0       0       0       0       0
 12104 ;;      Locals:         0       0       0       0       0       0       0       0       0       0       0       0       
      +0       0       0       0       0
 12105 ;;      Temps:          0       0       0       0       0       0       0       0       0       0       0       0       
      +0       0       0       0       0
 12106 ;;      Totals:         0       0       0       0       0       0       0       0       0       0       0       0       
      +0       0       0       0       0
 12107 ;;Total ram usage:        0 bytes
 12108 ;; Hardware stack levels used: 1
 12109 ;; This function calls:
 12110 ;;		Nothing
 12111 ;; This function is called by:
 12112 ;;		_EUSART1_Initialize
 12113 ;;		_EUSART1_Receive_ISR
 12114 ;; This function uses a non-reentrant model
 12115 ;;
 12116                           
 12117                           	psect	text71
 12118   005000                     __ptext71:
 12119                           	callstack 0
 12120   005000                     _EUSART1_DefaultOverrunErrorHandler:
 12121                           	callstack 21
 12122   005000                     
 12123                           ;mcc_generated_files/eusart1.c: 265:     RCSTA1bits.CREN = 0;
 12124   005000  98AB               	bcf	171,4,c	;volatile
 12125                           
 12126                           ;mcc_generated_files/eusart1.c: 266:     RCSTA1bits.CREN = 1;
 12127   005002  88AB               	bsf	171,4,c	;volatile
 12128   005004  0012               	return		;funcret
 12129   005006                     __end_of_EUSART1_DefaultOverrunErrorHandler:
 12130                           	callstack 0
 12131                           
 12132 ;; *************** function _EUSART1_DefaultFramingErrorHandler *****************
 12133 ;; Defined at:
 12134 ;;		line 260 in file "mcc_generated_files/eusart1.c"
 12135 ;; Parameters:    Size  Location     Type
 12136 ;;		None
 12137 ;; Auto vars:     Size  Location     Type
 12138 ;;		None
 12139 ;; Return value:  Size  Location     Type
 12140 ;;                  1    wreg      void 
 12141 ;; Registers used:
 12142 ;;		None
 12143 ;; Tracked objects:
 12144 ;;		On entry : 0/0
 12145 ;;		On exit  : 0/0
 12146 ;;		Unchanged: 0/0
 12147 ;; Data sizes:     COMRAM   BANK0   BANK1   BANK2   BANK3   BANK4   BANK5   BANK6   BANK7   BANK8   BANK9  BANK10  BANK1
      +1  BANK12  BANK13  BANK14  BANK15
 12148 ;;      Params:         0       0       0       0       0       0       0       0       0       0       0       0       
      +0       0       0       0       0
 12149 ;;      Locals:         0       0       0       0       0       0       0       0       0       0       0       0       
      +0       0       0       0       0
 12150 ;;      Temps:          0       0       0       0       0       0       0       0       0       0       0       0       
      +0       0       0       0       0
 12151 ;;      Totals:         0       0       0       0       0       0       0       0       0       0       0       0       
      +0       0       0       0       0
 12152 ;;Total ram usage:        0 bytes
 12153 ;; Hardware stack levels used: 1
 12154 ;; This function calls:
 12155 ;;		Nothing
 12156 ;; This function is called by:
 12157 ;;		_EUSART1_Initialize
 12158 ;;		_EUSART1_Receive_ISR
 12159 ;; This function uses a non-reentrant model
 12160 ;;
 12161                           
 12162                           	psect	text72
 12163   005014                     __ptext72:
 12164                           	callstack 0
 12165   005014                     _EUSART1_DefaultFramingErrorHandler:
 12166                           	callstack 21
 12167   005014  0012               	return		;funcret
 12168   005016                     __end_of_EUSART1_DefaultFramingErrorHandler:
 12169                           	callstack 0
 12170                           
 12171 ;; *************** function _EUSART1_DefaultErrorHandler *****************
 12172 ;; Defined at:
 12173 ;;		line 270 in file "mcc_generated_files/eusart1.c"
 12174 ;; Parameters:    Size  Location     Type
 12175 ;;		None
 12176 ;; Auto vars:     Size  Location     Type
 12177 ;;		None
 12178 ;; Return value:  Size  Location     Type
 12179 ;;                  1    wreg      void 
 12180 ;; Registers used:
 12181 ;;		wreg, fsr2l, fsr2h, status,2, status,0, cstack
 12182 ;; Tracked objects:
 12183 ;;		On entry : 0/0
 12184 ;;		On exit  : 0/0
 12185 ;;		Unchanged: 0/0
 12186 ;; Data sizes:     COMRAM   BANK0   BANK1   BANK2   BANK3   BANK4   BANK5   BANK6   BANK7   BANK8   BANK9  BANK10  BANK1
      +1  BANK12  BANK13  BANK14  BANK15
 12187 ;;      Params:         0       0       0       0       0       0       0       0       0       0       0       0       
      +0       0       0       0       0
 12188 ;;      Locals:         0       0       0       0       0       0       0       0       0       0       0       0       
      +0       0       0       0       0
 12189 ;;      Temps:          0       0       0       0       0       0       0       0       0       0       0       0       
      +0       0       0       0       0
 12190 ;;      Totals:         0       0       0       0       0       0       0       0       0       0       0       0       
      +0       0       0       0       0
 12191 ;;Total ram usage:        0 bytes
 12192 ;; Hardware stack levels used: 1
 12193 ;; Hardware stack levels required when called: 1
 12194 ;; This function calls:
 12195 ;;		_EUSART1_RxDataHandler
 12196 ;; This function is called by:
 12197 ;;		_EUSART1_Initialize
 12198 ;;		_EUSART1_Receive_ISR
 12199 ;; This function uses a non-reentrant model
 12200 ;;
 12201                           
 12202                           	psect	text73
 12203   005006                     __ptext73:
 12204                           	callstack 0
 12205   005006                     _EUSART1_DefaultErrorHandler:
 12206                           	callstack 20
 12207   005006                     
 12208                           ;mcc_generated_files/eusart1.c: 271:     EUSART1_RxDataHandler();
 12209   005006  EC44  F027         	call	_EUSART1_RxDataHandler	;wreg free
 12210   00500A  0012               	return		;funcret
 12211   00500C                     __end_of_EUSART1_DefaultErrorHandler:
 12212                           	callstack 0
 12213                           
 12214 ;; *************** function _EUSART1_RxDataHandler *****************
 12215 ;; Defined at:
 12216 ;;		line 250 in file "mcc_generated_files/eusart1.c"
 12217 ;; Parameters:    Size  Location     Type
 12218 ;;		None
 12219 ;; Auto vars:     Size  Location     Type
 12220 ;;		None
 12221 ;; Return value:  Size  Location     Type
 12222 ;;                  1    wreg      void 
 12223 ;; Registers used:
 12224 ;;		wreg, fsr2l, fsr2h, status,2, status,0
 12225 ;; Tracked objects:
 12226 ;;		On entry : 0/0
 12227 ;;		On exit  : 0/0
 12228 ;;		Unchanged: 0/0
 12229 ;; Data sizes:     COMRAM   BANK0   BANK1   BANK2   BANK3   BANK4   BANK5   BANK6   BANK7   BANK8   BANK9  BANK10  BANK1
      +1  BANK12  BANK13  BANK14  BANK15
 12230 ;;      Params:         0       0       0       0       0       0       0       0       0       0       0       0       
      +0       0       0       0       0
 12231 ;;      Locals:         0       0       0       0       0       0       0       0       0       0       0       0       
      +0       0       0       0       0
 12232 ;;      Temps:          0       0       0       0       0       0       0       0       0       0       0       0       
      +0       0       0       0       0
 12233 ;;      Totals:         0       0       0       0       0       0       0       0       0       0       0       0       
      +0       0       0       0       0
 12234 ;;Total ram usage:        0 bytes
 12235 ;; Hardware stack levels used: 1
 12236 ;; This function calls:
 12237 ;;		Nothing
 12238 ;; This function is called by:
 12239 ;;		_EUSART1_Receive_ISR
 12240 ;;		_EUSART1_DefaultErrorHandler
 12241 ;; This function uses a non-reentrant model
 12242 ;;
 12243                           
 12244                           	psect	text74
 12245   004E88                     __ptext74:
 12246                           	callstack 0
 12247   004E88                     _EUSART1_RxDataHandler:
 12248                           	callstack 21
 12249   004E88                     
 12250                           ;mcc_generated_files/eusart1.c: 252:     eusart1RxBuffer[eusart1RxHead++] = RCREG1;
 12251   004E88  0E08               	movlw	low _eusart1RxBuffer
 12252   004E8A  0101               	movlb	1	; () banked
 12253   004E8C  2519               	addwf	_eusart1RxHead& (0+255),w,b	;volatile
 12254   004E8E  6ED9               	movwf	fsr2l,c
 12255   004E90  6ADA               	clrf	fsr2h,c
 12256   004E92  0E01               	movlw	high _eusart1RxBuffer
 12257   004E94  22DA               	addwfc	fsr2h,f,c
 12258   004E96  CFAE FFDF          	movff	4014,indf2	;volatile
 12259   004E9A                     
 12260                           ; BSR set to: 1
 12261   004E9A  2B19               	incf	_eusart1RxHead& (0+255),f,b	;volatile
 12262   004E9C                     
 12263                           ; BSR set to: 1
 12264                           ;mcc_generated_files/eusart1.c: 253:     if(sizeof(eusart1RxBuffer) <= eusart1RxHead)
 12265   004E9C  0E07               	movlw	7
 12266   004E9E  6519               	cpfsgt	_eusart1RxHead& (0+255),b	;volatile
 12267   004EA0  EF54  F027         	goto	i2u481_41
 12268   004EA4  EF56  F027         	goto	i2u481_40
 12269   004EA8                     i2u481_41:
 12270   004EA8  EF58  F027         	goto	i2l4824
 12271   004EAC                     i2u481_40:
 12272   004EAC                     
 12273                           ; BSR set to: 1
 12274                           ;mcc_generated_files/eusart1.c: 254:     {;mcc_generated_files/eusart1.c: 255:         e
      +                          usart1RxHead = 0;
 12275   004EAC  0E00               	movlw	0
 12276   004EAE  6F19               	movwf	_eusart1RxHead& (0+255),b	;volatile
 12277   004EB0                     i2l4824:
 12278                           
 12279                           ; BSR set to: 1
 12280                           ;mcc_generated_files/eusart1.c: 257:     eusart1RxCount++;
 12281   004EB0  2B18               	incf	_eusart1RxCount& (0+255),f,b	;volatile
 12282   004EB2                     
 12283                           ; BSR set to: 1
 12284   004EB2  0012               	return		;funcret
 12285   004EB4                     __end_of_EUSART1_RxDataHandler:
 12286                           	callstack 0
 12287                           
 12288 ;; *************** function _EUSART1_Read *****************
 12289 ;; Defined at:
 12290 ;;		line 193 in file "mcc_generated_files/eusart1.c"
 12291 ;; Parameters:    Size  Location     Type
 12292 ;;		None
 12293 ;; Auto vars:     Size  Location     Type
 12294 ;;  readValue       1    0[COMRAM] unsigned char 
 12295 ;; Return value:  Size  Location     Type
 12296 ;;                  1    wreg      unsigned char 
 12297 ;; Registers used:
 12298 ;;		wreg, fsr2l, fsr2h, status,2, status,0
 12299 ;; Tracked objects:
 12300 ;;		On entry : 0/0
 12301 ;;		On exit  : 0/0
 12302 ;;		Unchanged: 0/0
 12303 ;; Data sizes:     COMRAM   BANK0   BANK1   BANK2   BANK3   BANK4   BANK5   BANK6   BANK7   BANK8   BANK9  BANK10  BANK1
      +1  BANK12  BANK13  BANK14  BANK15
 12304 ;;      Params:         0       0       0       0       0       0       0       0       0       0       0       0       
      +0       0       0       0       0
 12305 ;;      Locals:         1       0       0       0       0       0       0       0       0       0       0       0       
      +0       0       0       0       0
 12306 ;;      Temps:          0       0       0       0       0       0       0       0       0       0       0       0       
      +0       0       0       0       0
 12307 ;;      Totals:         1       0       0       0       0       0       0       0       0       0       0       0       
      +0       0       0       0       0
 12308 ;;Total ram usage:        1 bytes
 12309 ;; Hardware stack levels used: 1
 12310 ;; This function calls:
 12311 ;;		Nothing
 12312 ;; This function is called by:
 12313 ;;		_HandleInterrupt
 12314 ;; This function uses a non-reentrant model
 12315 ;;
 12316                           
 12317                           	psect	text75
 12318   0048EE                     __ptext75:
 12319                           	callstack 0
 12320   0048EE                     _EUSART1_Read:
 12321                           	callstack 22
 12322   0048EE                     i2l5158:
 12323                           
 12324                           ;mcc_generated_files/eusart1.c: 197:     while(0 == eusart1RxCount)
 12325   0048EE  0101               	movlb	1	; () banked
 12326   0048F0  5118               	movf	_eusart1RxCount& (0+255),w,b	;volatile
 12327   0048F2  B4D8               	btfsc	status,2,c
 12328   0048F4  EF7E  F024         	goto	i2u519_41
 12329   0048F8  EF80  F024         	goto	i2u519_40
 12330   0048FC                     i2u519_41:
 12331   0048FC  EF77  F024         	goto	i2l5158
 12332   004900                     i2u519_40:
 12333   004900                     
 12334                           ; BSR set to: 1
 12335                           ;mcc_generated_files/eusart1.c: 201:     eusart1RxLastError = eusart1RxStatusBuffer[eusa
      +                          rt1RxTail];
 12336   004900  0E00               	movlw	low _eusart1RxStatusBuffer
 12337   004902  245E               	addwf	_eusart1RxTail^0,w,c	;volatile
 12338   004904  6ED9               	movwf	fsr2l,c
 12339   004906  6ADA               	clrf	fsr2h,c
 12340   004908  0E01               	movlw	high _eusart1RxStatusBuffer
 12341   00490A  22DA               	addwfc	fsr2h,f,c
 12342   00490C  50DF               	movf	indf2,w,c
 12343   00490E  6F17               	movwf	_eusart1RxLastError& (0+255),b	;volatile
 12344                           
 12345                           ;mcc_generated_files/eusart1.c: 203:     readValue = eusart1RxBuffer[eusart1RxTail++];
 12346   004910  0E08               	movlw	low _eusart1RxBuffer
 12347   004912  245E               	addwf	_eusart1RxTail^0,w,c	;volatile
 12348   004914  6ED9               	movwf	fsr2l,c
 12349   004916  6ADA               	clrf	fsr2h,c
 12350   004918  0E01               	movlw	high _eusart1RxBuffer
 12351   00491A  22DA               	addwfc	fsr2h,f,c
 12352   00491C  50DF               	movf	indf2,w,c
 12353   00491E  6E01               	movwf	EUSART1_Read@readValue^0,c
 12354   004920                     
 12355                           ; BSR set to: 1
 12356   004920  2A5E               	incf	_eusart1RxTail^0,f,c	;volatile
 12357   004922                     
 12358                           ; BSR set to: 1
 12359                           ;mcc_generated_files/eusart1.c: 204:     if(sizeof(eusart1RxBuffer) <= eusart1RxTail)
 12360   004922  0E07               	movlw	7
 12361   004924  645E               	cpfsgt	_eusart1RxTail^0,c	;volatile
 12362   004926  EF97  F024         	goto	i2u520_41
 12363   00492A  EF99  F024         	goto	i2u520_40
 12364   00492E                     i2u520_41:
 12365   00492E  EF9B  F024         	goto	i2l5168
 12366   004932                     i2u520_40:
 12367   004932                     
 12368                           ; BSR set to: 1
 12369                           ;mcc_generated_files/eusart1.c: 205:     {;mcc_generated_files/eusart1.c: 206:         e
      +                          usart1RxTail = 0;
 12370   004932  0E00               	movlw	0
 12371   004934  6E5E               	movwf	_eusart1RxTail^0,c	;volatile
 12372   004936                     i2l5168:
 12373                           
 12374                           ; BSR set to: 1
 12375                           ;mcc_generated_files/eusart1.c: 208:     PIE1bits.RC1IE = 0;
 12376   004936  9A9D               	bcf	157,5,c	;volatile
 12377   004938                     
 12378                           ; BSR set to: 1
 12379                           ;mcc_generated_files/eusart1.c: 209:     eusart1RxCount--;
 12380   004938  0718               	decf	_eusart1RxCount& (0+255),f,b	;volatile
 12381   00493A                     
 12382                           ; BSR set to: 1
 12383                           ;mcc_generated_files/eusart1.c: 210:     PIE1bits.RC1IE = 1;
 12384   00493A  8A9D               	bsf	157,5,c	;volatile
 12385   00493C                     
 12386                           ; BSR set to: 1
 12387                           ;mcc_generated_files/eusart1.c: 212:     return readValue;
 12388   00493C  5001               	movf	EUSART1_Read@readValue^0,w,c
 12389   00493E                     
 12390                           ; BSR set to: 1
 12391   00493E  0012               	return		;funcret
 12392   004940                     __end_of_EUSART1_Read:
 12393                           	callstack 0
 12394                           
 12395 ;; *************** function _ADC_GetConversion *****************
 12396 ;; Defined at:
 12397 ;;		line 109 in file "mcc_generated_files/adc.c"
 12398 ;; Parameters:    Size  Location     Type
 12399 ;;  channel         1    wreg     enum E4918
 12400 ;; Auto vars:     Size  Location     Type
 12401 ;;  channel         1    4[COMRAM] enum E4918
 12402 ;; Return value:  Size  Location     Type
 12403 ;;                  2    0[COMRAM] unsigned short 
 12404 ;; Registers used:
 12405 ;;		wreg, status,2, status,0
 12406 ;; Tracked objects:
 12407 ;;		On entry : 0/0
 12408 ;;		On exit  : 0/0
 12409 ;;		Unchanged: 0/0
 12410 ;; Data sizes:     COMRAM   BANK0   BANK1   BANK2   BANK3   BANK4   BANK5   BANK6   BANK7   BANK8   BANK9  BANK10  BANK1
      +1  BANK12  BANK13  BANK14  BANK15
 12411 ;;      Params:         2       0       0       0       0       0       0       0       0       0       0       0       
      +0       0       0       0       0
 12412 ;;      Locals:         1       0       0       0       0       0       0       0       0       0       0       0       
      +0       0       0       0       0
 12413 ;;      Temps:          2       0       0       0       0       0       0       0       0       0       0       0       
      +0       0       0       0       0
 12414 ;;      Totals:         5       0       0       0       0       0       0       0       0       0       0       0       
      +0       0       0       0       0
 12415 ;;Total ram usage:        5 bytes
 12416 ;; Hardware stack levels used: 1
 12417 ;; This function calls:
 12418 ;;		Nothing
 12419 ;; This function is called by:
 12420 ;;		_HandleInterrupt
 12421 ;; This function uses a non-reentrant model
 12422 ;;
 12423                           
 12424                           	psect	text76
 12425   004D1C                     __ptext76:
 12426                           	callstack 0
 12427   004D1C                     _ADC_GetConversion:
 12428                           	callstack 22
 12429                           
 12430                           ; BSR set to: 1
 12431                           ;incstack = 0
 12432                           ;ADC_GetConversion@channel stored from wreg
 12433   004D1C  6E05               	movwf	ADC_GetConversion@channel^0,c
 12434   004D1E                     
 12435                           ;mcc_generated_files/adc.c: 109: adc_result_t ADC_GetConversion(adc_channel_t channel);m
      +                          cc_generated_files/adc.c: 110: {;mcc_generated_files/adc.c: 112:     ADCON0bits.CHS = ch
      +                          annel;
 12436   004D1E  C005  F003         	movff	ADC_GetConversion@channel,??_ADC_GetConversion
 12437   004D22  4603               	rlncf	??_ADC_GetConversion^0,f,c
 12438   004D24  4603               	rlncf	??_ADC_GetConversion^0,f,c
 12439   004D26  50C2               	movf	194,w,c	;volatile
 12440   004D28  1803               	xorwf	??_ADC_GetConversion^0,w,c
 12441   004D2A  0BC3               	andlw	-61
 12442   004D2C  1803               	xorwf	??_ADC_GetConversion^0,w,c
 12443   004D2E  6EC2               	movwf	194,c	;volatile
 12444   004D30                     
 12445                           ;mcc_generated_files/adc.c: 115:     ADCON0bits.ADON = 1;
 12446   004D30  80C2               	bsf	194,0,c	;volatile
 12447   004D32                     
 12448                           ;mcc_generated_files/adc.c: 118:     ADCON0bits.GO_nDONE = 1;
 12449   004D32  82C2               	bsf	194,1,c	;volatile
 12450   004D34                     i2l511:
 12451                           
 12452                           ;mcc_generated_files/adc.c: 121:     while (ADCON0bits.GO_nDONE)
 12453   004D34  B2C2               	btfsc	194,1,c	;volatile
 12454   004D36  EF9F  F026         	goto	i2u522_41
 12455   004D3A  EFA1  F026         	goto	i2u522_40
 12456   004D3E                     i2u522_41:
 12457   004D3E  EF9A  F026         	goto	i2l511
 12458   004D42                     i2u522_40:
 12459   004D42                     
 12460                           ;mcc_generated_files/adc.c: 126:     return ((adc_result_t)((ADRESH << 8) + ADRESL));
 12461   004D42  50C4               	movf	196,w,c	;volatile
 12462   004D44  6E04               	movwf	(??_ADC_GetConversion+1)^0,c
 12463   004D46  6A03               	clrf	??_ADC_GetConversion^0,c
 12464   004D48  50C3               	movf	195,w,c	;volatile
 12465   004D4A  2403               	addwf	??_ADC_GetConversion^0,w,c
 12466   004D4C  6E01               	movwf	?_ADC_GetConversion^0,c
 12467   004D4E  0E00               	movlw	0
 12468   004D50  2004               	addwfc	(??_ADC_GetConversion+1)^0,w,c
 12469   004D52  6E02               	movwf	(?_ADC_GetConversion+1)^0,c
 12470   004D54  0012               	return		;funcret
 12471   004D56                     __end_of_ADC_GetConversion:
 12472                           	callstack 0
 12473                           
 12474                           	psect	text77
 12475   000000                     __ptext77:
 12476                           	callstack 0
 12477   000000                     
 12478                           	psect	rparam
 12479   000000                     
 12480                           	psect	temp
 12481   00005F                     btemp:
 12482                           	callstack 0
 12483   00005F                     	ds	1
 12484   000000                     int$flags	set	btemp
 12485   000000                     wtemp8	set	btemp+1
 12486   000000                     ttemp5	set	btemp+1
 12487   000000                     ttemp6	set	btemp+4
 12488   000000                     ttemp7	set	btemp+8
 12489                           
 12490                           	psect	config
 12491                           
 12492                           ;Config register CONFIG1L @ 0x1FFF8
 12493                           ;	Watchdog Timer Enable bit
 12494                           ;	WDT = OFF, WDT disabled (control is placed on SWDTEN bit)
 12495                           ;	Stack Overflow/Underflow Reset Enable bit
 12496                           ;	STVR = ON, Reset on stack overflow/underflow enabled
 12497                           ;	Extended Instruction Set Enable bit
 12498                           ;	XINST = OFF, Instruction set extension and Indexed Addressing mode disabled (Legacy mo
      +                          de)
 12499                           ;	Background Debugger Enable bit
 12500                           ;	DEBUG = OFF, Background debugger disabled; RB6 and RB7 configured as general purpose I
      +                          /O pins
 12501   01FFF8                     	org	131064
 12502   01FFF8  A0                 	db	160
 12503                           
 12504                           ;Config register CONFIG1H @ 0x1FFF9
 12505                           ;	Code Protection bit
 12506                           ;	CP0 = OFF, Program memory is not code-protected
 12507   01FFF9                     	org	131065
 12508   01FFF9  F4                 	db	244
 12509                           
 12510                           ;Config register CONFIG2L @ 0x1FFFA
 12511                           ;	Oscillator Selection bits
 12512                           ;	FOSC = HS, HS oscillator
 12513                           ;	Default/Reset System Clock Select bit
 12514                           ;	FOSC2 = ON, Clock selected by FOSC1:FOSC0 as system clock is enabled when OSCCON<1:0> 
      +                          = 00
 12515                           ;	Fail-Safe Clock Monitor Enable
 12516                           ;	FCMEN = ON, Fail-Safe Clock Monitor enabled
 12517                           ;	Two-Speed Start-up (Internal/External Oscillator Switchover) Control bit
 12518                           ;	IESO = ON, Two-Speed Start-up enabled
 12519   01FFFA                     	org	131066
 12520   01FFFA  C4                 	db	196
 12521                           
 12522                           ;Config register CONFIG2H @ 0x1FFFB
 12523                           ;	Watchdog Timer Postscaler Select bits
 12524                           ;	WDTPS = 32768, 1:32768
 12525   01FFFB                     	org	131067
 12526   01FFFB  FF                 	db	255
 12527                           
 12528                           ;Config register CONFIG3L @ 0x1FFFC
 12529                           ;	External Address Bus Shift Enable bit
 12530                           ;	EASHFT = ON, Address shifting enabled; address on external bus is offset to start at 0
      +                          00000h
 12531                           ;	External Memory Bus
 12532                           ;	MODE = MM, Microcontroller mode, external bus disabled
 12533                           ;	Data Bus Width Select bit
 12534                           ;	BW = 16, 16-Bit Data Width mode
 12535                           ;	External Bus Wait Enable bit
 12536                           ;	WAIT = OFF, Wait states for operations on external memory bus disabled
 12537   01FFFC                     	org	131068
 12538   01FFFC  F8                 	db	248
 12539                           
 12540                           ;Config register CONFIG3H @ 0x1FFFD
 12541                           ;	ECCP2 MUX bit
 12542                           ;	CCP2MX = ON, ECCP2/P2A is multiplexed with RC1
 12543                           ;	ECCP MUX bit
 12544                           ;	ECCPMX = ON, ECCP1 outputs (P1B/P1C) are multiplexed with RE6 and RE5; ECCP3 outputs (
      +                          P3B/P3C) are multiplexed with RE4 and RE3
 12545                           ;	Ethernet LED Enable bit
 12546                           ;	ETHLED = ON, RA0/RA1 are multiplexed with LEDA/LEDB when Ethernet module is enabled an
      +                          d function as I/O when Ethernet is disabled
 12547   01FFFD                     	org	131069
 12548   01FFFD  F7                 	db	247
 12549                           tosu	equ	0xFFF
 12550                           tosh	equ	0xFFE
 12551                           tosl	equ	0xFFD
 12552                           stkptr	equ	0xFFC
 12553                           pclatu	equ	0xFFB
 12554                           pclath	equ	0xFFA
 12555                           pcl	equ	0xFF9
 12556                           tblptru	equ	0xFF8
 12557                           tblptrh	equ	0xFF7
 12558                           tblptrl	equ	0xFF6
 12559                           tablat	equ	0xFF5
 12560                           prodh	equ	0xFF4
 12561                           prodl	equ	0xFF3
 12562                           indf0	equ	0xFEF
 12563                           postinc0	equ	0xFEE
 12564                           postdec0	equ	0xFED
 12565                           preinc0	equ	0xFEC
 12566                           plusw0	equ	0xFEB
 12567                           fsr0h	equ	0xFEA
 12568                           fsr0l	equ	0xFE9
 12569                           wreg	equ	0xFE8
 12570                           indf1	equ	0xFE7
 12571                           postinc1	equ	0xFE6
 12572                           postdec1	equ	0xFE5
 12573                           preinc1	equ	0xFE4
 12574                           plusw1	equ	0xFE3
 12575                           fsr1h	equ	0xFE2
 12576                           fsr1l	equ	0xFE1
 12577                           bsr	equ	0xFE0
 12578                           indf2	equ	0xFDF
 12579                           postinc2	equ	0xFDE
 12580                           postdec2	equ	0xFDD
 12581                           preinc2	equ	0xFDC
 12582                           plusw2	equ	0xFDB
 12583                           fsr2h	equ	0xFDA
 12584                           fsr2l	equ	0xFD9
 12585                           status	equ	0xFD8

Data Sizes:
    Strings     16
    Constant    24
    Data        12
    BSS         162
    Persistent  12
    Stack       0

Auto Spaces:
    Space          Size  Autos    Used
    COMRAM           94     93      94
    BANK0           160    136     159
    BANK1           256     21     183
    BANK2           256      0       0
    BANK3           256      0       0
    BANK4           256      0       0
    BANK5           256      0       0
    BANK6           256      0       0
    BANK7           256      0       0
    BANK8           256      0       0
    BANK9           256      0       0
    BANK10          256      0       0
    BANK11          256      0       0
    BANK12          256      0       0
    BANK13          256      0       0
    BANK14          128      0       0
    BANK15           96      0       0

Pointer List with Targets:

    ADC_InterruptHandler	PTR FTN()void  size(3) Largest target is 1
		 -> NULL(), 

    strlen@s	PTR const unsigned char  size(2) Largest target is 34
		 -> HandleInterrupt@temperature(BANK0[6]), HandleInterrupt@potValue(BANK0[5]), command(BANK1[34]), LCD_PrintNum@strNumber(COMRAM[20]), 

    strlen@a	PTR const unsigned char  size(2) Largest target is 34
		 -> HandleInterrupt@temperature(BANK0[6]), HandleInterrupt@potValue(BANK0[5]), command(BANK1[34]), LCD_PrintNum@strNumber(COMRAM[20]), 

    strcpy@dest	PTR unsigned char  size(2) Largest target is 80
		 -> dbuf(BANK1[80]), 

    strcpy@d	PTR unsigned char  size(2) Largest target is 80
		 -> dbuf(BANK1[80]), 

    strcpy@src	PTR const unsigned char  size(2) Largest target is 4
		 -> STR_7(CODE[4]), STR_4(CODE[4]), 

    strcpy@s	PTR const unsigned char  size(2) Largest target is 4
		 -> STR_7(CODE[4]), STR_4(CODE[4]), 

    fputs@s	PTR const unsigned char  size(2) Largest target is 80
		 -> dbuf(BANK1[80]), 

    fputs@fp	PTR struct _IO_FILE size(2) Largest target is 12
		 -> sprintf@f(BANK0[12]), 

    fputc@fp...source	PTR const unsigned char  size(2) Largest target is 0

    fputc@fp...buffer	PTR unsigned char  size(2) Largest target is 0

    fputc@fp	PTR struct _IO_FILE size(2) Largest target is 12
		 -> sprintf@f(BANK0[12]), 

    memcpy@d1	PTR void  size(2) Largest target is 80
		 -> dbuf(BANK1[80]), 

    memcpy@d	PTR unsigned char  size(2) Largest target is 80
		 -> dbuf(BANK1[80]), 

    memcpy@s1	PTR const void  size(2) Largest target is 80
		 -> dbuf(BANK1[80]), 

    memcpy@s	PTR const unsigned char  size(2) Largest target is 80
		 -> dbuf(BANK1[80]), 

    vfprintf@ap	PTR PTR void  size(2) Largest target is 2
		 -> sprintf@ap(BANK0[2]), 

    vfprintf@fp	PTR struct _IO_FILE size(2) Largest target is 12
		 -> sprintf@f(BANK0[12]), 

    vfprintf@fmt	PTR const unsigned char  size(2) Largest target is 5
		 -> STR_3(CODE[5]), STR_2(CODE[3]), STR_1(CODE[3]), 

    vfprintf@cfmt	PTR unsigned char  size(2) Largest target is 5
		 -> STR_3(CODE[5]), STR_2(CODE[3]), STR_1(CODE[3]), 

    vfpfcnvrt@fp	PTR struct _IO_FILE size(2) Largest target is 12
		 -> sprintf@f(BANK0[12]), 

    vfpfcnvrt@cp	PTR unsigned char  size(2) Largest target is 5
		 -> STR_3(CODE[5]), STR_2(CODE[3]), STR_1(CODE[3]), 

    vfpfcnvrt@ap	PTR PTR void  size(2) Largest target is 2
		 -> sprintf@ap(BANK0[2]), 

    vfpfcnvrt@fmt	PTR PTR unsigned char  size(2) Largest target is 2
		 -> vfprintf@cfmt(COMRAM[2]), 

    S2077$vp	PTR void  size(2) Largest target is 0

    convarg.vp	PTR void  size(2) Largest target is 0

    read_prec_or_width@ap	PTR PTR void [1] size(2) Largest target is 2
		 -> sprintf@ap(BANK0[2]), 

    read_prec_or_width@fmt	PTR PTR const unsigned char  size(2) Largest target is 2
		 -> vfprintf@cfmt(COMRAM[2]), 

    sp__memcpy	PTR void  size(2) Largest target is 80
		 -> dbuf(BANK1[80]), 

    efgtoa@fp	PTR struct _IO_FILE size(2) Largest target is 12
		 -> sprintf@f(BANK0[12]), 

    sp__strcpy	PTR unsigned char  size(2) Largest target is 80
		 -> dbuf(BANK1[80]), 

    dtoa@fp	PTR struct _IO_FILE size(2) Largest target is 12
		 -> sprintf@f(BANK0[12]), 

    pad@buf	PTR unsigned char  size(2) Largest target is 80
		 -> dbuf(BANK1[80]), 

    pad@fp	PTR struct _IO_FILE size(2) Largest target is 12
		 -> sprintf@f(BANK0[12]), 

    sprintf@fmt	PTR const unsigned char  size(2) Largest target is 5
		 -> STR_3(CODE[5]), STR_2(CODE[3]), STR_1(CODE[3]), 

    sprintf@s	PTR unsigned char  size(2) Largest target is 20
		 -> HandleInterrupt@temperature(BANK0[6]), HandleInterrupt@potValue(BANK0[5]), LCD_PrintNum@strNumber(COMRAM[20]), 

    sprintf@ap	PTR void [1] size(2) Largest target is 2
		 -> ?_sprintf(BANK0[2]), 

    S1987$source	PTR const unsigned char  size(2) Largest target is 0

    f...source	PTR const unsigned char  size(2) Largest target is 0

    S1987$buffer	PTR unsigned char  size(2) Largest target is 0

    f...buffer	PTR unsigned char  size(2) Largest target is 0

    EUSART1_SetRxInterruptHandler@interruptHandler	PTR FTN()void  size(3) Largest target is 1
		 -> HandleInterrupt(), 

    EUSART1_RxDefaultInterruptHandler	PTR FTN()void  size(3) Largest target is 1
		 -> NULL(), HandleInterrupt(), 

    EUSART1_SetErrorHandler@interruptHandler	PTR FTN()void  size(3) Largest target is 1
		 -> EUSART1_DefaultErrorHandler(), 

    EUSART1_SetOverrunErrorHandler@interruptHandler	PTR FTN()void  size(3) Largest target is 1
		 -> EUSART1_DefaultOverrunErrorHandler(), 

    EUSART1_SetFramingErrorHandler@interruptHandler	PTR FTN()void  size(3) Largest target is 1
		 -> EUSART1_DefaultFramingErrorHandler(), 

    EUSART1_ErrorHandler	PTR FTN()void  size(3) Largest target is 1
		 -> EUSART1_DefaultErrorHandler(), NULL(), 

    EUSART1_OverrunErrorHandler	PTR FTN()void  size(3) Largest target is 1
		 -> EUSART1_DefaultOverrunErrorHandler(), NULL(), 

    EUSART1_FramingErrorHandler	PTR FTN()void  size(3) Largest target is 1
		 -> EUSART1_DefaultFramingErrorHandler(), NULL(), 

    LCD_PrintStr@str	PTR const unsigned char  size(2) Largest target is 34
		 -> command(BANK1[34]), LCD_PrintNum@strNumber(COMRAM[20]), 


Critical Paths under _main in COMRAM

    None.

Critical Paths under _INTERRUPT_InterruptManager in COMRAM

    _sprintf->_vfprintf
    _vfprintf->_vfpfcnvrt
    _vfpfcnvrt->_efgtoa
    _read_prec_or_width->___wmul
    _efgtoa->___flsub
    _floorf->___fldiv
    ___flge->___flmul
    _dtoa->_pad
    _pad->_fputs
    _fputs->_fputc
    _abs->___awmod
    _logf->___flsub
    ___xxtofl->_ADC_GetConversion
    ___flsub->___fladd
    ___fladd->___fldiv
    ___fldiv->___flmul
    _LCD_PrintStr->_LCD_PrintChar
    _LCD_PrintChar->_LCD_MoveCursorLeft
    _LCD_PrintChar->_LCD_MoveCursorRight
    _LCD_MoveCursorRight->i2_LCD_SetCursorAt
    _LCD_MoveCursorLeft->i2_LCD_SetCursorAt
    i2_LCD_SetCursorAt->i2_LCD_Code
    _LCD_Clear->i2_LCD_Code
    i2_LCD_Code->i2_LCD_4bitCode
    i2_LCD_Code->i2_LCD_8bitCode
    i2_LCD_8bitCode->i2_LCD_8bitCodeNoWait
    i2_LCD_4bitCode->i2_LCD_4bitCodeNoWait
    i2_LCD_Wait->i2___delay
    i2_LCD_Wait->i2__delay_us

Critical Paths under _main in BANK0

    None.

Critical Paths under _INTERRUPT_InterruptManager in BANK0

    _INTERRUPT_InterruptManager->_HandleInterrupt
    _HandleInterrupt->_sprintf
    _sprintf->_logf
    _vfprintf->_vfpfcnvrt
    _vfpfcnvrt->_efgtoa

Critical Paths under _main in BANK1

    _main->_LCD_Init
    _EUSART1_Initialize->_EUSART1_SetErrorHandler
    _EUSART1_Initialize->_EUSART1_SetFramingErrorHandler
    _EUSART1_Initialize->_EUSART1_SetOverrunErrorHandler
    _EUSART1_Initialize->_EUSART1_SetRxInterruptHandler
    _LCD_Init->_LCD_SetCursorAt
    _LCD_SetCursorAt->_LCD_Code
    _LCD_Code->_LCD_4bitCode
    _LCD_Code->_LCD_8bitCode
    _LCD_8bitCode->_LCD_8bitCodeNoWait
    _LCD_4bitCode->_LCD_4bitCodeNoWait
    _LCD_Wait->___delay
    _LCD_Wait->__delay_us

Critical Paths under _INTERRUPT_InterruptManager in BANK1

    None.

Critical Paths under _main in BANK2

    None.

Critical Paths under _INTERRUPT_InterruptManager in BANK2

    None.

Critical Paths under _main in BANK3

    None.

Critical Paths under _INTERRUPT_InterruptManager in BANK3

    None.

Critical Paths under _main in BANK4

    None.

Critical Paths under _INTERRUPT_InterruptManager in BANK4

    None.

Critical Paths under _main in BANK5

    None.

Critical Paths under _INTERRUPT_InterruptManager in BANK5

    None.

Critical Paths under _main in BANK6

    None.

Critical Paths under _INTERRUPT_InterruptManager in BANK6

    None.

Critical Paths under _main in BANK7

    None.

Critical Paths under _INTERRUPT_InterruptManager in BANK7

    None.

Critical Paths under _main in BANK8

    None.

Critical Paths under _INTERRUPT_InterruptManager in BANK8

    None.

Critical Paths under _main in BANK9

    None.

Critical Paths under _INTERRUPT_InterruptManager in BANK9

    None.

Critical Paths under _main in BANK10

    None.

Critical Paths under _INTERRUPT_InterruptManager in BANK10

    None.

Critical Paths under _main in BANK11

    None.

Critical Paths under _INTERRUPT_InterruptManager in BANK11

    None.

Critical Paths under _main in BANK12

    None.

Critical Paths under _INTERRUPT_InterruptManager in BANK12

    None.

Critical Paths under _main in BANK13

    None.

Critical Paths under _INTERRUPT_InterruptManager in BANK13

    None.

Critical Paths under _main in BANK14

    None.

Critical Paths under _INTERRUPT_InterruptManager in BANK14

    None.

Critical Paths under _main in BANK15

    None.

Critical Paths under _INTERRUPT_InterruptManager in BANK15

    None.

Call Graph Tables:

 ---------------------------------------------------------------------------------
 (Depth) Function   	        Calls       Base Space   Used Autos Params    Refs
 ---------------------------------------------------------------------------------
 (0) _main                                                 0     0      0   14718
                           _LCD_Init
                  _SYSTEM_Initialize
 ---------------------------------------------------------------------------------
 (1) _SYSTEM_Initialize                                    0     0      0     392
                     _ADC_Initialize
                 _EUSART1_Initialize
               _INTERRUPT_Initialize
              _OSCILLATOR_Initialize
             _PIN_MANAGER_Initialize
 ---------------------------------------------------------------------------------
 (2) _PIN_MANAGER_Initialize                               0     0      0       0
 ---------------------------------------------------------------------------------
 (2) _OSCILLATOR_Initialize                                0     0      0       0
 ---------------------------------------------------------------------------------
 (2) _INTERRUPT_Initialize                                 0     0      0       0
 ---------------------------------------------------------------------------------
 (2) _EUSART1_Initialize                                   0     0      0     392
            _EUSART1_SetErrorHandler
     _EUSART1_SetFramingErrorHandler
     _EUSART1_SetOverrunErrorHandler
      _EUSART1_SetRxInterruptHandler
 ---------------------------------------------------------------------------------
 (3) _EUSART1_SetRxInterruptHandler                        3     0      3      98
                                              0 BANK1      3     0      3
 ---------------------------------------------------------------------------------
 (3) _EUSART1_SetOverrunErrorHandler                       3     0      3      98
                                              0 BANK1      3     0      3
 ---------------------------------------------------------------------------------
 (3) _EUSART1_SetFramingErrorHandler                       3     0      3      98
                                              0 BANK1      3     0      3
 ---------------------------------------------------------------------------------
 (3) _EUSART1_SetErrorHandler                              3     0      3      98
                                              0 BANK1      3     0      3
 ---------------------------------------------------------------------------------
 (2) _ADC_Initialize                                       0     0      0       0
 ---------------------------------------------------------------------------------
 (1) _LCD_Init                                            12    12      0   14326
                                             15 BANK1      6     6      0
                       _LCD_4bitCode
                 _LCD_4bitCodeNoWait
                       _LCD_8bitCode
                 _LCD_8bitCodeNoWait
                    _LCD_SetCursorAt
                          __delay_ms
                          __delay_us
 ---------------------------------------------------------------------------------
 (2) __delay_ms                                            5     3      2     526
                                              0 BANK1      5     3      2
 ---------------------------------------------------------------------------------
 (2) _LCD_SetCursorAt                                      6     2      4    7324
                                              9 BANK1      6     2      4
                           _LCD_Code
 ---------------------------------------------------------------------------------
 (3) _LCD_Code                                             2     0      2    6096
                                              7 BANK1      2     0      2
                       _LCD_4bitCode
                       _LCD_8bitCode
 ---------------------------------------------------------------------------------
 (4) _LCD_8bitCode                                         2     0      2    2232
                                              5 BANK1      2     0      2
                 _LCD_8bitCodeNoWait
                           _LCD_Wait
 ---------------------------------------------------------------------------------
 (5) _LCD_8bitCodeNoWait                                   5     3      2     370
                                              0 BANK1      5     3      2
 ---------------------------------------------------------------------------------
 (4) _LCD_4bitCode                                         2     0      2    2764
                                              5 BANK1      2     0      2
                 _LCD_4bitCodeNoWait
                           _LCD_Wait
 ---------------------------------------------------------------------------------
 (5) _LCD_Wait                                             0     0      0    1384
                            ___delay
                          __delay_us
 ---------------------------------------------------------------------------------
 (2) __delay_us                                            5     3      2     426
                                              0 BANK1      5     3      2
 ---------------------------------------------------------------------------------
 (6) ___delay                                              5     3      2     958
                                              0 BANK1      5     3      2
 ---------------------------------------------------------------------------------
 (5) _LCD_4bitCodeNoWait                                   5     3      2     370
                                              0 BANK1      5     3      2
 ---------------------------------------------------------------------------------
 Estimated maximum stack depth 6
 ---------------------------------------------------------------------------------
 (Depth) Function   	        Calls       Base Space   Used Autos Params    Refs
 ---------------------------------------------------------------------------------
 (7) _INTERRUPT_InterruptManager                          12    12      0   72867
                                            124 BANK0     12    12      0
                                NULL *
                    _HandleInterrupt *
 ---------------------------------------------------------------------------------
 (8) _HandleInterrupt                                     36    36      0   72867
                                             88 BANK0     36    36      0
                  _ADC_GetConversion
                       _EUSART1_Read
                _EUSART1_Receive_ISR
                      _EUSART1_Write
                          _LCD_Clear
                       _LCD_PrintStr
                            ___fladd
                            ___fldiv
                           ___xxtofl
                               _logf
                            _sprintf
                             _strlen
 ---------------------------------------------------------------------------------
 (9) _sprintf                                             24    16      8   32922
                                             66 BANK0     22    14      8
                  _ADC_GetConversion (ARG)
                           ___xxtofl (ARG)
                               _logf (ARG)
                           _vfprintf
 ---------------------------------------------------------------------------------
 (10) _vfprintf                                            8     2      6   32261
                                             91 COMRAM     2     2      0
                                             51 BANK0      6     0      6
                          _vfpfcnvrt
 ---------------------------------------------------------------------------------
 (11) _vfpfcnvrt                                          19    13      6   31899
                                             83 COMRAM     8     2      6
                                             44 BANK0      7     7      0
                               _dtoa
                             _efgtoa
                              _fputc
                 _read_prec_or_width
 ---------------------------------------------------------------------------------
 (12) _read_prec_or_width                                  9     5      4     643
                                              6 COMRAM     9     5      4
                             ___wmul
 ---------------------------------------------------------------------------------
 (13) ___wmul                                              6     2      4     311
                                              0 COMRAM     6     2      4
 ---------------------------------------------------------------------------------
 (12) _efgtoa                                             54    47      7   25345
                                             74 COMRAM     9     2      7
                                              0 BANK0     44    44      0
                            ___fladd
                            ___fldiv
                             ___fleq
                             ___flge
                            ___flmul
                            ___flneg
                            ___flsub
                            ___fltol
                      ___fpclassifyf
                             _floorf
                               _labs
                             _memcpy
                                _pad
                             _strcpy
 ---------------------------------------------------------------------------------
 (13) _strcpy                                              8     4      4     400
                                              0 COMRAM     8     4      4
 ---------------------------------------------------------------------------------
 (13) _memcpy                                             11     5      6     371
                                              0 COMRAM    11     5      6
 ---------------------------------------------------------------------------------
 (13) _labs                                                8     4      4     294
                                              0 COMRAM     8     4      4
 ---------------------------------------------------------------------------------
 (13) _floorf                                             20    16      4     490
                                             50 COMRAM    20    16      4
                            ___fldiv (ARG)
 ---------------------------------------------------------------------------------
 (13) ___fpclassifyf                                      14    10      4     287
                                              0 COMRAM    14    10      4
 ---------------------------------------------------------------------------------
 (13) ___fltol                                            10     6      4     457
                                              0 COMRAM    10     6      4
 ---------------------------------------------------------------------------------
 (13) ___flneg                                             4     0      4     121
                                              0 COMRAM     4     0      4
 ---------------------------------------------------------------------------------
 (13) ___flge                                             12     4      8     790
                                             25 COMRAM    12     4      8
                            ___flmul (ARG)
 ---------------------------------------------------------------------------------
 (13) ___fleq                                             12     4      8     646
                                              0 COMRAM    12     4      8
 ---------------------------------------------------------------------------------
 (12) _dtoa                                               13     9      4    4310
                                             27 COMRAM    13     9      4
                            ___awdiv
                            ___awmod
                                _abs
                                _pad
 ---------------------------------------------------------------------------------
 (13) _pad                                                11     5      6    2683
                                             16 COMRAM    11     5      6
                              _fputc
                              _fputs
 ---------------------------------------------------------------------------------
 (14) _fputs                                               7     3      4     931
                                              9 COMRAM     7     3      4
                              _fputc
 ---------------------------------------------------------------------------------
 (12) _fputc                                               9     5      4     682
                                              0 COMRAM     9     5      4
                              _putch
 ---------------------------------------------------------------------------------
 (13) _putch                                               1     1      0       0
 ---------------------------------------------------------------------------------
 (13) _abs                                                 4     2      2     142
                                              6 COMRAM     4     2      2
                            ___awmod (ARG)
 ---------------------------------------------------------------------------------
 (13) ___awmod                                             6     2      4     448
                                              0 COMRAM     6     2      4
 ---------------------------------------------------------------------------------
 (13) ___awdiv                                             8     4      4     452
                                              0 COMRAM     8     4      4
 ---------------------------------------------------------------------------------
 (9) _logf                                                76    72      4   18029
                                             74 COMRAM    10     6      4
                                              0 BANK0     66    66      0
                  _ADC_GetConversion (ARG)
                            ___fladd
                            ___fldiv
                            ___flmul
                            ___flsub
                           ___xxtofl
 ---------------------------------------------------------------------------------
 (10) ___xxtofl                                           14    10      4     474
                                              5 COMRAM    14    10      4
                  _ADC_GetConversion (ARG)
 ---------------------------------------------------------------------------------
 (13) ___flsub                                             8     0      8    4865
                                             66 COMRAM     8     0      8
                            ___fladd
                            ___fldiv (ARG)
                            ___flmul (ARG)
 ---------------------------------------------------------------------------------
 (14) ___fladd                                            16     8      8    4086
                                             50 COMRAM    16     8      8
                  _ADC_GetConversion (ARG)
                            ___fldiv (ARG)
                            ___flmul (ARG)
                           ___xxtofl (ARG)
 ---------------------------------------------------------------------------------
 (13) ___flmul                                            25    17      8    4480
                                              0 COMRAM    25    17      8
 ---------------------------------------------------------------------------------
 (13) ___fldiv                                            25    17      8    2919
                                             25 COMRAM    25    17      8
                  _ADC_GetConversion (ARG)
                            ___flmul (ARG)
                           ___xxtofl (ARG)
 ---------------------------------------------------------------------------------
 (9) _LCD_PrintStr                                        10     6      4   12150
                                             20 COMRAM    10     6      4
                 _LCD_MoveCursorLeft
                _LCD_MoveCursorRight
                      _LCD_PrintChar
                             _strlen
                  i2_LCD_SetCursorAt
                        i2__delay_ms
 ---------------------------------------------------------------------------------
 (9) _strlen                                               4     2      2     318
                                              0 COMRAM     4     2      2
 ---------------------------------------------------------------------------------
 (10) _LCD_PrintChar                                       1     1      0    5422
                                             19 COMRAM     1     1      0
                 _LCD_MoveCursorLeft
                _LCD_MoveCursorRight
                         i2_LCD_Code
 ---------------------------------------------------------------------------------
 (11) _LCD_MoveCursorRight                                 4     2      2    2008
                                             15 COMRAM     4     2      2
                  i2_LCD_SetCursorAt
 ---------------------------------------------------------------------------------
 (11) _LCD_MoveCursorLeft                                  4     2      2    2008
                                             15 COMRAM     4     2      2
                  i2_LCD_SetCursorAt
 ---------------------------------------------------------------------------------
 (10) i2_LCD_SetCursorAt                                   6     2      4    1812
                                              9 COMRAM     6     2      4
                         i2_LCD_Code
 ---------------------------------------------------------------------------------
 (9) _LCD_Clear                                            0     0      0    1482
                         i2_LCD_Code
                        i2__delay_ms
 ---------------------------------------------------------------------------------
 (10) i2__delay_ms                                         5     3      2      98
                                              0 COMRAM     5     3      2
 ---------------------------------------------------------------------------------
 (11) i2_LCD_Code                                          2     0      2    1384
                                              7 COMRAM     2     0      2
                     i2_LCD_4bitCode
                     i2_LCD_8bitCode
 ---------------------------------------------------------------------------------
 (12) i2_LCD_8bitCode                                      2     0      2     570
                                              5 COMRAM     2     0      2
               i2_LCD_8bitCodeNoWait
                         i2_LCD_Wait
 ---------------------------------------------------------------------------------
 (13) i2_LCD_8bitCodeNoWait                                5     3      2      92
                                              0 COMRAM     5     3      2
 ---------------------------------------------------------------------------------
 (12) i2_LCD_4bitCode                                      2     0      2     596
                                              5 COMRAM     2     0      2
               i2_LCD_4bitCodeNoWait
                         i2_LCD_Wait
 ---------------------------------------------------------------------------------
 (13) i2_LCD_Wait                                          0     0      0     430
                          i2___delay
                        i2__delay_us
 ---------------------------------------------------------------------------------
 (14) i2__delay_us                                         5     3      2      72
                                              0 COMRAM     5     3      2
 ---------------------------------------------------------------------------------
 (14) i2___delay                                           5     3      2     358
                                              0 COMRAM     5     3      2
 ---------------------------------------------------------------------------------
 (13) i2_LCD_4bitCodeNoWait                                5     3      2      92
                                              0 COMRAM     5     3      2
 ---------------------------------------------------------------------------------
 (9) _EUSART1_Write                                        1     1      0      22
                                              0 COMRAM     1     1      0
 ---------------------------------------------------------------------------------
 (9) _EUSART1_Receive_ISR                                  0     0      0       0
                                NULL *
        _EUSART1_DefaultErrorHandler *
 _EUSART1_DefaultFramingErrorHandler *
 _EUSART1_DefaultOverrunErrorHandler *
              _EUSART1_RxDataHandler
 ---------------------------------------------------------------------------------
 (10) _EUSART1_DefaultOverrunErrorHandler                  0     0      0       0
 ---------------------------------------------------------------------------------
 (10) _EUSART1_DefaultFramingErrorHandler                  0     0      0       0
 ---------------------------------------------------------------------------------
 (10) _EUSART1_DefaultErrorHandler                         0     0      0       0
              _EUSART1_RxDataHandler
 ---------------------------------------------------------------------------------
 (10) _EUSART1_RxDataHandler                               0     0      0       0
 ---------------------------------------------------------------------------------
 (10) NULL(Fake)                                           0     0      0       0
 ---------------------------------------------------------------------------------
 (9) _EUSART1_Read                                         1     1      0      24
                                              0 COMRAM     1     1      0
 ---------------------------------------------------------------------------------
 (9) _ADC_GetConversion                                    5     3      2      22
                                              0 COMRAM     5     3      2
 ---------------------------------------------------------------------------------
 Estimated maximum stack depth 14
 ---------------------------------------------------------------------------------

 Call Graph Graphs:

 _main (ROOT)
   _LCD_Init
     _LCD_4bitCode
       _LCD_4bitCodeNoWait
       _LCD_Wait
         ___delay
         __delay_us
     _LCD_4bitCodeNoWait
     _LCD_8bitCode
       _LCD_8bitCodeNoWait
       _LCD_Wait
     _LCD_8bitCodeNoWait
     _LCD_SetCursorAt
       _LCD_Code
         _LCD_4bitCode
         _LCD_8bitCode
     __delay_ms
     __delay_us
   _SYSTEM_Initialize
     _ADC_Initialize
     _EUSART1_Initialize
       _EUSART1_SetErrorHandler
       _EUSART1_SetFramingErrorHandler
       _EUSART1_SetOverrunErrorHandler
       _EUSART1_SetRxInterruptHandler
     _INTERRUPT_Initialize
     _OSCILLATOR_Initialize
     _PIN_MANAGER_Initialize

 _INTERRUPT_InterruptManager (ROOT)
   NULL(Fake) *
   _HandleInterrupt *
     _ADC_GetConversion
     _EUSART1_Read
     _EUSART1_Receive_ISR
       NULL(Fake) *
       _EUSART1_DefaultErrorHandler *
         _EUSART1_RxDataHandler
       _EUSART1_DefaultFramingErrorHandler *
       _EUSART1_DefaultOverrunErrorHandler *
       _EUSART1_RxDataHandler *
     _EUSART1_Write
     _LCD_Clear
       i2_LCD_Code
         i2_LCD_4bitCode
           i2_LCD_4bitCodeNoWait
           i2_LCD_Wait
             i2___delay
             i2__delay_us
         i2_LCD_8bitCode
           i2_LCD_8bitCodeNoWait
           i2_LCD_Wait
       i2__delay_ms
     _LCD_PrintStr
       _LCD_MoveCursorLeft
         i2_LCD_SetCursorAt
           i2_LCD_Code
       _LCD_MoveCursorRight
         i2_LCD_SetCursorAt
       _LCD_PrintChar
         _LCD_MoveCursorLeft
         _LCD_MoveCursorRight
         i2_LCD_Code
       _strlen
       i2_LCD_SetCursorAt
       i2__delay_ms
     ___fladd
       _ADC_GetConversion (ARG)
       ___fldiv (ARG)
         _ADC_GetConversion (ARG)
         ___flmul (ARG)
         ___xxtofl (ARG)
           _ADC_GetConversion (ARG)
       ___flmul (ARG)
       ___xxtofl (ARG)
     ___fldiv
     ___xxtofl
     _logf
       _ADC_GetConversion (ARG)
       ___fladd (ARG)
       ___fldiv (ARG)
       ___flmul (ARG)
       ___flsub (ARG)
         ___fladd
         ___fldiv (ARG)
         ___flmul (ARG)
       ___xxtofl (ARG)
     _sprintf
       _ADC_GetConversion (ARG)
       ___xxtofl (ARG)
       _logf (ARG)
       _vfprintf (ARG)
         _vfpfcnvrt
           _dtoa
             ___awdiv
             ___awmod
             _abs
               ___awmod (ARG)
             _pad
               _fputc
                 _putch
               _fputs
                 _fputc
           _efgtoa
             ___fladd
             ___fldiv
             ___fleq
             ___flge
               ___flmul (ARG)
             ___flmul
             ___flneg
             ___flsub
             ___fltol
             ___fpclassifyf
             _floorf
               ___fldiv (ARG)
             _labs
             _memcpy
             _pad
             _strcpy
           _fputc
           _read_prec_or_width
             ___wmul
     _strlen

 Address spaces:
Name               Size   Autos  Total    Cost      Usage
BIGRAM             E7F      0       0      50        0.0%
BITBANK13          100      0       0      30        0.0%
BANK13             100      0       0      31        0.0%
BITBANK12          100      0       0      28        0.0%
BANK12             100      0       0      29        0.0%
BITBANK11          100      0       0      26        0.0%
BANK11             100      0       0      27        0.0%
BITBANK10          100      0       0      24        0.0%
BANK10             100      0       0      25        0.0%
BITBANK9           100      0       0      22        0.0%
BANK9              100      0       0      23        0.0%
BITBANK8           100      0       0      20        0.0%
BANK8              100      0       0      21        0.0%
BITBANK7           100      0       0      18        0.0%
BANK7              100      0       0      19        0.0%
BITBANK6           100      0       0      16        0.0%
BANK6              100      0       0      17        0.0%
BITBANK5           100      0       0      14        0.0%
BANK5              100      0       0      15        0.0%
BITBANK4           100      0       0      12        0.0%
BANK4              100      0       0      13        0.0%
BITBANK3           100      0       0      10        0.0%
BANK3              100      0       0      11        0.0%
BITBANK2           100      0       0       8        0.0%
BANK2              100      0       0       9        0.0%
BITBANK1           100      0       0       6        0.0%
BANK1              100     15      B7       7       71.5%
BITBANK0            A0      0       0       4        0.0%
BANK0               A0     88      9F       5       99.4%
BITBIGSFR           80      0       0      48        0.0%
BITBANK14           80      0       0      32        0.0%
BANK14              80      0       0      33        0.0%
BITBANK15           60      0       0      34        0.0%
BANK15              60      0       0      35        0.0%
BIGRAM_1            60      0       0      47        0.0%
BITCOMRAM           5E      0       0       0        0.0%
COMRAM              5E     5D      5E       1      100.0%
BITBIGSFR_1hhhl     1E      0       0      37        0.0%
BITBIGSFR_1llll     1E      0       0      46        0.0%
BITBIGSFR_1hhlh     10      0       0      40        0.0%
BITBIGSFR_1hhlh      C      0       0      41        0.0%
BITBIGSFR_1hhlh      B      0       0      39        0.0%
BITBIGSFR_1hhhh      A      0       0      36        0.0%
BITBIGSFR_1hhlh      2      0       0      38        0.0%
BITBIGSFR_1lllh      2      0       0      44        0.0%
BITBIGSFR_1llll      1      0       0      45        0.0%
BITBIGSFR_1hhlh      1      0       0      42        0.0%
BITBIGSFR_1llh       1      0       0      43        0.0%
BIGSFR_1             0      0       0     200        0.0%
BIGSFR               0      0       0     200        0.0%
BITSFR_1             0      0       0     200        0.0%
SFR_1                0      0       0     200        0.0%
BITSFR               0      0       0     200        0.0%
SFR                  0      0       0     200        0.0%
STACK                0      0       0       2        0.0%
NULL                 0      0       0       0        0.0%
ABS                  0      0     1B4      49        0.0%
DATA                 0      0     1B4       3        0.0%
CODE                 0      0       0       0        0.0%


Microchip Technology PIC18 Macro Assembler V2.41 build 20230208172133 
Symbol Table                                                                                   Sun Mar 24 15:43:06 2024

                                  ___fldiv@aexp 0032                                    ___fldiv@bexp 0031  
                                  ___fldiv@sign 002A                                              l50 4CF0  
                                            l52 4D1A                                              l46 4E2A  
                                            l55 4AEC                                              l80 4F88  
                                            l58 4B0A                                              l83 498E  
                                            l92 4F54                                              l86 4F42  
                                            l89 476C                                              l97 4FCE  
                                  ___awdiv@sign 0006                             ___wmul@multiplicand 0003  
                                           l101 3A6E                                             l110 3B62  
                                           l112 3B76                                             l213 4F04  
                                           l216 4FFE                                             l154 404C  
                                           l257 4C60                                             l450 4FC0  
                                           l444 4FB2                                             l453 4F96  
                                           l447 4FA4                                             l394 4700  
                                           l468 500E                                             l548 4EE8  
                                           l549 4EE8                                             l496 4F1A  
                                   i2___delay@i 0004                                             _Lg1 100D  
                                           _Lg2 1009                                             _Lg3 1005  
                                           _Lg4 1001                                             _abs 4C62  
                                           _pad 459A                                             _len 00FB  
                              ??i2_LCD_4bitCode 0008                                    ___awmod@sign 0006  
                                           tosl 0FFD                                             wreg 0FE8  
                                    _TXSTA1bits 0FAC                                    ___flmul@aexp 0012  
                                  ___flmul@bexp 0013                                  ??_LCD_4bitCode 0193  
                                  ___flmul@sign 000D                                    ___flmul@temp 0018  
                                  ___flmul@prod 0014                                ??i2_LCD_8bitCode 0008  
                                 _LCD_PrintChar 4614                                     i2__delay_ms 4CA2  
                                   i2__delay_us 4DC4                                    ___fltol@exp1 000A  
                                          ?_abs 0007                                            l5020 4AD4  
                                          l5100 4C46                                            l5030 3FC8  
                                          l5022 4AE6                                            l5110 4FF6  
                                          l5102 4C4C                                            l5032 3FE4  
                                          l5024 3F76                                            l5112 4F06  
                                          l5120 46A6                                            l5104 4C4E  
                                ??_LCD_8bitCode 0193                                            l5034 3FF8  
                                          l5042 4020                                            l5026 3F92  
                                          l5018 4AC6                                            l5130 46C8  
                                          l5122 46AA                                            l5114 468E  
                                          l5106 4C50                                            l5036 400C  
                                          l5028 3FAE                                            l5300 3AB4  
                                          l5132 46DA                                            l5124 46AE  
                                          l5116 4690                                            l5108 4C56  
                                          l5310 3AFA                                            l5302 3AC2  
                                          l5134 46FE                                            l5126 46B2  
                                          l5118 46A2                                            l4432 4F7A  
                                          l5312 3B1A                                            l5304 3AD0  
                                          l5128 46B6                                            l5320 4EF8  
                                          l5306 3ADE                                            l5322 4EFC  
                                          l5308 3AEC                                            l5324 4F00  
                                          l5316 4EF0                                            l5094 500C  
                                          l5318 4EF4                                            l5510 4EE4  
                                          ?_pad 0011                                            l4480 4986  
                                          l4800 4F32                                            l5280 3A6E  
                                          l5096 4C20                                            l5512 4EE6  
                                          l4490 476A                                            l4802 4F44  
                                          l4482 498A                                            l5290 3A6E  
                                          l5098 4C44                                            l5506 4EDA  
                                          l4476 4F7A                                            l4484 498C  
                                          l5292 3A7C                                            l5276 3A3C  
                                          l5508 4EE2                                            l4486 4702  
                                          l4478 4940                                            l5294 3A8A  
                                          l5278 3A4C                                            l4488 4768  
                                          l3880 4E08                                            l5296 3A98  
                                          l5288 3A6E                                            l3882 4E0C  
                                          l4914 4FC2                                            l5298 3AA6  
                                          l3884 4CE2                                            l3878 4DFA  
                                          l3886 4CF6                                            l4950 4FB4  
                                          l3888 4CFC                                            l4944 4F8A  
                                          l5674 4036                                            l4946 4FA6  
                                          l4948 4F98                                            STR_1 1026  
                                          STR_2 1026                                            STR_3 1019  
                                          STR_4 101E                                            STR_7 1022  
                                          _LATA 0F89                                            _LATB 0F8A  
                                          _LATC 0F8B                                            _LATD 0F8C  
                                          _LATE 0F8D                                            _LATF 0F8E  
                                          _LATG 0F8F                                            _LATH 0F90  
                                          _LATJ 0F91                                            u3330 4E2A  
                                          u3331 4E26                                            u3340 4D1A  
                                          u3341 4D16                                            u5030 4B0A  
                                          u5031 4B06                                            u5040 3F92  
                                          u4305 473A                                            u5041 3F8E  
                                          u5050 3FAE                                            u5051 3FAA  
                                          u5060 3FC8                                            u5061 3FC4  
                                          u5070 3FE4                                            u5071 3FE0  
                                          u4285 494E                                            u5325 3A58  
                                          u5326 3A5A                                            u4295 4710  
                                          u5335 3A62                                            u5336 3A64  
                                          u5345 3A6C                                            u5347 3A6E  
                                          i2l50 4DD0                                            i2l52 4DF8  
                                          i2l46 4E5A                                            i2l55 4CC2  
                                          i2l80 4FEA                                            u5657 4ADC  
                                          i2l58 4CE0                                            i2l83 4A7C  
                                          i2l92 4F78                                            i2l86 4F66  
                                          i2l89 47D6                                            i2l97 4FDC  
                                 _EUSART1_Write 4F1C                                     ?i2_LCD_Code 0008  
                                 ?_LCD_PrintStr 0015                                            abs@a 0007  
                                          _dbuf 011A                                            _labs 47D8  
                                          _main 4EDA                                            _dtoa 38A6  
                                   ?i2_LCD_Wait 0001                                            _logf 1A22  
                                 ?_EUSART1_Read 0001                                            _prec 00F6  
                                          pad@i 0018                                            pad@p 0015  
                                          fsr1h 0FE2                                            fsr2h 0FDA  
                                          indf2 0FDF                                            fsr1l 0FE1  
                                          pad@w 001A                                            fsr2l 0FD9  
                                          btemp 005F                                   ___fpclassifyf 3D82  
                                          prodh 0FF4                                            prodl 0FF3  
                                          start 00B4                                 ___fldiv@new_exp 002B  
                fp__EUSART1_DefaultErrorHandler 0000                                    ___param_bank 0000  
                               _LCD_SetCursorAt 3F76                                           ??_abs 0009  
                                         ??_pad 0017                                __end_of_LCD_Code 4FD0  
                              __end_of_LCD_Init 3B78                                __end_of_LCD_Wait 4F8A  
                 __end_of_OSCILLATOR_Initialize 5000                           _eusart1RxStatusBuffer 0100  
                                 ___fltol@sign1 0009                                 __end_of___delay 4E2C  
                                         ?_labs 0001                                 __end_of___fladd 262A  
                                         ?_main 0001                                           ?_dtoa 001C  
                                         ?_logf 004B                                 __end_of___fldiv 31AE  
                               __end_of___awdiv 4380                                 __end_of___flneg 4D8E  
                               __end_of___awmod 44F0                            i2_LCD_8bitCodeNoWait 4A30  
                               __end_of___flmul 2A54                                 __end_of___flsub 4B52  
                               __end_of___fltol 3C7E                                 ___awdiv@divisor 0003  
                                         i2l120 468C                                           i2l131 3F74  
                                         i2l126 3F1A                                           i2l137 4E86  
                                         i2l154 4122                                           i2l421 4F30  
                                         i2l181 4AC4                                           i2l511 4D34  
                                         i2l415 493E                                           i2l432 4EB2  
                                         i2l441 500A                                           i2l177 4B96  
                                         i2l514 4D54                                           i2l418 4F1E  
                                         i2l435 5014                                           i2l428 443E  
                                         i2l438 5004                                           i2l391 2E12  
                                         i2l554 4ED8                                           i2l388 2DF6  
                                         i2l813 4598                                           i2l477 0080  
                                         i2l824 3D80                                           i2l819 3D3A  
                                         i2l851 3C7C                                           i2l828 4D8C  
                                  LCD_Code@code 0193                                           i2l785 437E  
                               ___awdiv@counter 0005                                           i2l798 44EE  
                                  vfpfcnvrt@fmt 0056                                    __delay_ms@ms 018C  
                                         _PORTE 0F84                                           _TRISA 0F92  
                                         _TRISB 0F93                                           _TRISC 0F94  
                                         _TRISD 0F95                                           _TRISE 0F96  
                                         _TRISF 0F97                                           _TRISG 0F98  
                                         _TRISH 0F99                                           _TRISJ 0F9A  
                                  __delay_us@us 018C                                  ?_LCD_PrintChar 0001  
                                         _flags 00FA                             read_prec_or_width@c 000D  
                                         _errno 00F8                             read_prec_or_width@n 000E  
                                         _fputc 41F2                                           _fputs 4BDC  
                                         labs@a 0001                                           pad@fp 0011  
                                         _width 00F4                                           _putch 5012  
                                         dtoa@d 001E                                           dtoa@i 0026  
                                         dtoa@p 0022                                           dtoa@s 0028  
                                         dtoa@w 0024                                  ?_EUSART1_Write 0001  
                                         logf@R 0060                                           logf@f 009A  
                                         logf@k 007C                                           logf@s 0086  
                                         logf@u 0096                                           logf@w 008E  
                                         logf@x 004B                                           logf@z 008A  
                                         pclath 0FFA                                           pclatu 0FFB  
                                         tablat 0FF5                                  ??_LCD_PrintStr 0019  
                                ??_EUSART1_Read 0001                                           ttemp5 0060  
                                         ttemp6 0063                                           ttemp7 0067  
                                         status 0FD8                                           wtemp8 0060  
                               __end_of_sprintf 49E0                                  ?___fpclassifyf 0001  
         fp__EUSART1_DefaultFramingErrorHandler 0000      __end_of_EUSART1_DefaultFramingErrorHandler 5016  
          ??_EUSART1_DefaultFramingErrorHandler 0001             ?_EUSART1_DefaultFramingErrorHandler 0001  
            _EUSART1_DefaultFramingErrorHandler 5014                           HandleInterrupt@i_1054 00D8  
                               __initialization 483E                                    __end_of_labs 483E  
                    __end_of_EUSART1_Initialize 4702                                    __end_of_main 4EF0  
                                  __end_of_dtoa 3A3C                                    __end_of_logf 216A  
                            _LCD_4bitCodeNoWait 4702                     ?_INTERRUPT_InterruptManager 0001  
                             ??_HandleInterrupt 00B8                                   i2__delay_ms@i 0004  
                         ?i2_LCD_8bitCodeNoWait 0001                                   i2__delay_us@i 0004  
                                        ??_labs 0005                                          ??_main 01A1  
                                        ??_dtoa 0020                                          ??_logf 004F  
                             __end_of_LCD_Clear 4E88                                   __activetblptr 0003  
                           ?_LCD_4bitCodeNoWait 018C                      __end_of_read_prec_or_width 41F2  
                    HandleInterrupt@temperature 00BB                                          _ADCON0 0FC2  
                                        _ADCON1 0FC1                                          _ADCON2 0FC0  
                                        ?_fputc 0001                                          ?_fputs 000A  
                                        _ADRESH 0FC4                                          _ADRESL 0FC3  
                              ___awdiv@dividend 0001                                          ?_putch 0001  
                                        i2l1108 2542                                          i2l1124 4B50  
                                        i2l1212 38A4                                          i2l1141 2FD0  
                                        i2l1109 2530                                          i2l1150 30B8  
                                        i2l1223 383C                                          i2l1303 38EE  
                                        i2l1136 31AC                                          i2l1216 37E0  
                                        i2l1209 3748                                          i2l1305 38F6  
                                        i2l1138 300C                                          i2l1082 2358  
                                        i2l1306 393C                                          i2l1147 3052  
                                        i2l1091 2628                                          i2l1083 2346  
                                        i2l1331 13BC                                          i2l1172 2A52  
                                        i2l1084 230C                                          i2l1149 30CA  
                                        i2l1317 3A3A                                          i2l1333 1202  
                                        i2l1422 4C98                                          i2l1262 49DE  
                                        i2l1175 28E4                                          i2l1431 36F0  
                                        i2l1407 48EC                                          i2l1168 26EE  
                                        i2l1248 2168                                          i2l1328 1A20  
                                        i2l1185 2A14                                          i2l1177 295C  
                                        i2l1425 4CA0                                          i2l1417 3E7E  
                                        i2l1361 1804                                          i2l4002 30DA  
                                        i2l4010 3122                                          i2l1178 294A  
                                        i2l1434 3634                                          i2l1442 482C  
                                        i2l1099 2472                                          i2l1451 4A2E  
                                        i2l4020 318C                                          i2l4012 313C  
                                        i2l4004 30E6                                          i2l4100 27EA  
                                        i2l1445 483C                                          i2l1373 41E8  
                                        i2l4022 319A                                          i2l4014 3152  
                                        i2l4006 30F4                                          i2l4110 2868  
                                        i2l4102 27FA                                          i2l1294 45BC  
                                        i2l1463 42BA                                          i2l1471 4C1E  
                                        i2l4024 31A0                                          i2l4016 316C  
                                        i2l4008 311E                                          i2l4120 28E2  
                                        i2l4112 289E                                          i2l4104 2816  
                                        i2l4040 2646                                          i2l4200 4350  
                                        i2l1480 4BDA                                          i2l1377 41F0  
                                        i2l1385 34DE                                          i2l4026 31A2  
                                        i2l4018 3188                                          i2l4130 2942  
                                        i2l4122 28F4                                          i2l4114 28AC  
                                        i2l4106 2822                                          i2l4050 268C  
                                        i2l4042 2656                                          i2l4034 262A  
                                        i2l4210 4376                                          i2l4202 4352  
                                        i2l1474 5012                                          i2l1298 4612  
                                        i2l5002 489A                                          i2l5012 4CA2  
                                        i2l4140 29B0                                          i2l4124 2902  
                                        i2l4116 28CA                                          i2l4108 283E  
                                        i2l4060 26B8                                          i2l4052 2692  
                                        i2l4044 2666                                          i2l4036 2636  
                                        i2l4204 4358                                          i2l4220 445A  
                                        i2l5004 48A6                                          i2l5014 4CAE  
                                        i2l1486 4DC2                                          i2l4150 2A18  
                                        i2l4134 296C                                          i2l4142 29B4  
                                        i2l4126 2906                                          i2l4118 28D4  
                                        i2l4070 270E                                          i2l4062 26C8  
                                        i2l4054 2698                                          i2l4046 2676  
                                        i2l4038 2644                                          i2l4206 435E  
                                        i2l4230 448E                                          i2l4222 445E  
                                        i2l4214 4440                                          i2l4310 3BE2  
                                        i2l4302 3BA2                                          i2l5006 48C2  
                                        i2l5016 4CBE                                          i2l4160 2A42  
                                        i2l4152 2A28                                          i2l4144 29CE  
                                        i2l4136 2978                                          i2l4128 2914  
                                        i2l4080 274E                                          i2l4064 26D8  
                                        i2l4056 26A6                                          i2l4048 267C  
                                        i2l5200 1AAE                                          i2l4208 436E  
                                        i2l4240 44C8                                          i2l4232 4496  
                                        i2l4224 446C                                          i2l4216 4444  
                                        i2l3600 4274                                          i2l4320 3C12  
                                        i2l4312 3BF0                                          i2l4304 3BCC  
                                        i2l4400 35E8                                          i2l5008 48E2  
                                        i2l5050 3E80                                          i2l4154 2A36  
                                        i2l4146 29E2                                          i2l4138 2986  
                                        i2l4090 2798                                          i2l4082 275A  
                                        i2l4074 2722                                          i2l4066 26DE  
                                        i2l4058 26A8                                          i2l5210 1B76  
                                        i2l5202 1AD6                                          i2l4170 42BC  
                                        i2l4234 44A4                                          i2l4242 44CE  
                                        i2l4226 4474                                          i2l4218 4452  
                                        i2l4250 44F0                                          i2l4330 3C3C  
                                        i2l4322 3C1C                                          i2l4306 3BCE  
                                        i2l4410 36D0                                          i2l4402 3624  
                                        i2l5140 439E                                          i2l3604 4FDE  
                                        i2l5060 3ED6                                          i2l5052 3E90  
                                        i2l4156 2A38                                          i2l4148 29FC  
                                        i2l4092 27A4                                          i2l4084 2772  
                                        i2l4076 272E                                          i2l4068 26FE  
                                        i2l3700 2230                                          i2l4164 4B0C  
                                        i2l5220 1C1E                                          i2l4180 42E8  
                                        i2l4172 42C0                                          i2l4244 44DE  
                                        i2l4236 44BA                                          i2l4228 4486  
                                        i2l4340 459A                                          i2l4500 38E2  
                                        i2l4260 4590                                          i2l4252 451E  
                                        i2l4332 3C4C                                          i2l4308 3BDE  
                                        i2l4412 36E0                                          i2l4404 3658  
                                        i2l4420 4A00                                          i2l5150 43FE  
                                        i2l5142 43AC                                          i2l5062 3EEA  
                                        i2l5054 3E9C                                          i2l5070 3F2A  
                                        i2l4158 2A3E                                          i2l4094 27B4  
                                        i2l4086 277E                                          i2l4078 2738  
                                        i2l3710 226A                                          i2l3702 2232  
                                        i2l4166 4B1C                                          i2l5230 1C78  
                                        i2l5214 1BD2                                          i2l5206 1B32  
                                        i2l5222 1C32                                          i2l4190 4316  
                                        i2l4182 42F0                                          i2l4174 42CE  
                                        i2l4246 44E6                                          i2l4238 44C2  
                                        i2l4350 45E0                                          i2l4342 45A8  
                                        i2l4510 3930                                          i2l4502 38FE  
                                        i2l4262 4596                                          i2l4254 452E  
                                        i2l4270 3CBC                                          i2l4334 3C5C  
                                        i2l4318 3C08                                          i2l4406 3694  
                                        i2l4422 4A04                                          i2l5160 4900  
                                        i2l5152 441C                                          i2l5144 43C6  
                                        i2l5136 4380                                          i2l5072 3F4C  
                                        i2l5064 3EFE                                          i2l5056 3EB0  
                                        i2l4096 27C0                                          i2l4088 278A  
                                        i2l3800 2488                                          i2l3720 227E  
                                        i2l3712 226E                                          i2l3704 223A  
                                        i2l5240 1D28                                          i2l5224 1C48  
                                        i2l5216 1BDA                                          i2l5208 1B6E  
                                        i2l4192 431E                                          i2l4184 42F4  
                                        i2l4176 42D6                                          i2l4352 45FE  
                                        i2l4344 45B4                                          i2l4520 3986  
                                        i2l4512 3938                                          i2l4504 390E  
                                        i2l4256 455C                                          i2l4280 3D28  
                                        i2l4272 3CEA                                          i2l4336 3C6C  
                                        i2l4328 3C30                                          i2l4360 3DA2  
                                        i2l4408 36A8                                          i2l4424 4A10  
                                        i2l4416 49E0                                          i2l5080 49AA  
                                        i2l5400 2E00                                          i2l5170 4938  
                                        i2l5162 4920                                          i2l5154 443A  
                                        i2l5146 43D4                                          i2l5138 4390  
                                        i2l3650 4A30                                          i2l5090 4E68  
                                        i2l5074 3F60                                          i2l5066 3F0E  
                                        i2l5058 3EC4                                          i2l4098 27D0  
                                        i2l3810 24C4                                          i2l3802 2498  
                                        i2l3730 2292                                          i2l3722 2282  
                                        i2l3714 2272                                          i2l3706 224A  
                                        i2l5250 1E74                                          i2l5242 1D5C  
                                        i2l5234 1C8C                                          i2l5218 1C0E  
                                        i2l4194 432C                                          i2l4186 42FC  
                                        i2l4178 42DA                                          i2l4354 4C62  
                                        i2l4346 45C8                                          i2l4530 39DA  
                                        i2l4522 398C                                          i2l4514 3944  
                                        i2l4506 3914                                          i2l4258 456C  
                                        i2l4282 3D78                                          i2l4274 3CFA  
                                        i2l4266 3C7E                                          i2l4290 4D6C  
                                        i2l4362 3DE0                                          i2l4370 3E20  
                                        i2l4418 49F4                                          i2l4426 4A14  
                                        i2l4610 1218                                          i2l4602 11B2  
                                        i2l5082 49B2                                          i2l5402 2E10  
                                        i2l5330 2A60                                          i2l5172 493A  
                                        i2l5164 4922                                          i2l5156 48EE  
                                        i2l5148 43E4                                          i2l5180 4F2C  
                                        i2l3660 47D2                                          i2l3580 4E38  
                                        i2l3652 4A74                                          i2l4428 4FD0  
                                        i2l5092 4E7A                                          i2l5068 3F26  
                                        i2l3900 2E2E                                          i2l3820 24F0  
                                        i2l3812 24C6                                          i2l3740 22A6  
                                        i2l3732 2296                                          i2l3724 2286  
                                        i2l3716 2276                                          i2l3708 225C  
                                        i2l5260 1F9C                                          i2l5252 1EA8  
                                        i2l5244 1DB4                                          i2l5236 1D08  
                                        i2l5228 1C5C                                          i2l4196 4332  
                                        i2l4188 430E                                          i2l4356 4C7C  
                                        i2l4348 45DC                                          i2l4532 39F4  
                                        i2l4524 3992                                          i2l4516 394E  
                                        i2l4508 3924                                          i2l4284 3D7E  
                                        i2l4276 3D08                                          i2l4268 3CAC  
                                        i2l4292 4D7C                                          i2l4372 3E32  
                                        i2l4364 3E08                                          i2l4380 4B98  
                                        i2l4700 1762                                          i2l4620 130E  
                                        i2l4612 124C                                          i2l4604 11CC  
                                        i2l5084 49CE                                          i2l5076 4990  
                                        i2l5340 2ACE                                          i2l5332 2A72  
                                        i2l5500 0048                                          i2l5182 4D1E  
                                        i2l5174 493C                                          i2l5166 4932  
                                        i2l5158 48EE                                          i2l3662 47D4  
                                        i2l3582 4E3C                                          i2l3654 4A78  
                                        i2l3910 2E62                                          i2l3902 2E30  
                                        i2l3830 2528                                          i2l3814 24D4  
                                        i2l3806 24AC                                          i2l3822 24F2  
                                        i2l3750 2304                                          i2l3734 229A  
                                        i2l3726 228A                                          i2l3718 227A  
                                        i2l3742 22AA                                          i2l3670 2186  
                                        i2l5270 20DC                                          i2l5262 1FD0  
                                        i2l5254 1F00                                          i2l5246 1DE8  
                                        i2l5238 1D18                                          i2l4198 4348  
                                        i2l3590 41F2                                          i2l4534 3A04  
                                        i2l4518 3954                                          i2l4526 39AE  
                                        i2l4278 3D1A                                          i2l4366 3E14  
                                        i2l4358 3D82                                          i2l4390 3500  
                                        i2l4382 4BA8                                          i2l4710 1834  
                                        i2l4702 17DA                                          i2l4630 13C4  
                                        i2l4622 1342                                          i2l4614 128A  
                                        i2l4550 1052                                          i2l4542 102A  
                                        i2l5078 49A2                                          i2l5350 2B28  
                                        i2l5342 2AF2                                          i2l5334 2A84  
                                        i2l5326 2A54                                          i2l5502 0056  
                                        i2l5184 4D30                                          i2l5168 4936  
                                        i2l3584 4DC4                                          i2l3648 4FDE  
                                        i2l3656 4A7A                                          i2l5088 4E5C  
                                        i2l3920 2E94                                          i2l3904 2E40  
                                        i2l3912 2E6A                                          i2l3840 25A6  
                                        i2l3816 24DC                                          i2l3808 24B6  
                                        i2l3824 2500                                          i2l3760 233A  
                                        i2l3752 231A                                          i2l3744 22AE  
                                        i2l3736 229E                                          i2l3728 228E  
                                        i2l3672 2196                                          i2l3680 21C0  
                                        i2l3664 216A                                          i2l5272 2110  
                                        i2l5264 1FF8                                          i2l5256 1F34  
                                        i2l5248 1E1C                                          i2l5192 1A22  
                                        i2l3592 4204                                          i2l4536 3A0A  
                                        i2l4528 39C8                                          i2l4288 4D56  
                                        i2l4296 3B78                                          i2l4376 3E76  
                                        i2l4392 3556                                          i2l4384 47D8  
                                        i2l4720 185A                                          i2l4712 1838  
                                        i2l4704 17FA                                          i2l4640 13F4  
                                        i2l4632 13D4                                          i2l4624 134A  
                                        i2l4616 12BC                                          i2l4608 1212  
                                        i2l4560 10A8                                          i2l4552 1076  
                                        i2l4544 1030                                          i2l5360 2C1A  
                                        i2l5352 2B4C                                          i2l5344 2B04  
                                        i2l5328 2A58                                          i2l5504 0064  
                                        i2l5186 4D32                                          i2l5178 4F1E  
                                        i2l3658 476E                                          i2l3578 4E2C  
                                        i2l3586 4DD6                                          i2l4810 4A7E  
                                        i2l3930 2EC8                                          i2l3922 2E96  
                                        i2l3914 2E7A                                          i2l3906 2E50  
                                        i2l3850 25EC                                          i2l3834 2552  
                                        i2l3842 25A8                                          i2l3826 2504  
                                        i2l3818 24E0                                          i2l3770 238A  
                                        i2l3762 2344                                          i2l3754 2326  
                                        i2l3746 22D8                                          i2l3738 22A2  
                                        i2l3690 21F0                                          i2l3682 21D0  
                                        i2l3674 21A6                                          i2l3666 2176  
                                        i2l5266 2050                                          i2l5258 1F68  
                                        i2l5194 1A52                                          i2l3594 4216  
                                        i2l4538 3A1A                                          i2l4298 3B8E  
                                        i2l4394 356A                                          i2l4386 47F6  
                                        i2l4730 188E                                          i2l4722 1860  
                                        i2l4714 183E                                          i2l4706 1816  
                                        i2l4642 1406                                          i2l4650 1446  
                                        i2l4634 13E0                                          i2l4618 12FA  
                                        i2l4570 10F8                                          i2l4562 10B4  
                                        i2l4554 1080                                          i2l4546 1040  
                                        i2l5370 2CC8                                          i2l5362 2C72  
                                        i2l5354 2B52                                          i2l5346 2B10  
                                        i2l5338 2A96                                          i2l5188 4D42  
                                        i2l4820 4E9C                                          i2l3588 4DDA  
                                        i2l4804 4B52                                          i2l4812 4AA8  
                                        i2l3940 2F0E                                          i2l3924 2EA6  
                                        i2l3932 2ED0                                          i2l3916 2E80  
                                        i2l3908 2E60                                          i2l3860 2616  
                                        i2l3852 25FA                                          i2l3844 25B8  
                                        i2l3836 255E                                          i2l3828 2512  
                                        i2l3780 23C6                                          i2l3772 239A  
                                        i2l3764 2366                                          i2l3756 232A  
                                        i2l3748 22F4                                          i2l3692 21FE  
                                        i2l3684 21D6                                          i2l3676 21B6  
                                        i2l3668 2184                                          i2l5268 20A8  
                                        i2l5196 1A5C                                          i2l3596 4220  
                                        i2l4492 38A6                                          i2l4396 3578  
                                        i2l4388 34E0                                          i2l4732 1894  
                                        i2l4716 1846                                          i2l4708 1824  
                                        i2l4724 1866                                          i2l4740 192C  
                                        i2l4660 152E                                          i2l4652 144E  
                                        i2l4644 1414                                          i2l4636 13E8  
                                        i2l4628 138A                                          i2l4580 112C  
                                        i2l4572 10FC                                          i2l4564 10BC  
                                        i2l4556 1088                                          i2l4548 104E  
                                        i2l5380 2D12                                          i2l5372 2CCE  
                                        i2l5364 2C98                                          i2l5356 2BC2  
                                        i2l5348 2B22                                          i2l4822 4EAC  
                                        i2l4806 4B7A                                          i2l4814 4AB0  
                                        i2l3950 2F36                                          i2l3942 2F12  
                                        i2l3934 2EE0                                          i2l3926 2EB6  
                                        i2l3918 2E86                                          i2l3862 2618  
                                        i2l3854 2600                                          i2l3846 25C8  
                                        i2l3838 256C                                          i2l3790 240C  
                                        i2l3782 23D4                                          i2l3774 23A8  
                                        i2l3766 2376                                          i2l3758 2338  
                                        i2l3694 2200                                          i2l3686 21E8  
                                        i2l3678 21B8                                          i2l5198 1A72  
                                        i2l3598 423E                                          i2l3870 4BFA  
                                        i2l4494 38BA                                          i2l4750 19AC  
                                        i2l4742 194A                                          i2l4734 18EC  
                                        i2l4726 1878                                          i2l4718 1856  
                                        i2l4670 15EC                                          i2l4662 1562  
                                        i2l4654 145E                                          i2l4646 142C  
                                        i2l4638 13F0                                          i2l4590 1188  
                                        i2l4574 1102                                          i2l4558 1098  
                                        i2l4566 10C0                                          i2l4830 31E4  
                                        i2l5382 2D36                                          i2l5390 2DB8  
                                        i2l5374 2CF2                                          i2l5366 2CAA  
                                        i2l5358 2BF6                                          i2l4824 4EB0  
                                        i2l4816 4E88                                          i2l4808 4B82  
                                        i2l4920 4626                                          i2l3960 2F84  
                                        i2l3936 2EF6                                          i2l3928 2EC6  
                                        i2l3856 2602                                          i2l3848 25E8  
                                        i2l3792 2440                                          i2l3784 23D6  
                                        i2l3776 23B6                                          i2l3696 2210  
                                        i2l3688 21EA                                          i2l3872 4BFE  
                                        i2l4496 38CA                                          i2l4760 1A00  
                                        i2l4752 19BA                                          i2l4744 1966  
                                        i2l4736 1920                                          i2l4728 188A  
                                        i2l4680 1688                                          i2l4672 1602  
                                        i2l4656 1472                                          i2l4664 1568  
                                        i2l4648 143E                                          i2l4592 118E  
                                        i2l4576 110A                                          i2l4568 10E6  
                                        i2l4584 114C                                          i2l4840 3248  
                                        i2l4832 31F2                                          i2l5392 2DCA  
                                        i2l5384 2D5C                                          i2l5368 2CB6  
                                        i2l5376 2CFC                                          i2l4818 4E9A  
                                        i2l3874 4F56                                          i2l4930 4670  
                                        i2l4922 463A                                          i2l3970 2FCE  
                                        i2l3962 2F94                                          i2l3954 2F4A  
                                        i2l3938 2F06                                          i2l3946 2F26  
                                        i2l3858 2608                                          i2l3794 2442  
                                        i2l3786 23E0                                          i2l3778 23C2  
                                        i2l3698 2220                                          i2l3866 4BDC  
                                        i2l4498 38D2                                          i2l4754 19D2  
                                        i2l4746 196E                                          i2l4738 1928  
                                        i2l4682 16DE                                          i2l4690 1730  
                                        i2l4674 1634                                          i2l4666 1586  
                                        i2l4658 14D6                                          i2l4594 1196  
                                        i2l4586 1172                                          i2l4578 1122  
                                        i2l3890 4EB4                                          i2l4770 418E  
                                        i2l4842 3258                                          i2l4834 31F6  
                                        i2l4826 31AE                                          i2l5394 2DCE  
                                        i2l3876 4F68                                          i2l4780 4084  
                                        i2l4932 4680                                          i2l4924 4642  
                                        i2l4940 4DB6                                          i2l3980 301C  
                                        i2l3972 2FDA                                          i2l3964 2F9C  
                                        i2l3956 2F64                                          i2l3948 2F36  
                                        i2l3796 2452                                          i2l3788 23E6  
                                        i2l3868 4BE8                                          i2l4756 19E2  
                                        i2l4748 197C                                          i2l4692 1740  
                                        i2l4684 16E4                                          i2l4676 1644  
                                        i2l4668 15BA                                          i2l4588 1184  
                                        i2l3892 4ED0                                          i2l4772 41AE  
                                        i2l4764 4124                                          i2l4860 332C  
                                        i2l4852 32F6                                          i2l4844 3278  
                                        i2l4836 321E                                          i2l4828 31D6  
                                        i2l5396 2DDE                                          i2l5388 2D84  
                                        i2l4782 409E                                          i2l4926 4648  
                                        i2l4918 4616                                          i2l4934 4D8E  
                                        i2l3982 3032                                          i2l3990 3062  
                                        i2l3974 2FF8                                          i2l3966 2FAC  
                                        i2l3958 2F74                                          i2l3798 2462  
                                        i2l4758 19F8                                          i2l4694 1748  
                                        i2l4686 1718                                          i2l4678 1654  
                                        i2l4774 41BC                                          i2l4766 412C  
                                        i2l4870 33C0                                          i2l4854 3306  
                                        i2l4846 3298                                          i2l4838 322C  
                                        i2l5398 2DF6                                          i2l4952 5000  
                                        i2l4784 40BA                                          i2l4776 404E  
                                        i2l4928 465C                                          i2l4936 4D9A  
                                        i2l3992 3070                                          i2l3984 3038  
                                        i2l3976 2FFA                                          i2l3968 2FC0  
                                        i2l3896 2E14                                          i2l4960 3712  
                                        i2l4696 174E                                          i2l4688 172C  
                                        i2l4768 4154                                          i2l5680 3408  
                                        i2l4856 331C                                          i2l4864 3334  
                                        i2l4848 32DE                                          i2l4954 5006  
                                        i2l4786 40CE                                          i2l4794 40F6  
                                        i2l4778 4068                                          i2l4938 4D9E  
                                        i2l3994 3074                                          i2l3986 3042  
                                        i2l3978 300A                                          i2l3898 2E20  
                                        i2l4970 378A                                          i2l4962 3758  
                                        i2l4698 1756                                          i2l5682 3492  
                                        i2l4874 33F4                                          i2l4858 3324  
                                        i2l4866 3368                                          i2l4890 34B2  
                                        i2l5498 003A                                          i2l5684 410C  
                                        i2l4788 40E2                                          i2l3996 3082  
                                        i2l3988 3050                                          i2l4980 3812  
                                        i2l4972 3796                                          i2l4964 376E  
                                        i2l4956 36F4                                          i2l4884 3470  
                                        i2l4876 341E                                          i2l4868 338C  
                                        i2l5676 2D9A                                          i2l3998 30B0  
                                        i2l4990 3850                                          i2l4982 381E  
                                        i2l4974 37C8                                          i2l4958 3704  
                                        i2l4878 343E                                          i2l4886 34A0  
                                        i2l5678 334A                                          i2l4992 3874  
                                        i2l4984 382C                                          i2l4976 37CA  
                                        i2l4968 3782                                          i2l4994 3884  
                                        i2l4986 384A                                          i2l4978 37D6  
                                        i2l4996 3892                                          i2l4988 384C  
                                        i2l4998 3894                                  i2___delay@time 0001  
                                        _RCREG1 0FAE                                          _RCSTA1 0FAB  
                                        _OSCCON 0FD3                                          _SPBRG1 0FAF  
                                        _TXREG1 0FAD                                __end_of___xxtofl 38A6  
                                        _TXSTA1 0FAC                         __end_of_LCD_SetCursorAt 404E  
                          ??_LCD_4bitCodeNoWait 018E                                    vfprintf@cfmt 005C  
                                        ___flge 3C7E                                          ___fleq 44F0  
                          __end_of_LCD_4bitCode 4F56                                       ??___delay 018E  
                                     ??___fladd 003B                                          ___wmul 4EB4  
                                        _ln2_hi 1015                                       ??___fldiv 0022  
                                     ??___awdiv 0005                                          _ln2_lo 1011  
                                     ??___flneg 0005                                       ??___awmod 0005  
                                     ??___flmul 0009                                       ??___flsub 004B  
                                     ??___fltol 0005                                          _efgtoa 102A  
                      ?_EUSART1_SetErrorHandler 018C                                          _floorf 34E0  
                          __end_of_LCD_8bitCode 4F44                                          _memcpy 49E0  
                          read_prec_or_width@ap 0009                                          clear_0 487C  
                                        clear_1 4888                                ___awdiv@quotient 0007  
                               ___awmod@divisor 0003                                          isa$std 0001  
                               ___awmod@counter 0005                                          pad@buf 0013  
              ??_EUSART1_SetOverrunErrorHandler 018F                 ?_EUSART1_SetOverrunErrorHandler 018C  
                                        dtoa@fp 001C                                          _strcpy 4B98  
                                        _strlen 4D8E                                          logf@t1 0064  
                                        logf@t2 0068                                          logf@dk 0082  
                                        logf@ix 009E                                          fputc@c 0001  
                               ??_LCD_PrintChar 0014                               __end_ofi2___delay 4E5C  
                                        fputs@c 000E                                          fputs@i 000F  
                                        fputs@s 000A                                  _LCD_isCursorOn 01AD  
                               ___fpclassifyf@e 0009                                 ___fpclassifyf@u 000B  
                               ___fpclassifyf@x 0001                                LCD_4bitCode@code 0191  
                                  __mediumconst 0000                                          tblptrh 0FF7  
                                        tblptrl 0FF6                                          tblptru 0FF8  
                      ADC_GetConversion@channel 0005                                          putch@c 0001  
                              __end_of_vfprintf 48EE                                 ??_EUSART1_Write 0001  
                                     ??_sprintf 005E                                 _eusart1RxBuffer 0108  
                                    ___flge@ff1 001A                                      ___flge@ff2 001E  
                               ??___fpclassifyf 0005                                    ___xxtofl@arg 0010  
                                  ___xxtofl@exp 000F                               _SYSTEM_Initialize 4EF0  
                                  ___xxtofl@val 0006                                      ___fleq@ff1 0001  
                                    ___fleq@ff2 0005                                      __accesstop 0060  
                                     ?_LCD_Code 0193                         __end_of__initialization 4890  
                                     ?_LCD_Init 0001                                      ___flneg@f1 0001  
                                     ?_LCD_Wait 0001                              ?_SYSTEM_Initialize 0001  
                                 ___rparam_used 0001                                      ___fltol@f1 0001  
                 __end_of_EUSART1_RxDataHandler 4EB4                                  __pcstackCOMRAM 0001  
                                  __pidataBANK0 5010                                    __pidataBANK1 4FEC  
                           ??_SYSTEM_Initialize 018F                                   __end_of_fputc 42BC  
                                 __end_of_fputs 4C20                          ??i2_LCD_8bitCodeNoWait 0003  
                                 __end_of_putch 5014                            __end_of_LCD_PrintStr 3F76  
                          __end_of_EUSART1_Read 4940                     __end_of_EUSART1_Receive_ISR 4440  
                                i2LCD_Code@code 0008                          LCD_8bitCodeNoWait@code 018C  
                                i2__delay_ms@ms 0001                                    ?i2__delay_ms 0001  
                                  ?i2__delay_us 0001                                  i2__delay_us@us 0001  
                                       ??_fputc 0005                       __end_of_SYSTEM_Initialize 4F06  
                                       ??_fputs 000E                                         ??_putch 0001  
                                 _eusart1RxHead 0119                                   _eusart1RxTail 005E  
                                    __pbssBANK0 00E8                                      __pbssBANK1 0100  
               ??_EUSART1_SetRxInterruptHandler 018F                                    ??i2_LCD_Code 000A  
                                    ??_LCD_Code 0195                                      ??_LCD_Init 019B  
                                  ??i2_LCD_Wait 0006                                      ??_LCD_Wait 0191  
                              ?_LCD_SetCursorAt 0195                 __end_of_EUSART1_SetErrorHandler 4FC2  
                                       ?___flge 001A                                         ?___fleq 0001  
                                       ?___wmul 0001                                         ?_efgtoa 004B  
                                       ?_floorf 0033                                         ?_memcpy 0001  
                                 LCD_PrintStr@i 001D                                         ?_strcpy 0001  
                                       ?_strlen 0001          __end_of_EUSART1_SetFramingErrorHandler 4FB4  
                _EUSART1_SetFramingErrorHandler 4FA6                        i2LCD_4bitCodeNoWait@code 0001  
                             __end_of__delay_ms 4B0C                               __end_of__delay_us 4D1C  
                            __end_ofi2_LCD_Code 4FDE                                       ?___xxtofl 0006  
                            __end_ofi2_LCD_Wait 4FEC                    ?_EUSART1_DefaultErrorHandler 0001  
                                       _OSCTUNE 0F9B                                         _SPBRGH1 0F7F  
                           _LCD_MoveCursorRight 4A7E                    __end_ofi2_LCD_4bitCodeNoWait 47D8  
                               _HandleInterrupt 2A54                      __end_of_LCD_MoveCursorLeft 4B98  
                    __end_of_LCD_8bitCodeNoWait 4990                                 LCD_PrintStr@str 0015  
                          _ADC_InterruptHandler 0110                                         __Hparam 0000  
                                       __Lparam 0000                            ?_LCD_MoveCursorRight 0010  
                                       ___delay 4DFA                                         ___fladd 216A  
                                       ___fldiv 2E14                                         ___awdiv 42BC  
                                       ___flneg 4D56                                         ___awmod 4440  
                                       ___flmul 262A                                         ___flsub 4B0C  
                                       ___fltol 3B78                                       ?_vfprintf 0093  
                                  __psmallconst 1000                                         __pcinit 483E  
                                       __ramtop 1000                                         __ptext0 4EDA  
                                       __ptext1 4EF0                                         __ptext2 4C20  
                                       __ptext3 4FF6                                         __ptext4 500C  
                                       __ptext5 468E                                         __ptext6 4F8A  
                                       __ptext7 4F98                                         __ptext8 4FA6  
                                       __ptext9 4FB4                                         _command 016A  
                         _OSCILLATOR_Initialize 4FF6                           read_prec_or_width@fmt 0007  
                                    ??___xxtofl 000A                                ___awmod@dividend 0001  
                            _EUSART1_Initialize 468E                        ??_PIN_MANAGER_Initialize 018C  
                                       efgtoa@c 0051                                         efgtoa@d 006B  
                                       efgtoa@e 006F                                         efgtoa@f 004D  
                                       efgtoa@g 0084                                         efgtoa@h 0079  
                                       efgtoa@i 0077                                         efgtoa@l 007D  
                                       efgtoa@m 006D                                         efgtoa@n 0082  
                                       efgtoa@p 0062                                         efgtoa@t 0064  
                                       efgtoa@u 0088                                         efgtoa@w 0071  
                               _LCD_isDisplayOn 01AF                                       _LCD_Clear 4E5C  
                 ??_EUSART1_DefaultErrorHandler 0001                                    _LCD_4bitCode 4F44  
                                       _sprintf 4990                            end_of_initialization 4890  
                                       floorf@e 0041                                         floorf@m 003D  
                                       floorf@u 0043                                         floorf@x 0033  
                           ?_EUSART1_Initialize 0001                                    _LCD_8bitCode 4F32  
                              LCD_SetCursorAt@x 0195                                LCD_SetCursorAt@y 0197  
                                       memcpy@d 0007                                         memcpy@n 0005  
                                       memcpy@s 0009                                 _LCD_isIncrement 01B1  
                                       fputc@fp 0003                     _EUSART1_OverrunErrorHandler 01A4  
                                       fputs@fp 000C                              _read_prec_or_width 4124  
         __end_of_EUSART1_SetRxInterruptHandler 4F98                   _EUSART1_SetRxInterruptHandler 4F8A  
                             __end_of_vfpfcnvrt 34E0                                      efgtoa@mode 0069  
                         ??_LCD_MoveCursorRight 0012                                      efgtoa@sign 0081  
                                       postdec1 0FE5                                         postdec2 0FDD  
                           ?_read_prec_or_width 0007                                         postinc0 0FEE  
                                       postinc1 0FE6                                         postinc2 0FDE  
                              vfpfcnvrt@convarg 008C                                      ??_vfprintf 005C  
                          ??_EUSART1_Initialize 018F                                         strcpy@d 0007  
                                       strlen@a 0003                                         strcpy@s 0005  
                                       strlen@s 0001                            _HandleInterrupt$2530 00C6  
                          _HandleInterrupt$2531 00CA                            _HandleInterrupt$2532 00CE  
                          _HandleInterrupt$2533 00D2                                       _PORTBbits 0F81  
                                     _PORTEbits 0F84                                       _PORTGbits 0F86  
                                     _PORTHbits 0F87                                       _PORTJbits 0F88  
                                   ___fladd@grs 0042                                   ___xxtofl@sign 000E  
                                     _TRISGbits 0F98                                       _TRISHbits 0F99  
                              LCD_8bitCode@code 0191                                      ?_LCD_Clear 0001  
                        LCD_PrintChar@inputChar 0014                            ??_read_prec_or_width 000B  
                                   ___fldiv@grs 002D                                     ___fldiv@rem 0026  
                                     i2___delay 4E2C                             EUSART1_Write@txData 0001  
                       __end_of_HandleInterrupt 2E14                                     ___flmul@grs 000E  
                                  _LCD_PrintStr 3E80                                    _EUSART1_Read 48EE  
                  __end_of_INTERRUPT_Initialize 5010                       LCD_MoveCursorRight@amount 0010  
                                __end_of___flge 3D82                                  __end_of___fleq 459A  
                                   vfpfcnvrt@ap 0058                                     vfpfcnvrt@cp 0091  
                          i2_LCD_4bitCodeNoWait 476E                                     __delay_ms@i 018F  
                                   vfpfcnvrt@fp 0054                                  __end_of___wmul 4EDA  
                                __end_of_ln2_hi 1019                                  __end_of_ln2_lo 1015  
                                   __delay_us@i 018F                                  __end_of_efgtoa 1A22  
                                _ADC_Initialize 4F06                                  __end_of_floorf 36F2  
                                __end_of_memcpy 4A30                          ?_OSCILLATOR_Initialize 0001  
                                    floorf@F526 00E8                                  __end_of_strcpy 4BDC  
                                __end_of_strlen 4DC4                             start_initialization 483E  
                         __end_of_LCD_PrintChar 468E                                     __end_of_Lg1 1011  
                                   __end_of_Lg2 100D                                     __end_of_Lg3 1009  
                                   __end_of_Lg4 1005                                     __end_of_abs 4CA2  
                                   __end_of_pad 4614                                      ?i2___delay 0001  
 EUSART1_SetRxInterruptHandler@interruptHandler 018C                               LCD_PrintStr@delay 0017  
                         __end_of_EUSART1_Write 4F32                              i2LCD_4bitCode@code 0006  
                         __end_of___fpclassifyf 3E80                                     vfprintf@fmt 0095  
                                      ??___flge 0022                                        ??___fleq 0009  
                                      ??___wmul 0005                           _EUSART1_RxDataHandler 4E88  
                                      ??_efgtoa 0052                  ?_EUSART1_SetRxInterruptHandler 018C  
                        __end_of_ADC_Initialize 4F1C                           ?i2_LCD_4bitCodeNoWait 0001  
                                   __pdataBANK0 00FD                                     __pdataBANK1 01AD  
                       HandleInterrupt@received 00DA                                        ??_floorf 0037  
                                      ??_memcpy 0007                            _LCD_isCursorBlinking 0113  
                                      ??_strcpy 0005                                        ??_strlen 0003  
                                     ___delay@i 018F                         HandleInterrupt@potValue 00C1  
                                _eusart1RxCount 0118                                       ___fladd@a 0037  
                                     ___fladd@b 0033                                       ___fldiv@a 001E  
                                     ___fldiv@b 001A                                       ___flmul@a 0005  
                                     ___flmul@b 0001                                     __pbssCOMRAM 005E  
                                     ___flsub@a 0047                                       ___flsub@b 0043  
             _EUSART1_RxDefaultInterruptHandler 01AA                                   __pcstackBANK0 0060  
                                 __pcstackBANK1 018C                                     ??_LCD_Clear 000A  
                                     __delay_ms 4AC6                                       __delay_us 4CE2  
                          LCD_PrintStr@initialX 0019                            LCD_PrintStr@initialY 001B  
                              ?_HandleInterrupt 0001                                  i2_LCD_4bitCode 4F68  
              ??_EUSART1_SetFramingErrorHandler 018F                 ?_EUSART1_SetFramingErrorHandler 018C  
                                i2_LCD_8bitCode 4F56                                       __pnvBANK1 01A1  
                            _LCD_isCursorMoving 00FD                                     _efgtoa$2130 0066  
                        _PIN_MANAGER_Initialize 4C20                                       _dtoa$2099 0020  
                                     __pintcode 0008                                        ?___delay 018C  
                                      ?___fladd 0033                                        ?___fldiv 001A  
                                      ?___awdiv 0001                                        ?___flneg 0001  
                                      ?___awmod 0001                                        ?___flmul 0001  
                                      ?___flsub 0043                                        ?___fltol 0001  
                               ?_ADC_Initialize 0001                                       _logf$2534 0092  
                                     _logf$2535 006C                                       _logf$2536 0070  
                                     _logf$2537 0074                                       _logf$2538 0078  
                  ??_INTERRUPT_InterruptManager 00DC                              _LCD_MoveCursorLeft 4B52  
                                     _connected 00FC                        i2LCD_8bitCodeNoWait@code 0001  
                            _LCD_8bitCodeNoWait 4940                                     __smallconst 1000  
                                      _BAUDCON1 0F7E           fp__EUSART1_DefaultOverrunErrorHandler 0000  
    __end_of_EUSART1_DefaultOverrunErrorHandler 5006            ??_EUSART1_DefaultOverrunErrorHandler 0001  
           ?_EUSART1_DefaultOverrunErrorHandler 0001              _EUSART1_DefaultOverrunErrorHandler 5000  
                          _EUSART1_ErrorHandler 01A1                         _EUSART1_SetErrorHandler 4FB4  
                           ?_LCD_MoveCursorLeft 0010                                      ?__delay_ms 018C  
                                    ?__delay_us 018C                             ?_LCD_8bitCodeNoWait 018C  
                                   ??i2___delay 0003                                        ?_sprintf 00A2  
                        __end_ofi2_LCD_4bitCode 4F7A                            _INTERRUPT_Initialize 500C  
                        __end_ofi2_LCD_8bitCode 4F68                                        _LCD_Code 4FC2  
                                      _LCD_Init 3A3C                                        _LCD_Wait 4F7A  
                                ___wmul@product 0005         EUSART1_SetErrorHandler@interruptHandler 018C  
                              HandleInterrupt@i 00D6                                        _LCD_posX 01B5  
                                      _LCD_posY 01B3                                        _PIE1bits 0F9D  
                                      i2u300_40 225C                                        i2u300_41 2258  
                                      i2u301_40 226A                                        i2u301_41 2266  
                                      i2u310_40 23A8                                        i2u302_40 22D8  
                                      i2u310_41 23A4                                        i2u302_41 22D4  
                                      i2u311_40 23B6                                        i2u303_40 22F0  
                                      i2u311_41 23B2                                        i2u303_41 22EA  
                                      i2u320_40 2500                                        i2u312_40 23D4  
                                      i2u304_40 22F2                                        i2u400_40 3BF0  
                                      i2u320_41 24FC                                        i2u312_41 23D0  
                                      i2u400_41 3BEC                                        i2u321_40 2512  
                                      i2u313_40 240C                                        i2u305_40 231A  
                                      i2u401_40 3C04                                        i2u321_41 250E  
                                      i2u313_41 2408                                        i2u305_41 2316  
                                      i2u401_41 3C00                                        i2u330_40 25FA  
                                      i2u322_40 2528                                        i2u314_40 2452  
                                      i2u306_40 2338                                        i2u402_40 3C2C  
                                      i2u410_40 3E08                                        i2u330_41 25F6  
                                      i2u322_41 2524                                        i2u314_41 244E  
                                      i2u306_41 2334                                        i2u402_41 3C28  
                                      i2u410_41 3E04                                        i2u331_40 2616  
                                      i2u323_40 253E                                        i2u315_40 2488  
                                      i2u307_40 2358                                        i2u403_40 3C4C  
                                      i2u411_40 3E32                                        i2u331_41 2612  
                                      i2u323_41 253A                                        i2u315_41 2484  
                                      i2u307_41 2354                                        i2u403_41 3C48  
                                      i2u411_41 3E2E                                        i2u340_40 2EB6  
                                      i2u324_40 2552                                        i2u316_40 2498  
                                      i2u308_40 2366                                        i2u500_40 3892  
                                      i2u332_40 4C1E                                        i2u404_40 3C5C  
                                      i2u340_41 2EB2                                        i2u324_41 254E  
                                      i2u316_41 2494                                        i2u308_41 2362  
                                      i2u500_41 388E                                        i2u332_41 4C1A  
                                      i2u404_41 3C58                                        i2u412_45 3E44  
                                      i2u420_45 358C                                        i2u420_46 3596  
                                      i2u420_47 35A6                                        i2u341_40 2EF6  
                                      i2u325_40 256C                                        i2u317_40 24C4  
                                      i2u309_40 2376                                        i2u405_40 45A8  
                                      i2u413_40 3E6C                                        i2u421_40 35E4  
                                      i2u501_40 48E2                                        i2u341_41 2EF2  
                                      i2u325_41 2568                                        i2u317_41 24C0  
                                      i2u309_41 2372                                        i2u405_41 45A4  
                                      i2u413_41 3E66                                        i2u421_41 35E0  
                                      i2u501_41 48DE                                        i2u502_40 4CE0  
                                      i2u510_40 3EFE                                        i2u350_40 3082  
                                      i2u342_40 2F36                                        i2u326_40 25A6  
                                      i2u318_40 24D4                                        i2u406_40 45FE  
                                      i2u414_40 3E6E                                        i2u422_40 3608  
                                      i2u502_41 4CDC                                        i2u510_41 3EFA  
                                      i2u350_41 307E                                        i2u342_41 2F32  
                                      i2u326_41 25A2                                        i2u318_41 24D0  
                                      i2u406_41 45FA                                        i2u422_45 35FE  
                                      i2u511_40 3F4C                                        i2u351_40 30B0  
                                      i2u343_40 2FAC                                        i2u335_40 2E2E  
                                      i2u327_40 25B8                                        i2u319_40 24F0  
                                      i2u407_40 4C7C                                        i2u431_40 38B6  
                                      i2u423_40 3624                                        i2u415_40 4BDA  
                                      i2u511_41 3F48                                        i2u351_41 30AC  
                                      i2u343_41 2FA8                                        i2u335_41 2E2A  
                                      i2u327_41 25B4                                        i2u319_41 24EC  
                                      i2u407_41 4C78                                        i2u431_41 38B0  
                                      i2u423_41 3620                                        i2u415_41 4BD6  
                                      i2u520_40 4932                                        i2u512_40 3F60  
                                      i2u352_40 30C6                                        i2u344_40 2FCE  
                                      i2u336_40 2E40                                        i2u360_40 2666  
                                      i2u328_40 25C8                                        i2u440_40 3A04  
                                      i2u432_40 38B8                                        i2u408_40 3DC2  
                                      i2u424_40 3678                                        i2u416_40 47F6  
                                      i2u520_41 492E                                        i2u512_41 3F5C  
                                      i2u352_41 30C2                                        i2u344_41 2FCA  
                                      i2u336_41 2E3C                                        i2u360_41 2662  
                                      i2u328_41 25C4                                        i2u440_41 3A00  
                                      i2u416_41 47F2                                        i2u408_45 3DB8  
                                      i2u424_45 366E                                        i2u513_40 439E  
                                      i2u521_40 4F2C                                        i2u353_40 30DA  
                                      i2u345_40 2FF8                                        i2u337_40 2E50  
                                      i2u361_40 26A6                                        i2u329_40 25E8  
                                      i2u433_40 38CA                                        i2u409_40 3DE0  
                                      i2u425_40 3694                                        i2u417_40 3528  
                                      i2u441_40 104E                                        i2u513_41 439A  
                                      i2u521_41 4F28                                        i2u353_41 30D6  
                                      i2u345_41 2FF4                                        i2u337_41 2E4C  
                                      i2u361_41 26A2                                        i2u329_41 25E4  
                                      i2u433_41 38C6                                        i2u409_41 3DDC  
                                      i2u425_41 3690                                        i2u441_41 104A  
                                      _PIR1bits 0F9E                                        i2u417_45 351E  
                                      i2u522_40 4D42                                        i2u354_40 30F4  
                                      i2u346_40 301C                                        i2u338_40 2E94  
                                      i2u370_40 2942                                        i2u362_40 26B8  
                                      i2u530_40 1C78                                        i2u434_40 38E2  
                                      i2u426_40 36D0                                        i2u418_40 3556  
                                      i2u450_40 12BC                                        i2u442_40 1098  
                                      i2u522_41 4D3E                                        i2u354_41 30F0  
                                      i2u346_41 3018                                        i2u338_41 2E90  
                                      i2u370_41 293E                                        i2u362_41 26B4  
                                      i2u530_41 1C74                                        i2u434_41 38DE  
                                      i2u426_41 36CC                                        i2u418_41 3552  
                                      i2u450_41 12B8                                        i2u442_41 1094  
                                      i2u290_45 4A3C                                        i2u515_40 43D4  
                                      i2u514_48 43B2                                        i2u355_40 313C  
                                      i2u347_40 3032                                        i2u339_40 2EA6  
                                      i2u371_40 2958                                        i2u363_40 26C8  
                                      i2u531_40 1CBE                                        i2u523_40 1A72  
                                      i2u435_40 390E                                        i2u419_40 3578  
                                      i2u427_40 4A2E                                        i2u451_40 12FA  
                                      i2u443_40 10A8                                        i2u515_41 43D0  
                                      i2u514_49 43C6                                        i2u355_41 3138  
                                      i2u347_41 302E                                        i2u339_41 2EA2  
                                      i2u371_41 2954                                        i2u363_41 26C4  
                                      i2u523_41 1A6E                                        i2u435_41 390A  
                                      i2u419_41 3574                                        i2u427_41 4A2A  
                                      i2u451_41 12F6                                        i2u443_41 10A4  
                                      i2u291_45 477A                                        i2u531_45 1CB4  
                                      i2u284_40 4E5A                                        i2u508_40 3EB0  
                                      i2u356_40 316C                                        i2u348_40 3050  
                                      i2u372_40 296C                                        i2u364_40 26FE  
                                      i2u524_40 1A92                                        i2u380_40 432C  
                                      i2u436_40 3924                                        i2u460_40 1634  
                                      i2u452_40 1386                                        i2u444_40 10E6  
                                      i2u540_40 2B4C                                        i2u284_41 4E56  
                                      i2u508_41 3EAC                                        i2u356_41 3168  
                                      i2u348_41 304C                                        i2u372_41 2968  
                                      i2u364_41 26FA                                        i2u380_41 4328  
                                      i2u436_41 3920                                        i2u460_41 1630  
                                      i2u452_41 1382                                        i2u444_41 10E2  
                                      i2u540_41 2B48                                        i2u292_45 47A4  
                                      i2u524_45 1A88                                        i2u517_40 441C  
                                      i2u516_48 43EA                                        i2u285_40 4DF8  
                                      i2u509_40 3EEA                                        i2u357_40 319A  
                                      i2u349_40 3070                                        i2u373_40 2986  
                                      i2u365_40 270E                                        i2u293_40 2184  
                                      i2u525_40 1AAE                                        i2u381_40 4348  
                                      i2u437_40 39C8                                        i2u461_40 1644  
                                      i2u453_40 13BC                                        i2u445_40 10F8  
                                      i2u541_40 2CF2                                        i2u517_41 4418  
                                      i2u516_49 43FE                                        i2u285_41 4DF4  
                                      i2u509_41 3EE6                                        i2u357_41 3196  
                                      i2u349_41 306C                                        i2u373_41 2982  
                                      i2u365_41 270A                                        i2u293_41 2180  
                                      i2u525_41 1AAA                                        i2u381_41 4344  
                                      i2u437_41 39C4                                        i2u461_41 1640  
                                      i2u453_41 13B8                                        i2u445_41 10F4  
                                      i2u541_41 2CEE                                        i2u374_40 29CE  
                                      i2u366_40 2888                                        i2u358_40 2644  
                                      i2u294_40 2196                                        i2u526_40 1AD6  
                                      i2u382_40 436E                                        i2u286_40 4204  
                                      i2u438_40 39DA                                        i2u390_40 455C  
                                      i2u470_40 19CC                                        i2u462_40 16DE  
                                      i2u454_40 13D4                                        i2u446_40 1172  
                                      i2u542_40 2D0E                                        i2u374_41 29CA  
                                      i2u358_41 2640                                        i2u294_41 2192  
                                      i2u526_41 1AD2                                        i2u382_41 436A  
                                      i2u286_41 4200                                        i2u438_41 39D6  
                                      i2u390_41 4558                                        i2u470_41 19C6  
                                      i2u462_41 16DA                                        i2u454_41 13D0  
                                      i2u446_41 116E                                        i2u542_41 2D0A  
                                      i2u366_45 287E                                        i2u519_40 4900  
                                      i2u518_48 4422                                        i2u375_40 29FC  
                                      i2u367_40 28E2                                        i2u359_40 2656  
                                      i2u295_40 21A6                                        i2u527_40 1B52  
                                      i2u383_40 4452                                        i2u287_40 4216  
                                      i2u439_40 39F4                                        i2u391_40 4590  
                                      i2u471_40 19CE                                        i2u463_40 172C  
                                      i2u455_40 1406                                        i2u447_40 1184  
                                      i2u543_40 2D24                                        i2u535_40 2A72  
                                      i2u519_41 48FC                                        i2u518_49 4436  
                                      i2u375_41 29F8                                        i2u367_41 28DE  
                                      i2u359_41 2652                                        i2u295_41 21A2  
                                      i2u383_41 444E                                        i2u287_41 4212  
                                      i2u439_41 39F0                                        i2u391_41 458C  
                                      i2u463_41 1728                                        i2u455_41 1402  
                                      i2u447_41 1180                                        i2u543_41 2D1C  
                                      i2u535_41 2A6E                                        i2u527_45 1B48  
                                      i2u480_40 4AA8                                        i2u376_40 2A36  
                                      i2u368_40 2902                                        i2u296_40 21E8  
                                      i2u528_40 1B6E                                        i2u384_40 446C  
                                      i2u288_40 423E                                        i2u392_40 3CAC  
                                      i2u472_40 19E2                                        i2u464_40 17DA  
                                      i2u456_40 1414                                        i2u448_40 11FE  
                                      i2u536_40 2A84                                        i2u480_41 4AA4  
                                      i2u376_41 2A32                                        i2u368_41 28FE  
                                      i2u296_41 21E4                                        i2u528_41 1B6A  
                                      i2u384_41 4468                                        i2u288_41 423A  
                                      i2u392_41 3CA8                                        i2u472_41 19DE  
                                      i2u464_41 17D6                                        i2u456_41 1410  
                                      i2u448_41 11FA                                        i2u536_41 2A80  
                                      i2u481_40 4EAC                                        i2u369_40 2914  
                                      i2u297_40 21FE                                        i2u529_40 1C48  
                                      i2u377_40 42CE                                        i2u385_40 4486  
                                      i2u289_40 4274                                        i2u393_40 3CEA  
                                      i2u465_40 1816                                        i2u457_40 143E  
                                      i2u449_40 128A                                        i2u473_40 4154  
                                      i2u545_40 2D48                                        i2u544_48 2D28  
                                      i2u537_40 2A96                                        i2u561_40 0048  
                                      i2u481_41 4EA8                                        i2u369_41 2910  
                                      i2u297_41 21FA                                        i2u529_41 1C44  
                                      i2u377_41 42CA                                        i2u385_41 4482  
                                      i2u289_41 4270                                        i2u393_41 3CE6  
                                      i2u465_41 1812                                        i2u457_41 143A  
                                      i2u449_41 1286                                        i2u473_41 4150  
                                      i2u545_41 2D40                                        i2u537_41 2A92  
                                      i2u561_41 0044                                        i2u490_40 4DB6  
                                      i2u298_40 2210                                        i2u378_40 42E8  
                                      i2u386_40 44A4                                        i2u394_40 3D08  
                                      i2u466_40 1824                                        i2u458_40 1586  
                                      i2u474_40 41E8                                        i2u482_40 31D6  
                                      i2u538_40 2AA6                                        i2u562_40 0056  
                                      i2u490_41 4DB2                                        i2u298_41 220C  
                                      i2u378_41 42E4                                        i2u386_41 44A0  
                                      i2u394_41 3D04                                        i2u466_41 1820  
                                      i2u458_41 1582                                        i2u474_41 41E4  
                                      i2u482_41 31D2                                        i2u538_41 2AA0  
                                      i2u562_41 0052                            ??_LCD_MoveCursorLeft 0012  
                                      i2u538_46 2AA8                                        i2u475_40 4068  
                                      i2u299_40 2220                                        i2u491_40 3704  
                                      i2u379_40 430E                                        i2u387_40 44BA  
                                      i2u395_40 3D28                                        i2u467_40 1878  
                                      i2u459_40 15EC                                        i2u483_40 321E  
                                      i2u547_40 2D6E                                        i2u546_48 2D4C  
                                      i2u539_40 2AC2                                        i2u563_40 0064  
                                      i2u475_41 4064                                        i2u299_41 221C  
                                      i2u491_41 3700                                        i2u379_41 430A  
                                      i2u387_41 44B6                                        i2u395_41 3D24  
                                      i2u467_41 1874                                        i2u459_41 15E8  
                                      i2u483_41 321A                                        i2u547_41 2D66  
                                      i2u539_41 2ABC                                        i2u563_41 0060  
                                      i2u539_46 2AC4                                        i2u476_40 4084  
                                      i2u492_40 3712                                        i2u388_40 44DE  
                                      i2u396_40 3D78                                        i2u468_40 194A  
                                      i2u484_40 3278                                        i2u476_41 4080  
                                      i2u492_41 370E                                        i2u388_41 44DA  
                                      i2u396_41 3D74                                        i2u468_41 1946  
                                      i2u484_41 3274                                        i2u477_40 409E  
                                      i2u493_40 376E                                        i2u389_40 451E  
                                      i2u397_40 4D6C                                        i2u469_40 1966  
                                      i2u485_40 3298                                        i2u549_40 2DCA  
                                      i2u548_48 2D72                                        i2u564_48 006A  
                                      i2u477_41 409A                                        i2u493_41 376A  
                                      i2u389_41 451A                                        i2u397_41 4D68  
                                      i2u469_41 1962                                        i2u485_41 3294  
                                      i2u549_41 2DC6                                        i2u564_49 0080  
                                      i2u478_40 40BA                                        i2u494_40 37C4  
                                      i2u398_40 3B8E                                        i2u486_40 3388  
                                      i2u478_41 40B6                                        i2u494_41 37C0  
                                      i2u398_41 3B8A                                        i2u486_41 3384  
                                      i2u566_47 4CB4                                        i2u479_40 4B7A  
                                      i2u487_40 463A                                        i2u495_40 380E  
                                      i2u399_40 3BC2                                        i2u479_41 4B76  
                                      i2u487_41 4636                                        i2u495_41 380A  
                                      i2u399_45 3BB8                                        i2u488_40 465C  
                                      i2u496_40 382C                                        i2u488_41 4658  
                                      i2u496_41 3828                                        i2u489_40 4670  
                                      i2u497_40 383C                                        i2u489_41 466C  
                                      i2u497_41 3838                                        i2u498_40 384A  
                                      i2u498_41 3846                                        i2u499_40 3884  
                                      i2u499_41 3880                          ?_EUSART1_RxDataHandler 0001  
                                      _RCONbits 0FD0                            ??_LCD_8bitCodeNoWait 018E  
                        ??i2_LCD_4bitCodeNoWait 0003                               i2_LCD_SetCursorAt 404E  
                                     _vfpfcnvrt 31AE                                      _ADCON0bits 0FC2  
                                    _ADCON1bits 0FC1                               ___wmul@multiplier 0001  
                            ?i2_LCD_SetCursorAt 000A                             ??i2_LCD_SetCursorAt 000E  
                                    vfpfcnvrt@c 0090                                 ?i2_LCD_4bitCode 0006  
                                     copy_data0 4852                           ?_INTERRUPT_Initialize 0001  
                                   _LCD_isShift 0115                                 ?i2_LCD_8bitCode 0006  
                         EUSART1_Read@readValue 0001                     __end_of_LCD_MoveCursorRight 4AC6  
                                      __Hrparam 0000                              i2LCD_SetCursorAt@x 000A  
                            i2LCD_SetCursorAt@y 000C                                       memcpy@tmp 000B  
                                    vfprintf@ap 0097                                        __Lrparam 0000  
                                    vfprintf@fp 0093                               _ADC_GetConversion 4D1C  
                     __end_ofi2_LCD_SetCursorAt 4124                         ??_OSCILLATOR_Initialize 018C  
                            ?_ADC_GetConversion 0001                                      ?_vfpfcnvrt 0054  
                            ___fpclassifyf@F465 00EC                       ??_EUSART1_SetErrorHandler 018F  
           __end_of_EUSART1_DefaultErrorHandler 500C                     _EUSART1_DefaultErrorHandler 5006  
                           ??_ADC_GetConversion 0003                                      sprintf@fmt 00A4  
                      LCD_MoveCursorLeft@amound 0010                                        ___xxtofl 36F2  
                             ??_LCD_SetCursorAt 0199                                   ??i2__delay_ms 0003  
                                 ??i2__delay_us 0003                                     ??__delay_ms 018E  
                                   ??__delay_us 018E                                        __ptext10 4F06  
                                      __ptext11 3A3C                                        __ptext20 4DFA  
                                      __ptext12 4AC6                                        __ptext21 4702  
                                      __ptext13 3F76                                        __ptext30 4B98  
                                      __ptext14 4FC2                                        __ptext31 49E0  
                                      __ptext23 2A54                                        __ptext15 4F32  
                                      __ptext40 459A                                        __ptext32 47D8  
                                      __ptext24 4990                                        __ptext16 4940  
                                      __ptext41 4BDC                                        __ptext33 34E0  
                                      __ptext25 489A                                        __ptext17 4F44  
                                      __ptext50 216A                                        __ptext42 41F2  
                                      __ptext34 3D82                                        __ptext26 31AE  
                                      __ptext18 4F7A                                        __ptext51 262A  
                                      __ptext43 5012                                        __ptext35 3B78  
                                      __ptext27 4124                                        __ptext19 4CE2  
                                      __ptext60 4CA2                                        __ptext52 2E14  
                                      __ptext44 4C62                                        __ptext36 4D56  
                                      __ptext28 4EB4                                        __ptext61 4FD0  
                                      __ptext53 3E80                                        __ptext45 4440  
                                      __ptext37 3C7E                                        __ptext29 102A  
                                      __ptext70 4380                                        __ptext62 4F56  
                                      __ptext54 4D8E                                        __ptext46 42BC  
                                      __ptext38 44F0                                        __ptext71 5000  
                                      __ptext63 4A30                                        __ptext55 4614  
                                      __ptext47 1A22                                        __ptext39 38A6  
                                      __ptext72 5014                                        __ptext64 4F68  
                                      __ptext56 4A7E                                        __ptext48 36F2  
                                      __ptext73 5006                                        __ptext65 4FDE  
                                      __ptext57 4B52                                        __ptext49 4B0C  
                                      __ptext74 4E88                                        __ptext66 4DC4  
                                      __ptext58 404E                                        __ptext75 48EE  
                                      __ptext67 4E2C                                        __ptext59 4E5C  
                                      __ptext76 4D1C                                        __ptext68 476E  
                                      __ptext77 0000                                        __ptext69 4F1C  
                                    strcpy@dest 0001                              i2LCD_8bitCode@code 0006  
                    __end_of_LCD_4bitCodeNoWait 476E                       __end_of_ADC_GetConversion 4D56  
                                      efgtoa@fp 004B                                        efgtoa@ne 0060  
                                      efgtoa@pp 0068                                        efgtoa@ou 0073  
EUSART1_SetOverrunErrorHandler@interruptHandler 018C                                        isa$xinst 0000  
                                      int$flags 005F                                        _vfprintf 489A  
            __end_of_INTERRUPT_InterruptManager 00B4                      _INTERRUPT_InterruptManager 0008  
                   _EUSART1_FramingErrorHandler 01A7                             _EUSART1_Receive_ISR 4380  
                                      logf@F472 00F0                              HandleInterrupt@len 00DB  
                                    _INTCONbits 0FF2                                        memcpy@d1 0001  
                                      memcpy@s1 0003                                        logf@hfsq 007E  
                        ??_INTERRUPT_Initialize 018C                                        intlevel2 0000  
                                     sprintf@ap 00AA                            ?_EUSART1_Receive_ISR 0001  
                  __end_ofi2_LCD_8bitCodeNoWait 4A7E                                      i2_LCD_Code 4FD0  
                       ?_PIN_MANAGER_Initialize 0001                             __end_ofi2__delay_ms 4CE2  
                                    i2_LCD_Wait 4FDE                             __end_ofi2__delay_us 4DFA  
        __end_of_EUSART1_SetOverrunErrorHandler 4FA6                  _EUSART1_SetOverrunErrorHandler 4F98  
                                     strcpy@src 0003                                      _RCSTA1bits 0FAB  
                              ??_ADC_Initialize 018C                                     efgtoa@nmode 006A  
EUSART1_SetFramingErrorHandler@interruptHandler 018C                                     ??_vfpfcnvrt 005A  
                            _eusart1RxLastError 0117                                        sprintf@f 00AC  
                                      sprintf@s 00A2                          LCD_4bitCodeNoWait@code 018C  
                                 ?_LCD_4bitCode 0191                                    ___delay@time 018C  
                                 ___fladd@signs 003F                                   ?_LCD_8bitCode 0191  
                         ??_EUSART1_Receive_ISR 0001                  __end_of_PIN_MANAGER_Initialize 4C62  
                                  ___fladd@aexp 0040                                    ___fladd@bexp 0041  
                       ??_EUSART1_RxDataHandler 0001                              fp__HandleInterrupt 0000  
